
SupplyTest.elf:     file format elf32-littlearm

Sections:
Idx Name          Size      VMA       LMA       File off  Algn
  0 .isr_vector   000001c4  08000000  08000000  00010000  2**0
                  CONTENTS, ALLOC, LOAD, READONLY, DATA
  1 .text         000076d4  080001d0  080001d0  000101d0  2**4
                  CONTENTS, ALLOC, LOAD, READONLY, CODE
  2 .rodata       0000042c  080078a8  080078a8  000178a8  2**3
                  CONTENTS, ALLOC, LOAD, READONLY, DATA
  3 .ARM.extab    00000000  08007cd4  08007cd4  000201e0  2**0
                  CONTENTS
  4 .ARM          00000008  08007cd4  08007cd4  00017cd4  2**2
                  CONTENTS, ALLOC, LOAD, READONLY, DATA
  5 .preinit_array 00000000  08007cdc  08007cdc  000201e0  2**0
                  CONTENTS, ALLOC, LOAD, DATA
  6 .init_array   00000004  08007cdc  08007cdc  00017cdc  2**2
                  CONTENTS, ALLOC, LOAD, DATA
  7 .fini_array   00000004  08007ce0  08007ce0  00017ce0  2**2
                  CONTENTS, ALLOC, LOAD, DATA
  8 .data         000001e0  20000000  08007ce4  00020000  2**2
                  CONTENTS, ALLOC, LOAD, DATA
  9 .bss          000001c8  200001e0  08007ec4  000201e0  2**2
                  ALLOC
 10 ._user_heap_stack 00000600  200003a8  08007ec4  000203a8  2**0
                  ALLOC
 11 .ARM.attributes 00000030  00000000  00000000  000201e0  2**0
                  CONTENTS, READONLY
 12 .debug_info   0000b6b5  00000000  00000000  00020210  2**0
                  CONTENTS, READONLY, DEBUGGING, OCTETS
 13 .debug_abbrev 00001e41  00000000  00000000  0002b8c5  2**0
                  CONTENTS, READONLY, DEBUGGING, OCTETS
 14 .debug_aranges 00000900  00000000  00000000  0002d708  2**3
                  CONTENTS, READONLY, DEBUGGING, OCTETS
 15 .debug_ranges 00000848  00000000  00000000  0002e008  2**3
                  CONTENTS, READONLY, DEBUGGING, OCTETS
 16 .debug_macro  0002346c  00000000  00000000  0002e850  2**0
                  CONTENTS, READONLY, DEBUGGING, OCTETS
 17 .debug_line   0000b8d9  00000000  00000000  00051cbc  2**0
                  CONTENTS, READONLY, DEBUGGING, OCTETS
 18 .debug_str    000d6245  00000000  00000000  0005d595  2**0
                  CONTENTS, READONLY, DEBUGGING, OCTETS
 19 .comment      00000053  00000000  00000000  001337da  2**0
                  CONTENTS, READONLY
 20 .debug_frame  000035e8  00000000  00000000  00133830  2**2
                  CONTENTS, READONLY, DEBUGGING, OCTETS

Disassembly of section .text:

080001d0 <__do_global_dtors_aux>:
 80001d0:	b510      	push	{r4, lr}
 80001d2:	4c05      	ldr	r4, [pc, #20]	; (80001e8 <__do_global_dtors_aux+0x18>)
 80001d4:	7823      	ldrb	r3, [r4, #0]
 80001d6:	b933      	cbnz	r3, 80001e6 <__do_global_dtors_aux+0x16>
 80001d8:	4b04      	ldr	r3, [pc, #16]	; (80001ec <__do_global_dtors_aux+0x1c>)
 80001da:	b113      	cbz	r3, 80001e2 <__do_global_dtors_aux+0x12>
 80001dc:	4804      	ldr	r0, [pc, #16]	; (80001f0 <__do_global_dtors_aux+0x20>)
 80001de:	f3af 8000 	nop.w
 80001e2:	2301      	movs	r3, #1
 80001e4:	7023      	strb	r3, [r4, #0]
 80001e6:	bd10      	pop	{r4, pc}
 80001e8:	200001e0 	.word	0x200001e0
 80001ec:	00000000 	.word	0x00000000
 80001f0:	0800788c 	.word	0x0800788c

080001f4 <frame_dummy>:
 80001f4:	b508      	push	{r3, lr}
 80001f6:	4b03      	ldr	r3, [pc, #12]	; (8000204 <frame_dummy+0x10>)
 80001f8:	b11b      	cbz	r3, 8000202 <frame_dummy+0xe>
 80001fa:	4903      	ldr	r1, [pc, #12]	; (8000208 <frame_dummy+0x14>)
 80001fc:	4803      	ldr	r0, [pc, #12]	; (800020c <frame_dummy+0x18>)
 80001fe:	f3af 8000 	nop.w
 8000202:	bd08      	pop	{r3, pc}
 8000204:	00000000 	.word	0x00000000
 8000208:	200001e4 	.word	0x200001e4
 800020c:	0800788c 	.word	0x0800788c

08000210 <strlen>:
 8000210:	4603      	mov	r3, r0
 8000212:	f813 2b01 	ldrb.w	r2, [r3], #1
 8000216:	2a00      	cmp	r2, #0
 8000218:	d1fb      	bne.n	8000212 <strlen+0x2>
 800021a:	1a18      	subs	r0, r3, r0
 800021c:	3801      	subs	r0, #1
 800021e:	4770      	bx	lr

08000220 <memchr>:
 8000220:	f001 01ff 	and.w	r1, r1, #255	; 0xff
 8000224:	2a10      	cmp	r2, #16
 8000226:	db2b      	blt.n	8000280 <memchr+0x60>
 8000228:	f010 0f07 	tst.w	r0, #7
 800022c:	d008      	beq.n	8000240 <memchr+0x20>
 800022e:	f810 3b01 	ldrb.w	r3, [r0], #1
 8000232:	3a01      	subs	r2, #1
 8000234:	428b      	cmp	r3, r1
 8000236:	d02d      	beq.n	8000294 <memchr+0x74>
 8000238:	f010 0f07 	tst.w	r0, #7
 800023c:	b342      	cbz	r2, 8000290 <memchr+0x70>
 800023e:	d1f6      	bne.n	800022e <memchr+0xe>
 8000240:	b4f0      	push	{r4, r5, r6, r7}
 8000242:	ea41 2101 	orr.w	r1, r1, r1, lsl #8
 8000246:	ea41 4101 	orr.w	r1, r1, r1, lsl #16
 800024a:	f022 0407 	bic.w	r4, r2, #7
 800024e:	f07f 0700 	mvns.w	r7, #0
 8000252:	2300      	movs	r3, #0
 8000254:	e8f0 5602 	ldrd	r5, r6, [r0], #8
 8000258:	3c08      	subs	r4, #8
 800025a:	ea85 0501 	eor.w	r5, r5, r1
 800025e:	ea86 0601 	eor.w	r6, r6, r1
 8000262:	fa85 f547 	uadd8	r5, r5, r7
 8000266:	faa3 f587 	sel	r5, r3, r7
 800026a:	fa86 f647 	uadd8	r6, r6, r7
 800026e:	faa5 f687 	sel	r6, r5, r7
 8000272:	b98e      	cbnz	r6, 8000298 <memchr+0x78>
 8000274:	d1ee      	bne.n	8000254 <memchr+0x34>
 8000276:	bcf0      	pop	{r4, r5, r6, r7}
 8000278:	f001 01ff 	and.w	r1, r1, #255	; 0xff
 800027c:	f002 0207 	and.w	r2, r2, #7
 8000280:	b132      	cbz	r2, 8000290 <memchr+0x70>
 8000282:	f810 3b01 	ldrb.w	r3, [r0], #1
 8000286:	3a01      	subs	r2, #1
 8000288:	ea83 0301 	eor.w	r3, r3, r1
 800028c:	b113      	cbz	r3, 8000294 <memchr+0x74>
 800028e:	d1f8      	bne.n	8000282 <memchr+0x62>
 8000290:	2000      	movs	r0, #0
 8000292:	4770      	bx	lr
 8000294:	3801      	subs	r0, #1
 8000296:	4770      	bx	lr
 8000298:	2d00      	cmp	r5, #0
 800029a:	bf06      	itte	eq
 800029c:	4635      	moveq	r5, r6
 800029e:	3803      	subeq	r0, #3
 80002a0:	3807      	subne	r0, #7
 80002a2:	f015 0f01 	tst.w	r5, #1
 80002a6:	d107      	bne.n	80002b8 <memchr+0x98>
 80002a8:	3001      	adds	r0, #1
 80002aa:	f415 7f80 	tst.w	r5, #256	; 0x100
 80002ae:	bf02      	ittt	eq
 80002b0:	3001      	addeq	r0, #1
 80002b2:	f415 3fc0 	tsteq.w	r5, #98304	; 0x18000
 80002b6:	3001      	addeq	r0, #1
 80002b8:	bcf0      	pop	{r4, r5, r6, r7}
 80002ba:	3801      	subs	r0, #1
 80002bc:	4770      	bx	lr
 80002be:	bf00      	nop

080002c0 <__aeabi_drsub>:
 80002c0:	f081 4100 	eor.w	r1, r1, #2147483648	; 0x80000000
 80002c4:	e002      	b.n	80002cc <__adddf3>
 80002c6:	bf00      	nop

080002c8 <__aeabi_dsub>:
 80002c8:	f083 4300 	eor.w	r3, r3, #2147483648	; 0x80000000

080002cc <__adddf3>:
 80002cc:	b530      	push	{r4, r5, lr}
 80002ce:	ea4f 0441 	mov.w	r4, r1, lsl #1
 80002d2:	ea4f 0543 	mov.w	r5, r3, lsl #1
 80002d6:	ea94 0f05 	teq	r4, r5
 80002da:	bf08      	it	eq
 80002dc:	ea90 0f02 	teqeq	r0, r2
 80002e0:	bf1f      	itttt	ne
 80002e2:	ea54 0c00 	orrsne.w	ip, r4, r0
 80002e6:	ea55 0c02 	orrsne.w	ip, r5, r2
 80002ea:	ea7f 5c64 	mvnsne.w	ip, r4, asr #21
 80002ee:	ea7f 5c65 	mvnsne.w	ip, r5, asr #21
 80002f2:	f000 80e2 	beq.w	80004ba <__adddf3+0x1ee>
 80002f6:	ea4f 5454 	mov.w	r4, r4, lsr #21
 80002fa:	ebd4 5555 	rsbs	r5, r4, r5, lsr #21
 80002fe:	bfb8      	it	lt
 8000300:	426d      	neglt	r5, r5
 8000302:	dd0c      	ble.n	800031e <__adddf3+0x52>
 8000304:	442c      	add	r4, r5
 8000306:	ea80 0202 	eor.w	r2, r0, r2
 800030a:	ea81 0303 	eor.w	r3, r1, r3
 800030e:	ea82 0000 	eor.w	r0, r2, r0
 8000312:	ea83 0101 	eor.w	r1, r3, r1
 8000316:	ea80 0202 	eor.w	r2, r0, r2
 800031a:	ea81 0303 	eor.w	r3, r1, r3
 800031e:	2d36      	cmp	r5, #54	; 0x36
 8000320:	bf88      	it	hi
 8000322:	bd30      	pophi	{r4, r5, pc}
 8000324:	f011 4f00 	tst.w	r1, #2147483648	; 0x80000000
 8000328:	ea4f 3101 	mov.w	r1, r1, lsl #12
 800032c:	f44f 1c80 	mov.w	ip, #1048576	; 0x100000
 8000330:	ea4c 3111 	orr.w	r1, ip, r1, lsr #12
 8000334:	d002      	beq.n	800033c <__adddf3+0x70>
 8000336:	4240      	negs	r0, r0
 8000338:	eb61 0141 	sbc.w	r1, r1, r1, lsl #1
 800033c:	f013 4f00 	tst.w	r3, #2147483648	; 0x80000000
 8000340:	ea4f 3303 	mov.w	r3, r3, lsl #12
 8000344:	ea4c 3313 	orr.w	r3, ip, r3, lsr #12
 8000348:	d002      	beq.n	8000350 <__adddf3+0x84>
 800034a:	4252      	negs	r2, r2
 800034c:	eb63 0343 	sbc.w	r3, r3, r3, lsl #1
 8000350:	ea94 0f05 	teq	r4, r5
 8000354:	f000 80a7 	beq.w	80004a6 <__adddf3+0x1da>
 8000358:	f1a4 0401 	sub.w	r4, r4, #1
 800035c:	f1d5 0e20 	rsbs	lr, r5, #32
 8000360:	db0d      	blt.n	800037e <__adddf3+0xb2>
 8000362:	fa02 fc0e 	lsl.w	ip, r2, lr
 8000366:	fa22 f205 	lsr.w	r2, r2, r5
 800036a:	1880      	adds	r0, r0, r2
 800036c:	f141 0100 	adc.w	r1, r1, #0
 8000370:	fa03 f20e 	lsl.w	r2, r3, lr
 8000374:	1880      	adds	r0, r0, r2
 8000376:	fa43 f305 	asr.w	r3, r3, r5
 800037a:	4159      	adcs	r1, r3
 800037c:	e00e      	b.n	800039c <__adddf3+0xd0>
 800037e:	f1a5 0520 	sub.w	r5, r5, #32
 8000382:	f10e 0e20 	add.w	lr, lr, #32
 8000386:	2a01      	cmp	r2, #1
 8000388:	fa03 fc0e 	lsl.w	ip, r3, lr
 800038c:	bf28      	it	cs
 800038e:	f04c 0c02 	orrcs.w	ip, ip, #2
 8000392:	fa43 f305 	asr.w	r3, r3, r5
 8000396:	18c0      	adds	r0, r0, r3
 8000398:	eb51 71e3 	adcs.w	r1, r1, r3, asr #31
 800039c:	f001 4500 	and.w	r5, r1, #2147483648	; 0x80000000
 80003a0:	d507      	bpl.n	80003b2 <__adddf3+0xe6>
 80003a2:	f04f 0e00 	mov.w	lr, #0
 80003a6:	f1dc 0c00 	rsbs	ip, ip, #0
 80003aa:	eb7e 0000 	sbcs.w	r0, lr, r0
 80003ae:	eb6e 0101 	sbc.w	r1, lr, r1
 80003b2:	f5b1 1f80 	cmp.w	r1, #1048576	; 0x100000
 80003b6:	d31b      	bcc.n	80003f0 <__adddf3+0x124>
 80003b8:	f5b1 1f00 	cmp.w	r1, #2097152	; 0x200000
 80003bc:	d30c      	bcc.n	80003d8 <__adddf3+0x10c>
 80003be:	0849      	lsrs	r1, r1, #1
 80003c0:	ea5f 0030 	movs.w	r0, r0, rrx
 80003c4:	ea4f 0c3c 	mov.w	ip, ip, rrx
 80003c8:	f104 0401 	add.w	r4, r4, #1
 80003cc:	ea4f 5244 	mov.w	r2, r4, lsl #21
 80003d0:	f512 0f80 	cmn.w	r2, #4194304	; 0x400000
 80003d4:	f080 809a 	bcs.w	800050c <__adddf3+0x240>
 80003d8:	f1bc 4f00 	cmp.w	ip, #2147483648	; 0x80000000
 80003dc:	bf08      	it	eq
 80003de:	ea5f 0c50 	movseq.w	ip, r0, lsr #1
 80003e2:	f150 0000 	adcs.w	r0, r0, #0
 80003e6:	eb41 5104 	adc.w	r1, r1, r4, lsl #20
 80003ea:	ea41 0105 	orr.w	r1, r1, r5
 80003ee:	bd30      	pop	{r4, r5, pc}
 80003f0:	ea5f 0c4c 	movs.w	ip, ip, lsl #1
 80003f4:	4140      	adcs	r0, r0
 80003f6:	eb41 0101 	adc.w	r1, r1, r1
 80003fa:	3c01      	subs	r4, #1
 80003fc:	bf28      	it	cs
 80003fe:	f5b1 1f80 	cmpcs.w	r1, #1048576	; 0x100000
 8000402:	d2e9      	bcs.n	80003d8 <__adddf3+0x10c>
 8000404:	f091 0f00 	teq	r1, #0
 8000408:	bf04      	itt	eq
 800040a:	4601      	moveq	r1, r0
 800040c:	2000      	moveq	r0, #0
 800040e:	fab1 f381 	clz	r3, r1
 8000412:	bf08      	it	eq
 8000414:	3320      	addeq	r3, #32
 8000416:	f1a3 030b 	sub.w	r3, r3, #11
 800041a:	f1b3 0220 	subs.w	r2, r3, #32
 800041e:	da0c      	bge.n	800043a <__adddf3+0x16e>
 8000420:	320c      	adds	r2, #12
 8000422:	dd08      	ble.n	8000436 <__adddf3+0x16a>
 8000424:	f102 0c14 	add.w	ip, r2, #20
 8000428:	f1c2 020c 	rsb	r2, r2, #12
 800042c:	fa01 f00c 	lsl.w	r0, r1, ip
 8000430:	fa21 f102 	lsr.w	r1, r1, r2
 8000434:	e00c      	b.n	8000450 <__adddf3+0x184>
 8000436:	f102 0214 	add.w	r2, r2, #20
 800043a:	bfd8      	it	le
 800043c:	f1c2 0c20 	rsble	ip, r2, #32
 8000440:	fa01 f102 	lsl.w	r1, r1, r2
 8000444:	fa20 fc0c 	lsr.w	ip, r0, ip
 8000448:	bfdc      	itt	le
 800044a:	ea41 010c 	orrle.w	r1, r1, ip
 800044e:	4090      	lslle	r0, r2
 8000450:	1ae4      	subs	r4, r4, r3
 8000452:	bfa2      	ittt	ge
 8000454:	eb01 5104 	addge.w	r1, r1, r4, lsl #20
 8000458:	4329      	orrge	r1, r5
 800045a:	bd30      	popge	{r4, r5, pc}
 800045c:	ea6f 0404 	mvn.w	r4, r4
 8000460:	3c1f      	subs	r4, #31
 8000462:	da1c      	bge.n	800049e <__adddf3+0x1d2>
 8000464:	340c      	adds	r4, #12
 8000466:	dc0e      	bgt.n	8000486 <__adddf3+0x1ba>
 8000468:	f104 0414 	add.w	r4, r4, #20
 800046c:	f1c4 0220 	rsb	r2, r4, #32
 8000470:	fa20 f004 	lsr.w	r0, r0, r4
 8000474:	fa01 f302 	lsl.w	r3, r1, r2
 8000478:	ea40 0003 	orr.w	r0, r0, r3
 800047c:	fa21 f304 	lsr.w	r3, r1, r4
 8000480:	ea45 0103 	orr.w	r1, r5, r3
 8000484:	bd30      	pop	{r4, r5, pc}
 8000486:	f1c4 040c 	rsb	r4, r4, #12
 800048a:	f1c4 0220 	rsb	r2, r4, #32
 800048e:	fa20 f002 	lsr.w	r0, r0, r2
 8000492:	fa01 f304 	lsl.w	r3, r1, r4
 8000496:	ea40 0003 	orr.w	r0, r0, r3
 800049a:	4629      	mov	r1, r5
 800049c:	bd30      	pop	{r4, r5, pc}
 800049e:	fa21 f004 	lsr.w	r0, r1, r4
 80004a2:	4629      	mov	r1, r5
 80004a4:	bd30      	pop	{r4, r5, pc}
 80004a6:	f094 0f00 	teq	r4, #0
 80004aa:	f483 1380 	eor.w	r3, r3, #1048576	; 0x100000
 80004ae:	bf06      	itte	eq
 80004b0:	f481 1180 	eoreq.w	r1, r1, #1048576	; 0x100000
 80004b4:	3401      	addeq	r4, #1
 80004b6:	3d01      	subne	r5, #1
 80004b8:	e74e      	b.n	8000358 <__adddf3+0x8c>
 80004ba:	ea7f 5c64 	mvns.w	ip, r4, asr #21
 80004be:	bf18      	it	ne
 80004c0:	ea7f 5c65 	mvnsne.w	ip, r5, asr #21
 80004c4:	d029      	beq.n	800051a <__adddf3+0x24e>
 80004c6:	ea94 0f05 	teq	r4, r5
 80004ca:	bf08      	it	eq
 80004cc:	ea90 0f02 	teqeq	r0, r2
 80004d0:	d005      	beq.n	80004de <__adddf3+0x212>
 80004d2:	ea54 0c00 	orrs.w	ip, r4, r0
 80004d6:	bf04      	itt	eq
 80004d8:	4619      	moveq	r1, r3
 80004da:	4610      	moveq	r0, r2
 80004dc:	bd30      	pop	{r4, r5, pc}
 80004de:	ea91 0f03 	teq	r1, r3
 80004e2:	bf1e      	ittt	ne
 80004e4:	2100      	movne	r1, #0
 80004e6:	2000      	movne	r0, #0
 80004e8:	bd30      	popne	{r4, r5, pc}
 80004ea:	ea5f 5c54 	movs.w	ip, r4, lsr #21
 80004ee:	d105      	bne.n	80004fc <__adddf3+0x230>
 80004f0:	0040      	lsls	r0, r0, #1
 80004f2:	4149      	adcs	r1, r1
 80004f4:	bf28      	it	cs
 80004f6:	f041 4100 	orrcs.w	r1, r1, #2147483648	; 0x80000000
 80004fa:	bd30      	pop	{r4, r5, pc}
 80004fc:	f514 0480 	adds.w	r4, r4, #4194304	; 0x400000
 8000500:	bf3c      	itt	cc
 8000502:	f501 1180 	addcc.w	r1, r1, #1048576	; 0x100000
 8000506:	bd30      	popcc	{r4, r5, pc}
 8000508:	f001 4500 	and.w	r5, r1, #2147483648	; 0x80000000
 800050c:	f045 41fe 	orr.w	r1, r5, #2130706432	; 0x7f000000
 8000510:	f441 0170 	orr.w	r1, r1, #15728640	; 0xf00000
 8000514:	f04f 0000 	mov.w	r0, #0
 8000518:	bd30      	pop	{r4, r5, pc}
 800051a:	ea7f 5c64 	mvns.w	ip, r4, asr #21
 800051e:	bf1a      	itte	ne
 8000520:	4619      	movne	r1, r3
 8000522:	4610      	movne	r0, r2
 8000524:	ea7f 5c65 	mvnseq.w	ip, r5, asr #21
 8000528:	bf1c      	itt	ne
 800052a:	460b      	movne	r3, r1
 800052c:	4602      	movne	r2, r0
 800052e:	ea50 3401 	orrs.w	r4, r0, r1, lsl #12
 8000532:	bf06      	itte	eq
 8000534:	ea52 3503 	orrseq.w	r5, r2, r3, lsl #12
 8000538:	ea91 0f03 	teqeq	r1, r3
 800053c:	f441 2100 	orrne.w	r1, r1, #524288	; 0x80000
 8000540:	bd30      	pop	{r4, r5, pc}
 8000542:	bf00      	nop

08000544 <__aeabi_ui2d>:
 8000544:	f090 0f00 	teq	r0, #0
 8000548:	bf04      	itt	eq
 800054a:	2100      	moveq	r1, #0
 800054c:	4770      	bxeq	lr
 800054e:	b530      	push	{r4, r5, lr}
 8000550:	f44f 6480 	mov.w	r4, #1024	; 0x400
 8000554:	f104 0432 	add.w	r4, r4, #50	; 0x32
 8000558:	f04f 0500 	mov.w	r5, #0
 800055c:	f04f 0100 	mov.w	r1, #0
 8000560:	e750      	b.n	8000404 <__adddf3+0x138>
 8000562:	bf00      	nop

08000564 <__aeabi_i2d>:
 8000564:	f090 0f00 	teq	r0, #0
 8000568:	bf04      	itt	eq
 800056a:	2100      	moveq	r1, #0
 800056c:	4770      	bxeq	lr
 800056e:	b530      	push	{r4, r5, lr}
 8000570:	f44f 6480 	mov.w	r4, #1024	; 0x400
 8000574:	f104 0432 	add.w	r4, r4, #50	; 0x32
 8000578:	f010 4500 	ands.w	r5, r0, #2147483648	; 0x80000000
 800057c:	bf48      	it	mi
 800057e:	4240      	negmi	r0, r0
 8000580:	f04f 0100 	mov.w	r1, #0
 8000584:	e73e      	b.n	8000404 <__adddf3+0x138>
 8000586:	bf00      	nop

08000588 <__aeabi_f2d>:
 8000588:	0042      	lsls	r2, r0, #1
 800058a:	ea4f 01e2 	mov.w	r1, r2, asr #3
 800058e:	ea4f 0131 	mov.w	r1, r1, rrx
 8000592:	ea4f 7002 	mov.w	r0, r2, lsl #28
 8000596:	bf1f      	itttt	ne
 8000598:	f012 437f 	andsne.w	r3, r2, #4278190080	; 0xff000000
 800059c:	f093 4f7f 	teqne	r3, #4278190080	; 0xff000000
 80005a0:	f081 5160 	eorne.w	r1, r1, #939524096	; 0x38000000
 80005a4:	4770      	bxne	lr
 80005a6:	f032 427f 	bics.w	r2, r2, #4278190080	; 0xff000000
 80005aa:	bf08      	it	eq
 80005ac:	4770      	bxeq	lr
 80005ae:	f093 4f7f 	teq	r3, #4278190080	; 0xff000000
 80005b2:	bf04      	itt	eq
 80005b4:	f441 2100 	orreq.w	r1, r1, #524288	; 0x80000
 80005b8:	4770      	bxeq	lr
 80005ba:	b530      	push	{r4, r5, lr}
 80005bc:	f44f 7460 	mov.w	r4, #896	; 0x380
 80005c0:	f001 4500 	and.w	r5, r1, #2147483648	; 0x80000000
 80005c4:	f021 4100 	bic.w	r1, r1, #2147483648	; 0x80000000
 80005c8:	e71c      	b.n	8000404 <__adddf3+0x138>
 80005ca:	bf00      	nop

080005cc <__aeabi_ul2d>:
 80005cc:	ea50 0201 	orrs.w	r2, r0, r1
 80005d0:	bf08      	it	eq
 80005d2:	4770      	bxeq	lr
 80005d4:	b530      	push	{r4, r5, lr}
 80005d6:	f04f 0500 	mov.w	r5, #0
 80005da:	e00a      	b.n	80005f2 <__aeabi_l2d+0x16>

080005dc <__aeabi_l2d>:
 80005dc:	ea50 0201 	orrs.w	r2, r0, r1
 80005e0:	bf08      	it	eq
 80005e2:	4770      	bxeq	lr
 80005e4:	b530      	push	{r4, r5, lr}
 80005e6:	f011 4500 	ands.w	r5, r1, #2147483648	; 0x80000000
 80005ea:	d502      	bpl.n	80005f2 <__aeabi_l2d+0x16>
 80005ec:	4240      	negs	r0, r0
 80005ee:	eb61 0141 	sbc.w	r1, r1, r1, lsl #1
 80005f2:	f44f 6480 	mov.w	r4, #1024	; 0x400
 80005f6:	f104 0432 	add.w	r4, r4, #50	; 0x32
 80005fa:	ea5f 5c91 	movs.w	ip, r1, lsr #22
 80005fe:	f43f aed8 	beq.w	80003b2 <__adddf3+0xe6>
 8000602:	f04f 0203 	mov.w	r2, #3
 8000606:	ea5f 0cdc 	movs.w	ip, ip, lsr #3
 800060a:	bf18      	it	ne
 800060c:	3203      	addne	r2, #3
 800060e:	ea5f 0cdc 	movs.w	ip, ip, lsr #3
 8000612:	bf18      	it	ne
 8000614:	3203      	addne	r2, #3
 8000616:	eb02 02dc 	add.w	r2, r2, ip, lsr #3
 800061a:	f1c2 0320 	rsb	r3, r2, #32
 800061e:	fa00 fc03 	lsl.w	ip, r0, r3
 8000622:	fa20 f002 	lsr.w	r0, r0, r2
 8000626:	fa01 fe03 	lsl.w	lr, r1, r3
 800062a:	ea40 000e 	orr.w	r0, r0, lr
 800062e:	fa21 f102 	lsr.w	r1, r1, r2
 8000632:	4414      	add	r4, r2
 8000634:	e6bd      	b.n	80003b2 <__adddf3+0xe6>
 8000636:	bf00      	nop

08000638 <__aeabi_dmul>:
 8000638:	b570      	push	{r4, r5, r6, lr}
 800063a:	f04f 0cff 	mov.w	ip, #255	; 0xff
 800063e:	f44c 6ce0 	orr.w	ip, ip, #1792	; 0x700
 8000642:	ea1c 5411 	ands.w	r4, ip, r1, lsr #20
 8000646:	bf1d      	ittte	ne
 8000648:	ea1c 5513 	andsne.w	r5, ip, r3, lsr #20
 800064c:	ea94 0f0c 	teqne	r4, ip
 8000650:	ea95 0f0c 	teqne	r5, ip
 8000654:	f000 f8de 	bleq	8000814 <__aeabi_dmul+0x1dc>
 8000658:	442c      	add	r4, r5
 800065a:	ea81 0603 	eor.w	r6, r1, r3
 800065e:	ea21 514c 	bic.w	r1, r1, ip, lsl #21
 8000662:	ea23 534c 	bic.w	r3, r3, ip, lsl #21
 8000666:	ea50 3501 	orrs.w	r5, r0, r1, lsl #12
 800066a:	bf18      	it	ne
 800066c:	ea52 3503 	orrsne.w	r5, r2, r3, lsl #12
 8000670:	f441 1180 	orr.w	r1, r1, #1048576	; 0x100000
 8000674:	f443 1380 	orr.w	r3, r3, #1048576	; 0x100000
 8000678:	d038      	beq.n	80006ec <__aeabi_dmul+0xb4>
 800067a:	fba0 ce02 	umull	ip, lr, r0, r2
 800067e:	f04f 0500 	mov.w	r5, #0
 8000682:	fbe1 e502 	umlal	lr, r5, r1, r2
 8000686:	f006 4200 	and.w	r2, r6, #2147483648	; 0x80000000
 800068a:	fbe0 e503 	umlal	lr, r5, r0, r3
 800068e:	f04f 0600 	mov.w	r6, #0
 8000692:	fbe1 5603 	umlal	r5, r6, r1, r3
 8000696:	f09c 0f00 	teq	ip, #0
 800069a:	bf18      	it	ne
 800069c:	f04e 0e01 	orrne.w	lr, lr, #1
 80006a0:	f1a4 04ff 	sub.w	r4, r4, #255	; 0xff
 80006a4:	f5b6 7f00 	cmp.w	r6, #512	; 0x200
 80006a8:	f564 7440 	sbc.w	r4, r4, #768	; 0x300
 80006ac:	d204      	bcs.n	80006b8 <__aeabi_dmul+0x80>
 80006ae:	ea5f 0e4e 	movs.w	lr, lr, lsl #1
 80006b2:	416d      	adcs	r5, r5
 80006b4:	eb46 0606 	adc.w	r6, r6, r6
 80006b8:	ea42 21c6 	orr.w	r1, r2, r6, lsl #11
 80006bc:	ea41 5155 	orr.w	r1, r1, r5, lsr #21
 80006c0:	ea4f 20c5 	mov.w	r0, r5, lsl #11
 80006c4:	ea40 505e 	orr.w	r0, r0, lr, lsr #21
 80006c8:	ea4f 2ece 	mov.w	lr, lr, lsl #11
 80006cc:	f1b4 0cfd 	subs.w	ip, r4, #253	; 0xfd
 80006d0:	bf88      	it	hi
 80006d2:	f5bc 6fe0 	cmphi.w	ip, #1792	; 0x700
 80006d6:	d81e      	bhi.n	8000716 <__aeabi_dmul+0xde>
 80006d8:	f1be 4f00 	cmp.w	lr, #2147483648	; 0x80000000
 80006dc:	bf08      	it	eq
 80006de:	ea5f 0e50 	movseq.w	lr, r0, lsr #1
 80006e2:	f150 0000 	adcs.w	r0, r0, #0
 80006e6:	eb41 5104 	adc.w	r1, r1, r4, lsl #20
 80006ea:	bd70      	pop	{r4, r5, r6, pc}
 80006ec:	f006 4600 	and.w	r6, r6, #2147483648	; 0x80000000
 80006f0:	ea46 0101 	orr.w	r1, r6, r1
 80006f4:	ea40 0002 	orr.w	r0, r0, r2
 80006f8:	ea81 0103 	eor.w	r1, r1, r3
 80006fc:	ebb4 045c 	subs.w	r4, r4, ip, lsr #1
 8000700:	bfc2      	ittt	gt
 8000702:	ebd4 050c 	rsbsgt	r5, r4, ip
 8000706:	ea41 5104 	orrgt.w	r1, r1, r4, lsl #20
 800070a:	bd70      	popgt	{r4, r5, r6, pc}
 800070c:	f441 1180 	orr.w	r1, r1, #1048576	; 0x100000
 8000710:	f04f 0e00 	mov.w	lr, #0
 8000714:	3c01      	subs	r4, #1
 8000716:	f300 80ab 	bgt.w	8000870 <__aeabi_dmul+0x238>
 800071a:	f114 0f36 	cmn.w	r4, #54	; 0x36
 800071e:	bfde      	ittt	le
 8000720:	2000      	movle	r0, #0
 8000722:	f001 4100 	andle.w	r1, r1, #2147483648	; 0x80000000
 8000726:	bd70      	pople	{r4, r5, r6, pc}
 8000728:	f1c4 0400 	rsb	r4, r4, #0
 800072c:	3c20      	subs	r4, #32
 800072e:	da35      	bge.n	800079c <__aeabi_dmul+0x164>
 8000730:	340c      	adds	r4, #12
 8000732:	dc1b      	bgt.n	800076c <__aeabi_dmul+0x134>
 8000734:	f104 0414 	add.w	r4, r4, #20
 8000738:	f1c4 0520 	rsb	r5, r4, #32
 800073c:	fa00 f305 	lsl.w	r3, r0, r5
 8000740:	fa20 f004 	lsr.w	r0, r0, r4
 8000744:	fa01 f205 	lsl.w	r2, r1, r5
 8000748:	ea40 0002 	orr.w	r0, r0, r2
 800074c:	f001 4200 	and.w	r2, r1, #2147483648	; 0x80000000
 8000750:	f021 4100 	bic.w	r1, r1, #2147483648	; 0x80000000
 8000754:	eb10 70d3 	adds.w	r0, r0, r3, lsr #31
 8000758:	fa21 f604 	lsr.w	r6, r1, r4
 800075c:	eb42 0106 	adc.w	r1, r2, r6
 8000760:	ea5e 0e43 	orrs.w	lr, lr, r3, lsl #1
 8000764:	bf08      	it	eq
 8000766:	ea20 70d3 	biceq.w	r0, r0, r3, lsr #31
 800076a:	bd70      	pop	{r4, r5, r6, pc}
 800076c:	f1c4 040c 	rsb	r4, r4, #12
 8000770:	f1c4 0520 	rsb	r5, r4, #32
 8000774:	fa00 f304 	lsl.w	r3, r0, r4
 8000778:	fa20 f005 	lsr.w	r0, r0, r5
 800077c:	fa01 f204 	lsl.w	r2, r1, r4
 8000780:	ea40 0002 	orr.w	r0, r0, r2
 8000784:	f001 4100 	and.w	r1, r1, #2147483648	; 0x80000000
 8000788:	eb10 70d3 	adds.w	r0, r0, r3, lsr #31
 800078c:	f141 0100 	adc.w	r1, r1, #0
 8000790:	ea5e 0e43 	orrs.w	lr, lr, r3, lsl #1
 8000794:	bf08      	it	eq
 8000796:	ea20 70d3 	biceq.w	r0, r0, r3, lsr #31
 800079a:	bd70      	pop	{r4, r5, r6, pc}
 800079c:	f1c4 0520 	rsb	r5, r4, #32
 80007a0:	fa00 f205 	lsl.w	r2, r0, r5
 80007a4:	ea4e 0e02 	orr.w	lr, lr, r2
 80007a8:	fa20 f304 	lsr.w	r3, r0, r4
 80007ac:	fa01 f205 	lsl.w	r2, r1, r5
 80007b0:	ea43 0302 	orr.w	r3, r3, r2
 80007b4:	fa21 f004 	lsr.w	r0, r1, r4
 80007b8:	f001 4100 	and.w	r1, r1, #2147483648	; 0x80000000
 80007bc:	fa21 f204 	lsr.w	r2, r1, r4
 80007c0:	ea20 0002 	bic.w	r0, r0, r2
 80007c4:	eb00 70d3 	add.w	r0, r0, r3, lsr #31
 80007c8:	ea5e 0e43 	orrs.w	lr, lr, r3, lsl #1
 80007cc:	bf08      	it	eq
 80007ce:	ea20 70d3 	biceq.w	r0, r0, r3, lsr #31
 80007d2:	bd70      	pop	{r4, r5, r6, pc}
 80007d4:	f094 0f00 	teq	r4, #0
 80007d8:	d10f      	bne.n	80007fa <__aeabi_dmul+0x1c2>
 80007da:	f001 4600 	and.w	r6, r1, #2147483648	; 0x80000000
 80007de:	0040      	lsls	r0, r0, #1
 80007e0:	eb41 0101 	adc.w	r1, r1, r1
 80007e4:	f411 1f80 	tst.w	r1, #1048576	; 0x100000
 80007e8:	bf08      	it	eq
 80007ea:	3c01      	subeq	r4, #1
 80007ec:	d0f7      	beq.n	80007de <__aeabi_dmul+0x1a6>
 80007ee:	ea41 0106 	orr.w	r1, r1, r6
 80007f2:	f095 0f00 	teq	r5, #0
 80007f6:	bf18      	it	ne
 80007f8:	4770      	bxne	lr
 80007fa:	f003 4600 	and.w	r6, r3, #2147483648	; 0x80000000
 80007fe:	0052      	lsls	r2, r2, #1
 8000800:	eb43 0303 	adc.w	r3, r3, r3
 8000804:	f413 1f80 	tst.w	r3, #1048576	; 0x100000
 8000808:	bf08      	it	eq
 800080a:	3d01      	subeq	r5, #1
 800080c:	d0f7      	beq.n	80007fe <__aeabi_dmul+0x1c6>
 800080e:	ea43 0306 	orr.w	r3, r3, r6
 8000812:	4770      	bx	lr
 8000814:	ea94 0f0c 	teq	r4, ip
 8000818:	ea0c 5513 	and.w	r5, ip, r3, lsr #20
 800081c:	bf18      	it	ne
 800081e:	ea95 0f0c 	teqne	r5, ip
 8000822:	d00c      	beq.n	800083e <__aeabi_dmul+0x206>
 8000824:	ea50 0641 	orrs.w	r6, r0, r1, lsl #1
 8000828:	bf18      	it	ne
 800082a:	ea52 0643 	orrsne.w	r6, r2, r3, lsl #1
 800082e:	d1d1      	bne.n	80007d4 <__aeabi_dmul+0x19c>
 8000830:	ea81 0103 	eor.w	r1, r1, r3
 8000834:	f001 4100 	and.w	r1, r1, #2147483648	; 0x80000000
 8000838:	f04f 0000 	mov.w	r0, #0
 800083c:	bd70      	pop	{r4, r5, r6, pc}
 800083e:	ea50 0641 	orrs.w	r6, r0, r1, lsl #1
 8000842:	bf06      	itte	eq
 8000844:	4610      	moveq	r0, r2
 8000846:	4619      	moveq	r1, r3
 8000848:	ea52 0643 	orrsne.w	r6, r2, r3, lsl #1
 800084c:	d019      	beq.n	8000882 <__aeabi_dmul+0x24a>
 800084e:	ea94 0f0c 	teq	r4, ip
 8000852:	d102      	bne.n	800085a <__aeabi_dmul+0x222>
 8000854:	ea50 3601 	orrs.w	r6, r0, r1, lsl #12
 8000858:	d113      	bne.n	8000882 <__aeabi_dmul+0x24a>
 800085a:	ea95 0f0c 	teq	r5, ip
 800085e:	d105      	bne.n	800086c <__aeabi_dmul+0x234>
 8000860:	ea52 3603 	orrs.w	r6, r2, r3, lsl #12
 8000864:	bf1c      	itt	ne
 8000866:	4610      	movne	r0, r2
 8000868:	4619      	movne	r1, r3
 800086a:	d10a      	bne.n	8000882 <__aeabi_dmul+0x24a>
 800086c:	ea81 0103 	eor.w	r1, r1, r3
 8000870:	f001 4100 	and.w	r1, r1, #2147483648	; 0x80000000
 8000874:	f041 41fe 	orr.w	r1, r1, #2130706432	; 0x7f000000
 8000878:	f441 0170 	orr.w	r1, r1, #15728640	; 0xf00000
 800087c:	f04f 0000 	mov.w	r0, #0
 8000880:	bd70      	pop	{r4, r5, r6, pc}
 8000882:	f041 41fe 	orr.w	r1, r1, #2130706432	; 0x7f000000
 8000886:	f441 0178 	orr.w	r1, r1, #16252928	; 0xf80000
 800088a:	bd70      	pop	{r4, r5, r6, pc}

0800088c <__aeabi_ddiv>:
 800088c:	b570      	push	{r4, r5, r6, lr}
 800088e:	f04f 0cff 	mov.w	ip, #255	; 0xff
 8000892:	f44c 6ce0 	orr.w	ip, ip, #1792	; 0x700
 8000896:	ea1c 5411 	ands.w	r4, ip, r1, lsr #20
 800089a:	bf1d      	ittte	ne
 800089c:	ea1c 5513 	andsne.w	r5, ip, r3, lsr #20
 80008a0:	ea94 0f0c 	teqne	r4, ip
 80008a4:	ea95 0f0c 	teqne	r5, ip
 80008a8:	f000 f8a7 	bleq	80009fa <__aeabi_ddiv+0x16e>
 80008ac:	eba4 0405 	sub.w	r4, r4, r5
 80008b0:	ea81 0e03 	eor.w	lr, r1, r3
 80008b4:	ea52 3503 	orrs.w	r5, r2, r3, lsl #12
 80008b8:	ea4f 3101 	mov.w	r1, r1, lsl #12
 80008bc:	f000 8088 	beq.w	80009d0 <__aeabi_ddiv+0x144>
 80008c0:	ea4f 3303 	mov.w	r3, r3, lsl #12
 80008c4:	f04f 5580 	mov.w	r5, #268435456	; 0x10000000
 80008c8:	ea45 1313 	orr.w	r3, r5, r3, lsr #4
 80008cc:	ea43 6312 	orr.w	r3, r3, r2, lsr #24
 80008d0:	ea4f 2202 	mov.w	r2, r2, lsl #8
 80008d4:	ea45 1511 	orr.w	r5, r5, r1, lsr #4
 80008d8:	ea45 6510 	orr.w	r5, r5, r0, lsr #24
 80008dc:	ea4f 2600 	mov.w	r6, r0, lsl #8
 80008e0:	f00e 4100 	and.w	r1, lr, #2147483648	; 0x80000000
 80008e4:	429d      	cmp	r5, r3
 80008e6:	bf08      	it	eq
 80008e8:	4296      	cmpeq	r6, r2
 80008ea:	f144 04fd 	adc.w	r4, r4, #253	; 0xfd
 80008ee:	f504 7440 	add.w	r4, r4, #768	; 0x300
 80008f2:	d202      	bcs.n	80008fa <__aeabi_ddiv+0x6e>
 80008f4:	085b      	lsrs	r3, r3, #1
 80008f6:	ea4f 0232 	mov.w	r2, r2, rrx
 80008fa:	1ab6      	subs	r6, r6, r2
 80008fc:	eb65 0503 	sbc.w	r5, r5, r3
 8000900:	085b      	lsrs	r3, r3, #1
 8000902:	ea4f 0232 	mov.w	r2, r2, rrx
 8000906:	f44f 1080 	mov.w	r0, #1048576	; 0x100000
 800090a:	f44f 2c00 	mov.w	ip, #524288	; 0x80000
 800090e:	ebb6 0e02 	subs.w	lr, r6, r2
 8000912:	eb75 0e03 	sbcs.w	lr, r5, r3
 8000916:	bf22      	ittt	cs
 8000918:	1ab6      	subcs	r6, r6, r2
 800091a:	4675      	movcs	r5, lr
 800091c:	ea40 000c 	orrcs.w	r0, r0, ip
 8000920:	085b      	lsrs	r3, r3, #1
 8000922:	ea4f 0232 	mov.w	r2, r2, rrx
 8000926:	ebb6 0e02 	subs.w	lr, r6, r2
 800092a:	eb75 0e03 	sbcs.w	lr, r5, r3
 800092e:	bf22      	ittt	cs
 8000930:	1ab6      	subcs	r6, r6, r2
 8000932:	4675      	movcs	r5, lr
 8000934:	ea40 005c 	orrcs.w	r0, r0, ip, lsr #1
 8000938:	085b      	lsrs	r3, r3, #1
 800093a:	ea4f 0232 	mov.w	r2, r2, rrx
 800093e:	ebb6 0e02 	subs.w	lr, r6, r2
 8000942:	eb75 0e03 	sbcs.w	lr, r5, r3
 8000946:	bf22      	ittt	cs
 8000948:	1ab6      	subcs	r6, r6, r2
 800094a:	4675      	movcs	r5, lr
 800094c:	ea40 009c 	orrcs.w	r0, r0, ip, lsr #2
 8000950:	085b      	lsrs	r3, r3, #1
 8000952:	ea4f 0232 	mov.w	r2, r2, rrx
 8000956:	ebb6 0e02 	subs.w	lr, r6, r2
 800095a:	eb75 0e03 	sbcs.w	lr, r5, r3
 800095e:	bf22      	ittt	cs
 8000960:	1ab6      	subcs	r6, r6, r2
 8000962:	4675      	movcs	r5, lr
 8000964:	ea40 00dc 	orrcs.w	r0, r0, ip, lsr #3
 8000968:	ea55 0e06 	orrs.w	lr, r5, r6
 800096c:	d018      	beq.n	80009a0 <__aeabi_ddiv+0x114>
 800096e:	ea4f 1505 	mov.w	r5, r5, lsl #4
 8000972:	ea45 7516 	orr.w	r5, r5, r6, lsr #28
 8000976:	ea4f 1606 	mov.w	r6, r6, lsl #4
 800097a:	ea4f 03c3 	mov.w	r3, r3, lsl #3
 800097e:	ea43 7352 	orr.w	r3, r3, r2, lsr #29
 8000982:	ea4f 02c2 	mov.w	r2, r2, lsl #3
 8000986:	ea5f 1c1c 	movs.w	ip, ip, lsr #4
 800098a:	d1c0      	bne.n	800090e <__aeabi_ddiv+0x82>
 800098c:	f411 1f80 	tst.w	r1, #1048576	; 0x100000
 8000990:	d10b      	bne.n	80009aa <__aeabi_ddiv+0x11e>
 8000992:	ea41 0100 	orr.w	r1, r1, r0
 8000996:	f04f 0000 	mov.w	r0, #0
 800099a:	f04f 4c00 	mov.w	ip, #2147483648	; 0x80000000
 800099e:	e7b6      	b.n	800090e <__aeabi_ddiv+0x82>
 80009a0:	f411 1f80 	tst.w	r1, #1048576	; 0x100000
 80009a4:	bf04      	itt	eq
 80009a6:	4301      	orreq	r1, r0
 80009a8:	2000      	moveq	r0, #0
 80009aa:	f1b4 0cfd 	subs.w	ip, r4, #253	; 0xfd
 80009ae:	bf88      	it	hi
 80009b0:	f5bc 6fe0 	cmphi.w	ip, #1792	; 0x700
 80009b4:	f63f aeaf 	bhi.w	8000716 <__aeabi_dmul+0xde>
 80009b8:	ebb5 0c03 	subs.w	ip, r5, r3
 80009bc:	bf04      	itt	eq
 80009be:	ebb6 0c02 	subseq.w	ip, r6, r2
 80009c2:	ea5f 0c50 	movseq.w	ip, r0, lsr #1
 80009c6:	f150 0000 	adcs.w	r0, r0, #0
 80009ca:	eb41 5104 	adc.w	r1, r1, r4, lsl #20
 80009ce:	bd70      	pop	{r4, r5, r6, pc}
 80009d0:	f00e 4e00 	and.w	lr, lr, #2147483648	; 0x80000000
 80009d4:	ea4e 3111 	orr.w	r1, lr, r1, lsr #12
 80009d8:	eb14 045c 	adds.w	r4, r4, ip, lsr #1
 80009dc:	bfc2      	ittt	gt
 80009de:	ebd4 050c 	rsbsgt	r5, r4, ip
 80009e2:	ea41 5104 	orrgt.w	r1, r1, r4, lsl #20
 80009e6:	bd70      	popgt	{r4, r5, r6, pc}
 80009e8:	f441 1180 	orr.w	r1, r1, #1048576	; 0x100000
 80009ec:	f04f 0e00 	mov.w	lr, #0
 80009f0:	3c01      	subs	r4, #1
 80009f2:	e690      	b.n	8000716 <__aeabi_dmul+0xde>
 80009f4:	ea45 0e06 	orr.w	lr, r5, r6
 80009f8:	e68d      	b.n	8000716 <__aeabi_dmul+0xde>
 80009fa:	ea0c 5513 	and.w	r5, ip, r3, lsr #20
 80009fe:	ea94 0f0c 	teq	r4, ip
 8000a02:	bf08      	it	eq
 8000a04:	ea95 0f0c 	teqeq	r5, ip
 8000a08:	f43f af3b 	beq.w	8000882 <__aeabi_dmul+0x24a>
 8000a0c:	ea94 0f0c 	teq	r4, ip
 8000a10:	d10a      	bne.n	8000a28 <__aeabi_ddiv+0x19c>
 8000a12:	ea50 3401 	orrs.w	r4, r0, r1, lsl #12
 8000a16:	f47f af34 	bne.w	8000882 <__aeabi_dmul+0x24a>
 8000a1a:	ea95 0f0c 	teq	r5, ip
 8000a1e:	f47f af25 	bne.w	800086c <__aeabi_dmul+0x234>
 8000a22:	4610      	mov	r0, r2
 8000a24:	4619      	mov	r1, r3
 8000a26:	e72c      	b.n	8000882 <__aeabi_dmul+0x24a>
 8000a28:	ea95 0f0c 	teq	r5, ip
 8000a2c:	d106      	bne.n	8000a3c <__aeabi_ddiv+0x1b0>
 8000a2e:	ea52 3503 	orrs.w	r5, r2, r3, lsl #12
 8000a32:	f43f aefd 	beq.w	8000830 <__aeabi_dmul+0x1f8>
 8000a36:	4610      	mov	r0, r2
 8000a38:	4619      	mov	r1, r3
 8000a3a:	e722      	b.n	8000882 <__aeabi_dmul+0x24a>
 8000a3c:	ea50 0641 	orrs.w	r6, r0, r1, lsl #1
 8000a40:	bf18      	it	ne
 8000a42:	ea52 0643 	orrsne.w	r6, r2, r3, lsl #1
 8000a46:	f47f aec5 	bne.w	80007d4 <__aeabi_dmul+0x19c>
 8000a4a:	ea50 0441 	orrs.w	r4, r0, r1, lsl #1
 8000a4e:	f47f af0d 	bne.w	800086c <__aeabi_dmul+0x234>
 8000a52:	ea52 0543 	orrs.w	r5, r2, r3, lsl #1
 8000a56:	f47f aeeb 	bne.w	8000830 <__aeabi_dmul+0x1f8>
 8000a5a:	e712      	b.n	8000882 <__aeabi_dmul+0x24a>

08000a5c <__gedf2>:
 8000a5c:	f04f 3cff 	mov.w	ip, #4294967295
 8000a60:	e006      	b.n	8000a70 <__cmpdf2+0x4>
 8000a62:	bf00      	nop

08000a64 <__ledf2>:
 8000a64:	f04f 0c01 	mov.w	ip, #1
 8000a68:	e002      	b.n	8000a70 <__cmpdf2+0x4>
 8000a6a:	bf00      	nop

08000a6c <__cmpdf2>:
 8000a6c:	f04f 0c01 	mov.w	ip, #1
 8000a70:	f84d cd04 	str.w	ip, [sp, #-4]!
 8000a74:	ea4f 0c41 	mov.w	ip, r1, lsl #1
 8000a78:	ea7f 5c6c 	mvns.w	ip, ip, asr #21
 8000a7c:	ea4f 0c43 	mov.w	ip, r3, lsl #1
 8000a80:	bf18      	it	ne
 8000a82:	ea7f 5c6c 	mvnsne.w	ip, ip, asr #21
 8000a86:	d01b      	beq.n	8000ac0 <__cmpdf2+0x54>
 8000a88:	b001      	add	sp, #4
 8000a8a:	ea50 0c41 	orrs.w	ip, r0, r1, lsl #1
 8000a8e:	bf0c      	ite	eq
 8000a90:	ea52 0c43 	orrseq.w	ip, r2, r3, lsl #1
 8000a94:	ea91 0f03 	teqne	r1, r3
 8000a98:	bf02      	ittt	eq
 8000a9a:	ea90 0f02 	teqeq	r0, r2
 8000a9e:	2000      	moveq	r0, #0
 8000aa0:	4770      	bxeq	lr
 8000aa2:	f110 0f00 	cmn.w	r0, #0
 8000aa6:	ea91 0f03 	teq	r1, r3
 8000aaa:	bf58      	it	pl
 8000aac:	4299      	cmppl	r1, r3
 8000aae:	bf08      	it	eq
 8000ab0:	4290      	cmpeq	r0, r2
 8000ab2:	bf2c      	ite	cs
 8000ab4:	17d8      	asrcs	r0, r3, #31
 8000ab6:	ea6f 70e3 	mvncc.w	r0, r3, asr #31
 8000aba:	f040 0001 	orr.w	r0, r0, #1
 8000abe:	4770      	bx	lr
 8000ac0:	ea4f 0c41 	mov.w	ip, r1, lsl #1
 8000ac4:	ea7f 5c6c 	mvns.w	ip, ip, asr #21
 8000ac8:	d102      	bne.n	8000ad0 <__cmpdf2+0x64>
 8000aca:	ea50 3c01 	orrs.w	ip, r0, r1, lsl #12
 8000ace:	d107      	bne.n	8000ae0 <__cmpdf2+0x74>
 8000ad0:	ea4f 0c43 	mov.w	ip, r3, lsl #1
 8000ad4:	ea7f 5c6c 	mvns.w	ip, ip, asr #21
 8000ad8:	d1d6      	bne.n	8000a88 <__cmpdf2+0x1c>
 8000ada:	ea52 3c03 	orrs.w	ip, r2, r3, lsl #12
 8000ade:	d0d3      	beq.n	8000a88 <__cmpdf2+0x1c>
 8000ae0:	f85d 0b04 	ldr.w	r0, [sp], #4
 8000ae4:	4770      	bx	lr
 8000ae6:	bf00      	nop

08000ae8 <__aeabi_cdrcmple>:
 8000ae8:	4684      	mov	ip, r0
 8000aea:	4610      	mov	r0, r2
 8000aec:	4662      	mov	r2, ip
 8000aee:	468c      	mov	ip, r1
 8000af0:	4619      	mov	r1, r3
 8000af2:	4663      	mov	r3, ip
 8000af4:	e000      	b.n	8000af8 <__aeabi_cdcmpeq>
 8000af6:	bf00      	nop

08000af8 <__aeabi_cdcmpeq>:
 8000af8:	b501      	push	{r0, lr}
 8000afa:	f7ff ffb7 	bl	8000a6c <__cmpdf2>
 8000afe:	2800      	cmp	r0, #0
 8000b00:	bf48      	it	mi
 8000b02:	f110 0f00 	cmnmi.w	r0, #0
 8000b06:	bd01      	pop	{r0, pc}

08000b08 <__aeabi_dcmpeq>:
 8000b08:	f84d ed08 	str.w	lr, [sp, #-8]!
 8000b0c:	f7ff fff4 	bl	8000af8 <__aeabi_cdcmpeq>
 8000b10:	bf0c      	ite	eq
 8000b12:	2001      	moveq	r0, #1
 8000b14:	2000      	movne	r0, #0
 8000b16:	f85d fb08 	ldr.w	pc, [sp], #8
 8000b1a:	bf00      	nop

08000b1c <__aeabi_dcmplt>:
 8000b1c:	f84d ed08 	str.w	lr, [sp, #-8]!
 8000b20:	f7ff ffea 	bl	8000af8 <__aeabi_cdcmpeq>
 8000b24:	bf34      	ite	cc
 8000b26:	2001      	movcc	r0, #1
 8000b28:	2000      	movcs	r0, #0
 8000b2a:	f85d fb08 	ldr.w	pc, [sp], #8
 8000b2e:	bf00      	nop

08000b30 <__aeabi_dcmple>:
 8000b30:	f84d ed08 	str.w	lr, [sp, #-8]!
 8000b34:	f7ff ffe0 	bl	8000af8 <__aeabi_cdcmpeq>
 8000b38:	bf94      	ite	ls
 8000b3a:	2001      	movls	r0, #1
 8000b3c:	2000      	movhi	r0, #0
 8000b3e:	f85d fb08 	ldr.w	pc, [sp], #8
 8000b42:	bf00      	nop

08000b44 <__aeabi_dcmpge>:
 8000b44:	f84d ed08 	str.w	lr, [sp, #-8]!
 8000b48:	f7ff ffce 	bl	8000ae8 <__aeabi_cdrcmple>
 8000b4c:	bf94      	ite	ls
 8000b4e:	2001      	movls	r0, #1
 8000b50:	2000      	movhi	r0, #0
 8000b52:	f85d fb08 	ldr.w	pc, [sp], #8
 8000b56:	bf00      	nop

08000b58 <__aeabi_dcmpgt>:
 8000b58:	f84d ed08 	str.w	lr, [sp, #-8]!
 8000b5c:	f7ff ffc4 	bl	8000ae8 <__aeabi_cdrcmple>
 8000b60:	bf34      	ite	cc
 8000b62:	2001      	movcc	r0, #1
 8000b64:	2000      	movcs	r0, #0
 8000b66:	f85d fb08 	ldr.w	pc, [sp], #8
 8000b6a:	bf00      	nop

08000b6c <__aeabi_dcmpun>:
 8000b6c:	ea4f 0c41 	mov.w	ip, r1, lsl #1
 8000b70:	ea7f 5c6c 	mvns.w	ip, ip, asr #21
 8000b74:	d102      	bne.n	8000b7c <__aeabi_dcmpun+0x10>
 8000b76:	ea50 3c01 	orrs.w	ip, r0, r1, lsl #12
 8000b7a:	d10a      	bne.n	8000b92 <__aeabi_dcmpun+0x26>
 8000b7c:	ea4f 0c43 	mov.w	ip, r3, lsl #1
 8000b80:	ea7f 5c6c 	mvns.w	ip, ip, asr #21
 8000b84:	d102      	bne.n	8000b8c <__aeabi_dcmpun+0x20>
 8000b86:	ea52 3c03 	orrs.w	ip, r2, r3, lsl #12
 8000b8a:	d102      	bne.n	8000b92 <__aeabi_dcmpun+0x26>
 8000b8c:	f04f 0000 	mov.w	r0, #0
 8000b90:	4770      	bx	lr
 8000b92:	f04f 0001 	mov.w	r0, #1
 8000b96:	4770      	bx	lr

08000b98 <__aeabi_d2iz>:
 8000b98:	ea4f 0241 	mov.w	r2, r1, lsl #1
 8000b9c:	f512 1200 	adds.w	r2, r2, #2097152	; 0x200000
 8000ba0:	d215      	bcs.n	8000bce <__aeabi_d2iz+0x36>
 8000ba2:	d511      	bpl.n	8000bc8 <__aeabi_d2iz+0x30>
 8000ba4:	f46f 7378 	mvn.w	r3, #992	; 0x3e0
 8000ba8:	ebb3 5262 	subs.w	r2, r3, r2, asr #21
 8000bac:	d912      	bls.n	8000bd4 <__aeabi_d2iz+0x3c>
 8000bae:	ea4f 23c1 	mov.w	r3, r1, lsl #11
 8000bb2:	f043 4300 	orr.w	r3, r3, #2147483648	; 0x80000000
 8000bb6:	ea43 5350 	orr.w	r3, r3, r0, lsr #21
 8000bba:	f011 4f00 	tst.w	r1, #2147483648	; 0x80000000
 8000bbe:	fa23 f002 	lsr.w	r0, r3, r2
 8000bc2:	bf18      	it	ne
 8000bc4:	4240      	negne	r0, r0
 8000bc6:	4770      	bx	lr
 8000bc8:	f04f 0000 	mov.w	r0, #0
 8000bcc:	4770      	bx	lr
 8000bce:	ea50 3001 	orrs.w	r0, r0, r1, lsl #12
 8000bd2:	d105      	bne.n	8000be0 <__aeabi_d2iz+0x48>
 8000bd4:	f011 4000 	ands.w	r0, r1, #2147483648	; 0x80000000
 8000bd8:	bf08      	it	eq
 8000bda:	f06f 4000 	mvneq.w	r0, #2147483648	; 0x80000000
 8000bde:	4770      	bx	lr
 8000be0:	f04f 0000 	mov.w	r0, #0
 8000be4:	4770      	bx	lr
 8000be6:	bf00      	nop

08000be8 <__aeabi_uldivmod>:
 8000be8:	b953      	cbnz	r3, 8000c00 <__aeabi_uldivmod+0x18>
 8000bea:	b94a      	cbnz	r2, 8000c00 <__aeabi_uldivmod+0x18>
 8000bec:	2900      	cmp	r1, #0
 8000bee:	bf08      	it	eq
 8000bf0:	2800      	cmpeq	r0, #0
 8000bf2:	bf1c      	itt	ne
 8000bf4:	f04f 31ff 	movne.w	r1, #4294967295
 8000bf8:	f04f 30ff 	movne.w	r0, #4294967295
 8000bfc:	f000 b96e 	b.w	8000edc <__aeabi_idiv0>
 8000c00:	f1ad 0c08 	sub.w	ip, sp, #8
 8000c04:	e96d ce04 	strd	ip, lr, [sp, #-16]!
 8000c08:	f000 f806 	bl	8000c18 <__udivmoddi4>
 8000c0c:	f8dd e004 	ldr.w	lr, [sp, #4]
 8000c10:	e9dd 2302 	ldrd	r2, r3, [sp, #8]
 8000c14:	b004      	add	sp, #16
 8000c16:	4770      	bx	lr

08000c18 <__udivmoddi4>:
 8000c18:	e92d 47f0 	stmdb	sp!, {r4, r5, r6, r7, r8, r9, sl, lr}
 8000c1c:	9d08      	ldr	r5, [sp, #32]
 8000c1e:	4604      	mov	r4, r0
 8000c20:	468c      	mov	ip, r1
 8000c22:	2b00      	cmp	r3, #0
 8000c24:	f040 8083 	bne.w	8000d2e <__udivmoddi4+0x116>
 8000c28:	428a      	cmp	r2, r1
 8000c2a:	4617      	mov	r7, r2
 8000c2c:	d947      	bls.n	8000cbe <__udivmoddi4+0xa6>
 8000c2e:	fab2 f282 	clz	r2, r2
 8000c32:	b142      	cbz	r2, 8000c46 <__udivmoddi4+0x2e>
 8000c34:	f1c2 0020 	rsb	r0, r2, #32
 8000c38:	fa24 f000 	lsr.w	r0, r4, r0
 8000c3c:	4091      	lsls	r1, r2
 8000c3e:	4097      	lsls	r7, r2
 8000c40:	ea40 0c01 	orr.w	ip, r0, r1
 8000c44:	4094      	lsls	r4, r2
 8000c46:	ea4f 4817 	mov.w	r8, r7, lsr #16
 8000c4a:	0c23      	lsrs	r3, r4, #16
 8000c4c:	fbbc f6f8 	udiv	r6, ip, r8
 8000c50:	fa1f fe87 	uxth.w	lr, r7
 8000c54:	fb08 c116 	mls	r1, r8, r6, ip
 8000c58:	ea43 4301 	orr.w	r3, r3, r1, lsl #16
 8000c5c:	fb06 f10e 	mul.w	r1, r6, lr
 8000c60:	4299      	cmp	r1, r3
 8000c62:	d909      	bls.n	8000c78 <__udivmoddi4+0x60>
 8000c64:	18fb      	adds	r3, r7, r3
 8000c66:	f106 30ff 	add.w	r0, r6, #4294967295
 8000c6a:	f080 8119 	bcs.w	8000ea0 <__udivmoddi4+0x288>
 8000c6e:	4299      	cmp	r1, r3
 8000c70:	f240 8116 	bls.w	8000ea0 <__udivmoddi4+0x288>
 8000c74:	3e02      	subs	r6, #2
 8000c76:	443b      	add	r3, r7
 8000c78:	1a5b      	subs	r3, r3, r1
 8000c7a:	b2a4      	uxth	r4, r4
 8000c7c:	fbb3 f0f8 	udiv	r0, r3, r8
 8000c80:	fb08 3310 	mls	r3, r8, r0, r3
 8000c84:	ea44 4403 	orr.w	r4, r4, r3, lsl #16
 8000c88:	fb00 fe0e 	mul.w	lr, r0, lr
 8000c8c:	45a6      	cmp	lr, r4
 8000c8e:	d909      	bls.n	8000ca4 <__udivmoddi4+0x8c>
 8000c90:	193c      	adds	r4, r7, r4
 8000c92:	f100 33ff 	add.w	r3, r0, #4294967295
 8000c96:	f080 8105 	bcs.w	8000ea4 <__udivmoddi4+0x28c>
 8000c9a:	45a6      	cmp	lr, r4
 8000c9c:	f240 8102 	bls.w	8000ea4 <__udivmoddi4+0x28c>
 8000ca0:	3802      	subs	r0, #2
 8000ca2:	443c      	add	r4, r7
 8000ca4:	ea40 4006 	orr.w	r0, r0, r6, lsl #16
 8000ca8:	eba4 040e 	sub.w	r4, r4, lr
 8000cac:	2600      	movs	r6, #0
 8000cae:	b11d      	cbz	r5, 8000cb8 <__udivmoddi4+0xa0>
 8000cb0:	40d4      	lsrs	r4, r2
 8000cb2:	2300      	movs	r3, #0
 8000cb4:	e9c5 4300 	strd	r4, r3, [r5]
 8000cb8:	4631      	mov	r1, r6
 8000cba:	e8bd 87f0 	ldmia.w	sp!, {r4, r5, r6, r7, r8, r9, sl, pc}
 8000cbe:	b902      	cbnz	r2, 8000cc2 <__udivmoddi4+0xaa>
 8000cc0:	deff      	udf	#255	; 0xff
 8000cc2:	fab2 f282 	clz	r2, r2
 8000cc6:	2a00      	cmp	r2, #0
 8000cc8:	d150      	bne.n	8000d6c <__udivmoddi4+0x154>
 8000cca:	1bcb      	subs	r3, r1, r7
 8000ccc:	ea4f 4e17 	mov.w	lr, r7, lsr #16
 8000cd0:	fa1f f887 	uxth.w	r8, r7
 8000cd4:	2601      	movs	r6, #1
 8000cd6:	fbb3 fcfe 	udiv	ip, r3, lr
 8000cda:	0c21      	lsrs	r1, r4, #16
 8000cdc:	fb0e 331c 	mls	r3, lr, ip, r3
 8000ce0:	ea41 4103 	orr.w	r1, r1, r3, lsl #16
 8000ce4:	fb08 f30c 	mul.w	r3, r8, ip
 8000ce8:	428b      	cmp	r3, r1
 8000cea:	d907      	bls.n	8000cfc <__udivmoddi4+0xe4>
 8000cec:	1879      	adds	r1, r7, r1
 8000cee:	f10c 30ff 	add.w	r0, ip, #4294967295
 8000cf2:	d202      	bcs.n	8000cfa <__udivmoddi4+0xe2>
 8000cf4:	428b      	cmp	r3, r1
 8000cf6:	f200 80e9 	bhi.w	8000ecc <__udivmoddi4+0x2b4>
 8000cfa:	4684      	mov	ip, r0
 8000cfc:	1ac9      	subs	r1, r1, r3
 8000cfe:	b2a3      	uxth	r3, r4
 8000d00:	fbb1 f0fe 	udiv	r0, r1, lr
 8000d04:	fb0e 1110 	mls	r1, lr, r0, r1
 8000d08:	ea43 4401 	orr.w	r4, r3, r1, lsl #16
 8000d0c:	fb08 f800 	mul.w	r8, r8, r0
 8000d10:	45a0      	cmp	r8, r4
 8000d12:	d907      	bls.n	8000d24 <__udivmoddi4+0x10c>
 8000d14:	193c      	adds	r4, r7, r4
 8000d16:	f100 33ff 	add.w	r3, r0, #4294967295
 8000d1a:	d202      	bcs.n	8000d22 <__udivmoddi4+0x10a>
 8000d1c:	45a0      	cmp	r8, r4
 8000d1e:	f200 80d9 	bhi.w	8000ed4 <__udivmoddi4+0x2bc>
 8000d22:	4618      	mov	r0, r3
 8000d24:	eba4 0408 	sub.w	r4, r4, r8
 8000d28:	ea40 400c 	orr.w	r0, r0, ip, lsl #16
 8000d2c:	e7bf      	b.n	8000cae <__udivmoddi4+0x96>
 8000d2e:	428b      	cmp	r3, r1
 8000d30:	d909      	bls.n	8000d46 <__udivmoddi4+0x12e>
 8000d32:	2d00      	cmp	r5, #0
 8000d34:	f000 80b1 	beq.w	8000e9a <__udivmoddi4+0x282>
 8000d38:	2600      	movs	r6, #0
 8000d3a:	e9c5 0100 	strd	r0, r1, [r5]
 8000d3e:	4630      	mov	r0, r6
 8000d40:	4631      	mov	r1, r6
 8000d42:	e8bd 87f0 	ldmia.w	sp!, {r4, r5, r6, r7, r8, r9, sl, pc}
 8000d46:	fab3 f683 	clz	r6, r3
 8000d4a:	2e00      	cmp	r6, #0
 8000d4c:	d14a      	bne.n	8000de4 <__udivmoddi4+0x1cc>
 8000d4e:	428b      	cmp	r3, r1
 8000d50:	d302      	bcc.n	8000d58 <__udivmoddi4+0x140>
 8000d52:	4282      	cmp	r2, r0
 8000d54:	f200 80b8 	bhi.w	8000ec8 <__udivmoddi4+0x2b0>
 8000d58:	1a84      	subs	r4, r0, r2
 8000d5a:	eb61 0103 	sbc.w	r1, r1, r3
 8000d5e:	2001      	movs	r0, #1
 8000d60:	468c      	mov	ip, r1
 8000d62:	2d00      	cmp	r5, #0
 8000d64:	d0a8      	beq.n	8000cb8 <__udivmoddi4+0xa0>
 8000d66:	e9c5 4c00 	strd	r4, ip, [r5]
 8000d6a:	e7a5      	b.n	8000cb8 <__udivmoddi4+0xa0>
 8000d6c:	f1c2 0320 	rsb	r3, r2, #32
 8000d70:	fa20 f603 	lsr.w	r6, r0, r3
 8000d74:	4097      	lsls	r7, r2
 8000d76:	fa01 f002 	lsl.w	r0, r1, r2
 8000d7a:	ea4f 4e17 	mov.w	lr, r7, lsr #16
 8000d7e:	40d9      	lsrs	r1, r3
 8000d80:	4330      	orrs	r0, r6
 8000d82:	0c03      	lsrs	r3, r0, #16
 8000d84:	fbb1 f6fe 	udiv	r6, r1, lr
 8000d88:	fa1f f887 	uxth.w	r8, r7
 8000d8c:	fb0e 1116 	mls	r1, lr, r6, r1
 8000d90:	ea43 4301 	orr.w	r3, r3, r1, lsl #16
 8000d94:	fb06 f108 	mul.w	r1, r6, r8
 8000d98:	4299      	cmp	r1, r3
 8000d9a:	fa04 f402 	lsl.w	r4, r4, r2
 8000d9e:	d909      	bls.n	8000db4 <__udivmoddi4+0x19c>
 8000da0:	18fb      	adds	r3, r7, r3
 8000da2:	f106 3cff 	add.w	ip, r6, #4294967295
 8000da6:	f080 808d 	bcs.w	8000ec4 <__udivmoddi4+0x2ac>
 8000daa:	4299      	cmp	r1, r3
 8000dac:	f240 808a 	bls.w	8000ec4 <__udivmoddi4+0x2ac>
 8000db0:	3e02      	subs	r6, #2
 8000db2:	443b      	add	r3, r7
 8000db4:	1a5b      	subs	r3, r3, r1
 8000db6:	b281      	uxth	r1, r0
 8000db8:	fbb3 f0fe 	udiv	r0, r3, lr
 8000dbc:	fb0e 3310 	mls	r3, lr, r0, r3
 8000dc0:	ea41 4103 	orr.w	r1, r1, r3, lsl #16
 8000dc4:	fb00 f308 	mul.w	r3, r0, r8
 8000dc8:	428b      	cmp	r3, r1
 8000dca:	d907      	bls.n	8000ddc <__udivmoddi4+0x1c4>
 8000dcc:	1879      	adds	r1, r7, r1
 8000dce:	f100 3cff 	add.w	ip, r0, #4294967295
 8000dd2:	d273      	bcs.n	8000ebc <__udivmoddi4+0x2a4>
 8000dd4:	428b      	cmp	r3, r1
 8000dd6:	d971      	bls.n	8000ebc <__udivmoddi4+0x2a4>
 8000dd8:	3802      	subs	r0, #2
 8000dda:	4439      	add	r1, r7
 8000ddc:	1acb      	subs	r3, r1, r3
 8000dde:	ea40 4606 	orr.w	r6, r0, r6, lsl #16
 8000de2:	e778      	b.n	8000cd6 <__udivmoddi4+0xbe>
 8000de4:	f1c6 0c20 	rsb	ip, r6, #32
 8000de8:	fa03 f406 	lsl.w	r4, r3, r6
 8000dec:	fa22 f30c 	lsr.w	r3, r2, ip
 8000df0:	431c      	orrs	r4, r3
 8000df2:	fa20 f70c 	lsr.w	r7, r0, ip
 8000df6:	fa01 f306 	lsl.w	r3, r1, r6
 8000dfa:	ea4f 4e14 	mov.w	lr, r4, lsr #16
 8000dfe:	fa21 f10c 	lsr.w	r1, r1, ip
 8000e02:	431f      	orrs	r7, r3
 8000e04:	0c3b      	lsrs	r3, r7, #16
 8000e06:	fbb1 f9fe 	udiv	r9, r1, lr
 8000e0a:	fa1f f884 	uxth.w	r8, r4
 8000e0e:	fb0e 1119 	mls	r1, lr, r9, r1
 8000e12:	ea43 4101 	orr.w	r1, r3, r1, lsl #16
 8000e16:	fb09 fa08 	mul.w	sl, r9, r8
 8000e1a:	458a      	cmp	sl, r1
 8000e1c:	fa02 f206 	lsl.w	r2, r2, r6
 8000e20:	fa00 f306 	lsl.w	r3, r0, r6
 8000e24:	d908      	bls.n	8000e38 <__udivmoddi4+0x220>
 8000e26:	1861      	adds	r1, r4, r1
 8000e28:	f109 30ff 	add.w	r0, r9, #4294967295
 8000e2c:	d248      	bcs.n	8000ec0 <__udivmoddi4+0x2a8>
 8000e2e:	458a      	cmp	sl, r1
 8000e30:	d946      	bls.n	8000ec0 <__udivmoddi4+0x2a8>
 8000e32:	f1a9 0902 	sub.w	r9, r9, #2
 8000e36:	4421      	add	r1, r4
 8000e38:	eba1 010a 	sub.w	r1, r1, sl
 8000e3c:	b2bf      	uxth	r7, r7
 8000e3e:	fbb1 f0fe 	udiv	r0, r1, lr
 8000e42:	fb0e 1110 	mls	r1, lr, r0, r1
 8000e46:	ea47 4701 	orr.w	r7, r7, r1, lsl #16
 8000e4a:	fb00 f808 	mul.w	r8, r0, r8
 8000e4e:	45b8      	cmp	r8, r7
 8000e50:	d907      	bls.n	8000e62 <__udivmoddi4+0x24a>
 8000e52:	19e7      	adds	r7, r4, r7
 8000e54:	f100 31ff 	add.w	r1, r0, #4294967295
 8000e58:	d22e      	bcs.n	8000eb8 <__udivmoddi4+0x2a0>
 8000e5a:	45b8      	cmp	r8, r7
 8000e5c:	d92c      	bls.n	8000eb8 <__udivmoddi4+0x2a0>
 8000e5e:	3802      	subs	r0, #2
 8000e60:	4427      	add	r7, r4
 8000e62:	ea40 4009 	orr.w	r0, r0, r9, lsl #16
 8000e66:	eba7 0708 	sub.w	r7, r7, r8
 8000e6a:	fba0 8902 	umull	r8, r9, r0, r2
 8000e6e:	454f      	cmp	r7, r9
 8000e70:	46c6      	mov	lr, r8
 8000e72:	4649      	mov	r1, r9
 8000e74:	d31a      	bcc.n	8000eac <__udivmoddi4+0x294>
 8000e76:	d017      	beq.n	8000ea8 <__udivmoddi4+0x290>
 8000e78:	b15d      	cbz	r5, 8000e92 <__udivmoddi4+0x27a>
 8000e7a:	ebb3 020e 	subs.w	r2, r3, lr
 8000e7e:	eb67 0701 	sbc.w	r7, r7, r1
 8000e82:	fa07 fc0c 	lsl.w	ip, r7, ip
 8000e86:	40f2      	lsrs	r2, r6
 8000e88:	ea4c 0202 	orr.w	r2, ip, r2
 8000e8c:	40f7      	lsrs	r7, r6
 8000e8e:	e9c5 2700 	strd	r2, r7, [r5]
 8000e92:	2600      	movs	r6, #0
 8000e94:	4631      	mov	r1, r6
 8000e96:	e8bd 87f0 	ldmia.w	sp!, {r4, r5, r6, r7, r8, r9, sl, pc}
 8000e9a:	462e      	mov	r6, r5
 8000e9c:	4628      	mov	r0, r5
 8000e9e:	e70b      	b.n	8000cb8 <__udivmoddi4+0xa0>
 8000ea0:	4606      	mov	r6, r0
 8000ea2:	e6e9      	b.n	8000c78 <__udivmoddi4+0x60>
 8000ea4:	4618      	mov	r0, r3
 8000ea6:	e6fd      	b.n	8000ca4 <__udivmoddi4+0x8c>
 8000ea8:	4543      	cmp	r3, r8
 8000eaa:	d2e5      	bcs.n	8000e78 <__udivmoddi4+0x260>
 8000eac:	ebb8 0e02 	subs.w	lr, r8, r2
 8000eb0:	eb69 0104 	sbc.w	r1, r9, r4
 8000eb4:	3801      	subs	r0, #1
 8000eb6:	e7df      	b.n	8000e78 <__udivmoddi4+0x260>
 8000eb8:	4608      	mov	r0, r1
 8000eba:	e7d2      	b.n	8000e62 <__udivmoddi4+0x24a>
 8000ebc:	4660      	mov	r0, ip
 8000ebe:	e78d      	b.n	8000ddc <__udivmoddi4+0x1c4>
 8000ec0:	4681      	mov	r9, r0
 8000ec2:	e7b9      	b.n	8000e38 <__udivmoddi4+0x220>
 8000ec4:	4666      	mov	r6, ip
 8000ec6:	e775      	b.n	8000db4 <__udivmoddi4+0x19c>
 8000ec8:	4630      	mov	r0, r6
 8000eca:	e74a      	b.n	8000d62 <__udivmoddi4+0x14a>
 8000ecc:	f1ac 0c02 	sub.w	ip, ip, #2
 8000ed0:	4439      	add	r1, r7
 8000ed2:	e713      	b.n	8000cfc <__udivmoddi4+0xe4>
 8000ed4:	3802      	subs	r0, #2
 8000ed6:	443c      	add	r4, r7
 8000ed8:	e724      	b.n	8000d24 <__udivmoddi4+0x10c>
 8000eda:	bf00      	nop

08000edc <__aeabi_idiv0>:
 8000edc:	4770      	bx	lr
 8000ede:	bf00      	nop

08000ee0 <main>:
/**
  * @brief  The application entry point.
  * @retval int
  */
int main(void)
{
 8000ee0:	e92d 41f0 	stmdb	sp!, {r4, r5, r6, r7, r8, lr}
 8000ee4:	b086      	sub	sp, #24
 8000ee6:	af02      	add	r7, sp, #8
  /* USER CODE END 1 */

  /* MCU Configuration--------------------------------------------------------*/

  /* Reset of all peripherals, Initializes the Flash interface and the Systick. */
  HAL_Init();
 8000ee8:	f000 fcd8 	bl	800189c <HAL_Init>
  /* USER CODE BEGIN Init */

  /* USER CODE END Init */

  /* Configure the system clock */
  SystemClock_Config();
 8000eec:	f000 f8bc 	bl	8001068 <SystemClock_Config>
  /* USER CODE BEGIN SysInit */

  /* USER CODE END SysInit */

  /* Initialize all configured peripherals */
  MX_GPIO_Init();
 8000ef0:	f000 f9ca 	bl	8001288 <MX_GPIO_Init>
  MX_DMA_Init();
 8000ef4:	f000 f9a0 	bl	8001238 <MX_DMA_Init>
  MX_USART2_UART_Init();
 8000ef8:	f000 f974 	bl	80011e4 <MX_USART2_UART_Init>
  MX_ADC1_Init();
 8000efc:	f000 f920 	bl	8001140 <MX_ADC1_Init>
  /* USER CODE BEGIN 2 */
  HAL_UART_Receive_DMA(&huart2, Received, 5);
 8000f00:	2205      	movs	r2, #5
 8000f02:	494e      	ldr	r1, [pc, #312]	; (800103c <main+0x15c>)
 8000f04:	484e      	ldr	r0, [pc, #312]	; (8001040 <main+0x160>)
 8000f06:	f002 ff01 	bl	8003d0c <HAL_UART_Receive_DMA>
  HAL_ADC_Start(&hadc1);
 8000f0a:	484e      	ldr	r0, [pc, #312]	; (8001044 <main+0x164>)
 8000f0c:	f000 fda0 	bl	8001a50 <HAL_ADC_Start>
  /* Infinite loop */
  /* USER CODE BEGIN WHILE */
  while (1)
  {
    /* USER CODE END WHILE */
	  if (MeasurementStart == true)
 8000f10:	4b4d      	ldr	r3, [pc, #308]	; (8001048 <main+0x168>)
 8000f12:	781b      	ldrb	r3, [r3, #0]
 8000f14:	2b00      	cmp	r3, #0
 8000f16:	d0fb      	beq.n	8000f10 <main+0x30>
	  {
		  counterConversion++;
 8000f18:	4b4c      	ldr	r3, [pc, #304]	; (800104c <main+0x16c>)
 8000f1a:	781b      	ldrb	r3, [r3, #0]
 8000f1c:	3301      	adds	r3, #1
 8000f1e:	b2da      	uxtb	r2, r3
 8000f20:	4b4a      	ldr	r3, [pc, #296]	; (800104c <main+0x16c>)
 8000f22:	701a      	strb	r2, [r3, #0]
		  if (HAL_ADC_PollForConversion(&hadc1, 10) == HAL_OK)
 8000f24:	210a      	movs	r1, #10
 8000f26:	4847      	ldr	r0, [pc, #284]	; (8001044 <main+0x164>)
 8000f28:	f000 fe97 	bl	8001c5a <HAL_ADC_PollForConversion>
 8000f2c:	4603      	mov	r3, r0
 8000f2e:	2b00      	cmp	r3, #0
 8000f30:	d177      	bne.n	8001022 <main+0x142>
		  {
 8000f32:	466b      	mov	r3, sp
 8000f34:	461e      	mov	r6, r3
			PomiarADC = HAL_ADC_GetValue(&hadc1);// Pobranie zmierzonej wartosci
 8000f36:	4843      	ldr	r0, [pc, #268]	; (8001044 <main+0x164>)
 8000f38:	f000 ff1a 	bl	8001d70 <HAL_ADC_GetValue>
 8000f3c:	4603      	mov	r3, r0
 8000f3e:	b29a      	uxth	r2, r3
 8000f40:	4b43      	ldr	r3, [pc, #268]	; (8001050 <main+0x170>)
 8000f42:	801a      	strh	r2, [r3, #0]
			Vsense = (SupplyVoltage*PomiarADC)/ADCResolution;// Przeliczenie wartosci zmierzonej na napiecie
 8000f44:	4b42      	ldr	r3, [pc, #264]	; (8001050 <main+0x170>)
 8000f46:	881b      	ldrh	r3, [r3, #0]
 8000f48:	ee07 3a90 	vmov	s15, r3
 8000f4c:	eef8 7ae7 	vcvt.f32.s32	s15, s15
 8000f50:	ed9f 7a40 	vldr	s14, [pc, #256]	; 8001054 <main+0x174>
 8000f54:	ee27 7a87 	vmul.f32	s14, s15, s14
 8000f58:	eddf 6a3f 	vldr	s13, [pc, #252]	; 8001058 <main+0x178>
 8000f5c:	eec7 7a26 	vdiv.f32	s15, s14, s13
 8000f60:	4b3e      	ldr	r3, [pc, #248]	; (800105c <main+0x17c>)
 8000f62:	edc3 7a00 	vstr	s15, [r3]

			int size = snprintf(0, 0, "%.2f", Vsense); // float to string
 8000f66:	4b3d      	ldr	r3, [pc, #244]	; (800105c <main+0x17c>)
 8000f68:	681b      	ldr	r3, [r3, #0]
 8000f6a:	4618      	mov	r0, r3
 8000f6c:	f7ff fb0c 	bl	8000588 <__aeabi_f2d>
 8000f70:	4602      	mov	r2, r0
 8000f72:	460b      	mov	r3, r1
 8000f74:	e9cd 2300 	strd	r2, r3, [sp]
 8000f78:	4a39      	ldr	r2, [pc, #228]	; (8001060 <main+0x180>)
 8000f7a:	2100      	movs	r1, #0
 8000f7c:	2000      	movs	r0, #0
 8000f7e:	f004 fa25 	bl	80053cc <sniprintf>
 8000f82:	60f8      	str	r0, [r7, #12]
			char s[size + 1];
 8000f84:	68fb      	ldr	r3, [r7, #12]
 8000f86:	1c5c      	adds	r4, r3, #1
 8000f88:	1e63      	subs	r3, r4, #1
 8000f8a:	60bb      	str	r3, [r7, #8]
 8000f8c:	4623      	mov	r3, r4
 8000f8e:	4618      	mov	r0, r3
 8000f90:	f04f 0100 	mov.w	r1, #0
 8000f94:	f04f 0200 	mov.w	r2, #0
 8000f98:	f04f 0300 	mov.w	r3, #0
 8000f9c:	00cb      	lsls	r3, r1, #3
 8000f9e:	ea43 7350 	orr.w	r3, r3, r0, lsr #29
 8000fa2:	00c2      	lsls	r2, r0, #3
 8000fa4:	4623      	mov	r3, r4
 8000fa6:	4618      	mov	r0, r3
 8000fa8:	f04f 0100 	mov.w	r1, #0
 8000fac:	f04f 0200 	mov.w	r2, #0
 8000fb0:	f04f 0300 	mov.w	r3, #0
 8000fb4:	00cb      	lsls	r3, r1, #3
 8000fb6:	ea43 7350 	orr.w	r3, r3, r0, lsr #29
 8000fba:	00c2      	lsls	r2, r0, #3
 8000fbc:	4623      	mov	r3, r4
 8000fbe:	3307      	adds	r3, #7
 8000fc0:	08db      	lsrs	r3, r3, #3
 8000fc2:	00db      	lsls	r3, r3, #3
 8000fc4:	ebad 0d03 	sub.w	sp, sp, r3
 8000fc8:	ab02      	add	r3, sp, #8
 8000fca:	3300      	adds	r3, #0
 8000fcc:	607b      	str	r3, [r7, #4]
			snprintf(s, sizeof(s), "%.2f", Vsense);
 8000fce:	687d      	ldr	r5, [r7, #4]
 8000fd0:	46a0      	mov	r8, r4
 8000fd2:	4b22      	ldr	r3, [pc, #136]	; (800105c <main+0x17c>)
 8000fd4:	681b      	ldr	r3, [r3, #0]
 8000fd6:	4618      	mov	r0, r3
 8000fd8:	f7ff fad6 	bl	8000588 <__aeabi_f2d>
 8000fdc:	4602      	mov	r2, r0
 8000fde:	460b      	mov	r3, r1
 8000fe0:	e9cd 2300 	strd	r2, r3, [sp]
 8000fe4:	4a1e      	ldr	r2, [pc, #120]	; (8001060 <main+0x180>)
 8000fe6:	4641      	mov	r1, r8
 8000fe8:	4628      	mov	r0, r5
 8000fea:	f004 f9ef 	bl	80053cc <sniprintf>
			HAL_UART_Transmit(&huart2, s, sizeof(s), 10);
 8000fee:	6879      	ldr	r1, [r7, #4]
 8000ff0:	b2a2      	uxth	r2, r4
 8000ff2:	230a      	movs	r3, #10
 8000ff4:	4812      	ldr	r0, [pc, #72]	; (8001040 <main+0x160>)
 8000ff6:	f002 fd8a 	bl	8003b0e <HAL_UART_Transmit>
		    HAL_UART_Transmit(&huart2, "\r\n", 4, 10);
 8000ffa:	230a      	movs	r3, #10
 8000ffc:	2204      	movs	r2, #4
 8000ffe:	4919      	ldr	r1, [pc, #100]	; (8001064 <main+0x184>)
 8001000:	480f      	ldr	r0, [pc, #60]	; (8001040 <main+0x160>)
 8001002:	f002 fd84 	bl	8003b0e <HAL_UART_Transmit>
		    HAL_UART_Transmit(&huart2, 83, 4, 10);
 8001006:	230a      	movs	r3, #10
 8001008:	2204      	movs	r2, #4
 800100a:	2153      	movs	r1, #83	; 0x53
 800100c:	480c      	ldr	r0, [pc, #48]	; (8001040 <main+0x160>)
 800100e:	f002 fd7e 	bl	8003b0e <HAL_UART_Transmit>

			HAL_Delay(500);
 8001012:	f44f 70fa 	mov.w	r0, #500	; 0x1f4
 8001016:	f000 fcb3 	bl	8001980 <HAL_Delay>
			HAL_ADC_Start(&hadc1);
 800101a:	480a      	ldr	r0, [pc, #40]	; (8001044 <main+0x164>)
 800101c:	f000 fd18 	bl	8001a50 <HAL_ADC_Start>
 8001020:	46b5      	mov	sp, r6
		  }

		  if (counterConversion == 5)
 8001022:	4b0a      	ldr	r3, [pc, #40]	; (800104c <main+0x16c>)
 8001024:	781b      	ldrb	r3, [r3, #0]
 8001026:	2b05      	cmp	r3, #5
 8001028:	f47f af72 	bne.w	8000f10 <main+0x30>
		  {
			  MeasurementStart = false;
 800102c:	4b06      	ldr	r3, [pc, #24]	; (8001048 <main+0x168>)
 800102e:	2200      	movs	r2, #0
 8001030:	701a      	strb	r2, [r3, #0]
			  HAL_ADC_Stop(&hadc1);
 8001032:	4804      	ldr	r0, [pc, #16]	; (8001044 <main+0x164>)
 8001034:	f000 fdde 	bl	8001bf4 <HAL_ADC_Stop>
	  if (MeasurementStart == true)
 8001038:	e76a      	b.n	8000f10 <main+0x30>
 800103a:	bf00      	nop
 800103c:	20000234 	.word	0x20000234
 8001040:	20000350 	.word	0x20000350
 8001044:	200002a4 	.word	0x200002a4
 8001048:	200001fc 	.word	0x200001fc
 800104c:	20000000 	.word	0x20000000
 8001050:	2000029c 	.word	0x2000029c
 8001054:	40533333 	.word	0x40533333
 8001058:	457ff000 	.word	0x457ff000
 800105c:	200002ec 	.word	0x200002ec
 8001060:	080078a8 	.word	0x080078a8
 8001064:	080078b0 	.word	0x080078b0

08001068 <SystemClock_Config>:
/**
  * @brief System Clock Configuration
  * @retval None
  */
void SystemClock_Config(void)
{
 8001068:	b580      	push	{r7, lr}
 800106a:	b094      	sub	sp, #80	; 0x50
 800106c:	af00      	add	r7, sp, #0
  RCC_OscInitTypeDef RCC_OscInitStruct = {0};
 800106e:	f107 031c 	add.w	r3, r7, #28
 8001072:	2234      	movs	r2, #52	; 0x34
 8001074:	2100      	movs	r1, #0
 8001076:	4618      	mov	r0, r3
 8001078:	f003 fd36 	bl	8004ae8 <memset>
  RCC_ClkInitTypeDef RCC_ClkInitStruct = {0};
 800107c:	f107 0308 	add.w	r3, r7, #8
 8001080:	2200      	movs	r2, #0
 8001082:	601a      	str	r2, [r3, #0]
 8001084:	605a      	str	r2, [r3, #4]
 8001086:	609a      	str	r2, [r3, #8]
 8001088:	60da      	str	r2, [r3, #12]
 800108a:	611a      	str	r2, [r3, #16]

  /** Configure the main internal regulator output voltage
  */
  __HAL_RCC_PWR_CLK_ENABLE();
 800108c:	2300      	movs	r3, #0
 800108e:	607b      	str	r3, [r7, #4]
 8001090:	4b29      	ldr	r3, [pc, #164]	; (8001138 <SystemClock_Config+0xd0>)
 8001092:	6c1b      	ldr	r3, [r3, #64]	; 0x40
 8001094:	4a28      	ldr	r2, [pc, #160]	; (8001138 <SystemClock_Config+0xd0>)
 8001096:	f043 5380 	orr.w	r3, r3, #268435456	; 0x10000000
 800109a:	6413      	str	r3, [r2, #64]	; 0x40
 800109c:	4b26      	ldr	r3, [pc, #152]	; (8001138 <SystemClock_Config+0xd0>)
 800109e:	6c1b      	ldr	r3, [r3, #64]	; 0x40
 80010a0:	f003 5380 	and.w	r3, r3, #268435456	; 0x10000000
 80010a4:	607b      	str	r3, [r7, #4]
 80010a6:	687b      	ldr	r3, [r7, #4]
  __HAL_PWR_VOLTAGESCALING_CONFIG(PWR_REGULATOR_VOLTAGE_SCALE3);
 80010a8:	2300      	movs	r3, #0
 80010aa:	603b      	str	r3, [r7, #0]
 80010ac:	4b23      	ldr	r3, [pc, #140]	; (800113c <SystemClock_Config+0xd4>)
 80010ae:	681b      	ldr	r3, [r3, #0]
 80010b0:	f423 4340 	bic.w	r3, r3, #49152	; 0xc000
 80010b4:	4a21      	ldr	r2, [pc, #132]	; (800113c <SystemClock_Config+0xd4>)
 80010b6:	f443 4380 	orr.w	r3, r3, #16384	; 0x4000
 80010ba:	6013      	str	r3, [r2, #0]
 80010bc:	4b1f      	ldr	r3, [pc, #124]	; (800113c <SystemClock_Config+0xd4>)
 80010be:	681b      	ldr	r3, [r3, #0]
 80010c0:	f403 4340 	and.w	r3, r3, #49152	; 0xc000
 80010c4:	603b      	str	r3, [r7, #0]
 80010c6:	683b      	ldr	r3, [r7, #0]
  /** Initializes the RCC Oscillators according to the specified parameters
  * in the RCC_OscInitTypeDef structure.
  */
  RCC_OscInitStruct.OscillatorType = RCC_OSCILLATORTYPE_HSI;
 80010c8:	2302      	movs	r3, #2
 80010ca:	61fb      	str	r3, [r7, #28]
  RCC_OscInitStruct.HSIState = RCC_HSI_ON;
 80010cc:	2301      	movs	r3, #1
 80010ce:	62bb      	str	r3, [r7, #40]	; 0x28
  RCC_OscInitStruct.HSICalibrationValue = RCC_HSICALIBRATION_DEFAULT;
 80010d0:	2310      	movs	r3, #16
 80010d2:	62fb      	str	r3, [r7, #44]	; 0x2c
  RCC_OscInitStruct.PLL.PLLState = RCC_PLL_ON;
 80010d4:	2302      	movs	r3, #2
 80010d6:	637b      	str	r3, [r7, #52]	; 0x34
  RCC_OscInitStruct.PLL.PLLSource = RCC_PLLSOURCE_HSI;
 80010d8:	2300      	movs	r3, #0
 80010da:	63bb      	str	r3, [r7, #56]	; 0x38
  RCC_OscInitStruct.PLL.PLLM = 8;
 80010dc:	2308      	movs	r3, #8
 80010de:	63fb      	str	r3, [r7, #60]	; 0x3c
  RCC_OscInitStruct.PLL.PLLN = 84;
 80010e0:	2354      	movs	r3, #84	; 0x54
 80010e2:	643b      	str	r3, [r7, #64]	; 0x40
  RCC_OscInitStruct.PLL.PLLP = RCC_PLLP_DIV2;
 80010e4:	2302      	movs	r3, #2
 80010e6:	647b      	str	r3, [r7, #68]	; 0x44
  RCC_OscInitStruct.PLL.PLLQ = 2;
 80010e8:	2302      	movs	r3, #2
 80010ea:	64bb      	str	r3, [r7, #72]	; 0x48
  RCC_OscInitStruct.PLL.PLLR = 2;
 80010ec:	2302      	movs	r3, #2
 80010ee:	64fb      	str	r3, [r7, #76]	; 0x4c
  if (HAL_RCC_OscConfig(&RCC_OscInitStruct) != HAL_OK)
 80010f0:	f107 031c 	add.w	r3, r7, #28
 80010f4:	4618      	mov	r0, r3
 80010f6:	f002 fa1f 	bl	8003538 <HAL_RCC_OscConfig>
 80010fa:	4603      	mov	r3, r0
 80010fc:	2b00      	cmp	r3, #0
 80010fe:	d001      	beq.n	8001104 <SystemClock_Config+0x9c>
  {
    Error_Handler();
 8001100:	f000 f95c 	bl	80013bc <Error_Handler>
  }
  /** Initializes the CPU, AHB and APB buses clocks
  */
  RCC_ClkInitStruct.ClockType = RCC_CLOCKTYPE_HCLK|RCC_CLOCKTYPE_SYSCLK
 8001104:	230f      	movs	r3, #15
 8001106:	60bb      	str	r3, [r7, #8]
                              |RCC_CLOCKTYPE_PCLK1|RCC_CLOCKTYPE_PCLK2;
  RCC_ClkInitStruct.SYSCLKSource = RCC_SYSCLKSOURCE_PLLCLK;
 8001108:	2302      	movs	r3, #2
 800110a:	60fb      	str	r3, [r7, #12]
  RCC_ClkInitStruct.AHBCLKDivider = RCC_SYSCLK_DIV1;
 800110c:	2300      	movs	r3, #0
 800110e:	613b      	str	r3, [r7, #16]
  RCC_ClkInitStruct.APB1CLKDivider = RCC_HCLK_DIV2;
 8001110:	f44f 5380 	mov.w	r3, #4096	; 0x1000
 8001114:	617b      	str	r3, [r7, #20]
  RCC_ClkInitStruct.APB2CLKDivider = RCC_HCLK_DIV1;
 8001116:	2300      	movs	r3, #0
 8001118:	61bb      	str	r3, [r7, #24]

  if (HAL_RCC_ClockConfig(&RCC_ClkInitStruct, FLASH_LATENCY_2) != HAL_OK)
 800111a:	f107 0308 	add.w	r3, r7, #8
 800111e:	2102      	movs	r1, #2
 8001120:	4618      	mov	r0, r3
 8001122:	f001 ff3d 	bl	8002fa0 <HAL_RCC_ClockConfig>
 8001126:	4603      	mov	r3, r0
 8001128:	2b00      	cmp	r3, #0
 800112a:	d001      	beq.n	8001130 <SystemClock_Config+0xc8>
  {
    Error_Handler();
 800112c:	f000 f946 	bl	80013bc <Error_Handler>
  }
}
 8001130:	bf00      	nop
 8001132:	3750      	adds	r7, #80	; 0x50
 8001134:	46bd      	mov	sp, r7
 8001136:	bd80      	pop	{r7, pc}
 8001138:	40023800 	.word	0x40023800
 800113c:	40007000 	.word	0x40007000

08001140 <MX_ADC1_Init>:
  * @brief ADC1 Initialization Function
  * @param None
  * @retval None
  */
static void MX_ADC1_Init(void)
{
 8001140:	b580      	push	{r7, lr}
 8001142:	b084      	sub	sp, #16
 8001144:	af00      	add	r7, sp, #0

  /* USER CODE BEGIN ADC1_Init 0 */

  /* USER CODE END ADC1_Init 0 */

  ADC_ChannelConfTypeDef sConfig = {0};
 8001146:	463b      	mov	r3, r7
 8001148:	2200      	movs	r2, #0
 800114a:	601a      	str	r2, [r3, #0]
 800114c:	605a      	str	r2, [r3, #4]
 800114e:	609a      	str	r2, [r3, #8]
 8001150:	60da      	str	r2, [r3, #12]
  /* USER CODE BEGIN ADC1_Init 1 */

  /* USER CODE END ADC1_Init 1 */
  /** Configure the global features of the ADC (Clock, Resolution, Data Alignment and number of conversion)
  */
  hadc1.Instance = ADC1;
 8001152:	4b21      	ldr	r3, [pc, #132]	; (80011d8 <MX_ADC1_Init+0x98>)
 8001154:	4a21      	ldr	r2, [pc, #132]	; (80011dc <MX_ADC1_Init+0x9c>)
 8001156:	601a      	str	r2, [r3, #0]
  hadc1.Init.ClockPrescaler = ADC_CLOCK_SYNC_PCLK_DIV8;
 8001158:	4b1f      	ldr	r3, [pc, #124]	; (80011d8 <MX_ADC1_Init+0x98>)
 800115a:	f44f 3240 	mov.w	r2, #196608	; 0x30000
 800115e:	605a      	str	r2, [r3, #4]
  hadc1.Init.Resolution = ADC_RESOLUTION_12B;
 8001160:	4b1d      	ldr	r3, [pc, #116]	; (80011d8 <MX_ADC1_Init+0x98>)
 8001162:	2200      	movs	r2, #0
 8001164:	609a      	str	r2, [r3, #8]
  hadc1.Init.ScanConvMode = DISABLE;
 8001166:	4b1c      	ldr	r3, [pc, #112]	; (80011d8 <MX_ADC1_Init+0x98>)
 8001168:	2200      	movs	r2, #0
 800116a:	611a      	str	r2, [r3, #16]
  hadc1.Init.ContinuousConvMode = DISABLE;
 800116c:	4b1a      	ldr	r3, [pc, #104]	; (80011d8 <MX_ADC1_Init+0x98>)
 800116e:	2200      	movs	r2, #0
 8001170:	761a      	strb	r2, [r3, #24]
  hadc1.Init.DiscontinuousConvMode = DISABLE;
 8001172:	4b19      	ldr	r3, [pc, #100]	; (80011d8 <MX_ADC1_Init+0x98>)
 8001174:	2200      	movs	r2, #0
 8001176:	f883 2020 	strb.w	r2, [r3, #32]
  hadc1.Init.ExternalTrigConvEdge = ADC_EXTERNALTRIGCONVEDGE_NONE;
 800117a:	4b17      	ldr	r3, [pc, #92]	; (80011d8 <MX_ADC1_Init+0x98>)
 800117c:	2200      	movs	r2, #0
 800117e:	62da      	str	r2, [r3, #44]	; 0x2c
  hadc1.Init.ExternalTrigConv = ADC_SOFTWARE_START;
 8001180:	4b15      	ldr	r3, [pc, #84]	; (80011d8 <MX_ADC1_Init+0x98>)
 8001182:	4a17      	ldr	r2, [pc, #92]	; (80011e0 <MX_ADC1_Init+0xa0>)
 8001184:	629a      	str	r2, [r3, #40]	; 0x28
  hadc1.Init.DataAlign = ADC_DATAALIGN_RIGHT;
 8001186:	4b14      	ldr	r3, [pc, #80]	; (80011d8 <MX_ADC1_Init+0x98>)
 8001188:	2200      	movs	r2, #0
 800118a:	60da      	str	r2, [r3, #12]
  hadc1.Init.NbrOfConversion = 1;
 800118c:	4b12      	ldr	r3, [pc, #72]	; (80011d8 <MX_ADC1_Init+0x98>)
 800118e:	2201      	movs	r2, #1
 8001190:	61da      	str	r2, [r3, #28]
  hadc1.Init.DMAContinuousRequests = DISABLE;
 8001192:	4b11      	ldr	r3, [pc, #68]	; (80011d8 <MX_ADC1_Init+0x98>)
 8001194:	2200      	movs	r2, #0
 8001196:	f883 2030 	strb.w	r2, [r3, #48]	; 0x30
  hadc1.Init.EOCSelection = ADC_EOC_SINGLE_CONV;
 800119a:	4b0f      	ldr	r3, [pc, #60]	; (80011d8 <MX_ADC1_Init+0x98>)
 800119c:	2201      	movs	r2, #1
 800119e:	615a      	str	r2, [r3, #20]
  if (HAL_ADC_Init(&hadc1) != HAL_OK)
 80011a0:	480d      	ldr	r0, [pc, #52]	; (80011d8 <MX_ADC1_Init+0x98>)
 80011a2:	f000 fc11 	bl	80019c8 <HAL_ADC_Init>
 80011a6:	4603      	mov	r3, r0
 80011a8:	2b00      	cmp	r3, #0
 80011aa:	d001      	beq.n	80011b0 <MX_ADC1_Init+0x70>
  {
    Error_Handler();
 80011ac:	f000 f906 	bl	80013bc <Error_Handler>
  }
  /** Configure for the selected ADC regular channel its corresponding rank in the sequencer and its sample time.
  */
  sConfig.Channel = ADC_CHANNEL_0;
 80011b0:	2300      	movs	r3, #0
 80011b2:	603b      	str	r3, [r7, #0]
  sConfig.Rank = 1;
 80011b4:	2301      	movs	r3, #1
 80011b6:	607b      	str	r3, [r7, #4]
  sConfig.SamplingTime = ADC_SAMPLETIME_480CYCLES;
 80011b8:	2307      	movs	r3, #7
 80011ba:	60bb      	str	r3, [r7, #8]
  if (HAL_ADC_ConfigChannel(&hadc1, &sConfig) != HAL_OK)
 80011bc:	463b      	mov	r3, r7
 80011be:	4619      	mov	r1, r3
 80011c0:	4805      	ldr	r0, [pc, #20]	; (80011d8 <MX_ADC1_Init+0x98>)
 80011c2:	f000 fde3 	bl	8001d8c <HAL_ADC_ConfigChannel>
 80011c6:	4603      	mov	r3, r0
 80011c8:	2b00      	cmp	r3, #0
 80011ca:	d001      	beq.n	80011d0 <MX_ADC1_Init+0x90>
  {
    Error_Handler();
 80011cc:	f000 f8f6 	bl	80013bc <Error_Handler>
  }
  /* USER CODE BEGIN ADC1_Init 2 */

  /* USER CODE END ADC1_Init 2 */

}
 80011d0:	bf00      	nop
 80011d2:	3710      	adds	r7, #16
 80011d4:	46bd      	mov	sp, r7
 80011d6:	bd80      	pop	{r7, pc}
 80011d8:	200002a4 	.word	0x200002a4
 80011dc:	40012000 	.word	0x40012000
 80011e0:	0f000001 	.word	0x0f000001

080011e4 <MX_USART2_UART_Init>:
  * @brief USART2 Initialization Function
  * @param None
  * @retval None
  */
static void MX_USART2_UART_Init(void)
{
 80011e4:	b580      	push	{r7, lr}
 80011e6:	af00      	add	r7, sp, #0
  /* USER CODE END USART2_Init 0 */

  /* USER CODE BEGIN USART2_Init 1 */

  /* USER CODE END USART2_Init 1 */
  huart2.Instance = USART2;
 80011e8:	4b11      	ldr	r3, [pc, #68]	; (8001230 <MX_USART2_UART_Init+0x4c>)
 80011ea:	4a12      	ldr	r2, [pc, #72]	; (8001234 <MX_USART2_UART_Init+0x50>)
 80011ec:	601a      	str	r2, [r3, #0]
  huart2.Init.BaudRate = 115200;
 80011ee:	4b10      	ldr	r3, [pc, #64]	; (8001230 <MX_USART2_UART_Init+0x4c>)
 80011f0:	f44f 32e1 	mov.w	r2, #115200	; 0x1c200
 80011f4:	605a      	str	r2, [r3, #4]
  huart2.Init.WordLength = UART_WORDLENGTH_8B;
 80011f6:	4b0e      	ldr	r3, [pc, #56]	; (8001230 <MX_USART2_UART_Init+0x4c>)
 80011f8:	2200      	movs	r2, #0
 80011fa:	609a      	str	r2, [r3, #8]
  huart2.Init.StopBits = UART_STOPBITS_1;
 80011fc:	4b0c      	ldr	r3, [pc, #48]	; (8001230 <MX_USART2_UART_Init+0x4c>)
 80011fe:	2200      	movs	r2, #0
 8001200:	60da      	str	r2, [r3, #12]
  huart2.Init.Parity = UART_PARITY_NONE;
 8001202:	4b0b      	ldr	r3, [pc, #44]	; (8001230 <MX_USART2_UART_Init+0x4c>)
 8001204:	2200      	movs	r2, #0
 8001206:	611a      	str	r2, [r3, #16]
  huart2.Init.Mode = UART_MODE_TX_RX;
 8001208:	4b09      	ldr	r3, [pc, #36]	; (8001230 <MX_USART2_UART_Init+0x4c>)
 800120a:	220c      	movs	r2, #12
 800120c:	615a      	str	r2, [r3, #20]
  huart2.Init.HwFlowCtl = UART_HWCONTROL_NONE;
 800120e:	4b08      	ldr	r3, [pc, #32]	; (8001230 <MX_USART2_UART_Init+0x4c>)
 8001210:	2200      	movs	r2, #0
 8001212:	619a      	str	r2, [r3, #24]
  huart2.Init.OverSampling = UART_OVERSAMPLING_16;
 8001214:	4b06      	ldr	r3, [pc, #24]	; (8001230 <MX_USART2_UART_Init+0x4c>)
 8001216:	2200      	movs	r2, #0
 8001218:	61da      	str	r2, [r3, #28]
  if (HAL_UART_Init(&huart2) != HAL_OK)
 800121a:	4805      	ldr	r0, [pc, #20]	; (8001230 <MX_USART2_UART_Init+0x4c>)
 800121c:	f002 fc2a 	bl	8003a74 <HAL_UART_Init>
 8001220:	4603      	mov	r3, r0
 8001222:	2b00      	cmp	r3, #0
 8001224:	d001      	beq.n	800122a <MX_USART2_UART_Init+0x46>
  {
    Error_Handler();
 8001226:	f000 f8c9 	bl	80013bc <Error_Handler>
  }
  /* USER CODE BEGIN USART2_Init 2 */

  /* USER CODE END USART2_Init 2 */

}
 800122a:	bf00      	nop
 800122c:	bd80      	pop	{r7, pc}
 800122e:	bf00      	nop
 8001230:	20000350 	.word	0x20000350
 8001234:	40004400 	.word	0x40004400

08001238 <MX_DMA_Init>:

/**
  * Enable DMA controller clock
  */
static void MX_DMA_Init(void)
{
 8001238:	b580      	push	{r7, lr}
 800123a:	b082      	sub	sp, #8
 800123c:	af00      	add	r7, sp, #0

  /* DMA controller clock enable */
  __HAL_RCC_DMA1_CLK_ENABLE();
 800123e:	2300      	movs	r3, #0
 8001240:	607b      	str	r3, [r7, #4]
 8001242:	4b10      	ldr	r3, [pc, #64]	; (8001284 <MX_DMA_Init+0x4c>)
 8001244:	6b1b      	ldr	r3, [r3, #48]	; 0x30
 8001246:	4a0f      	ldr	r2, [pc, #60]	; (8001284 <MX_DMA_Init+0x4c>)
 8001248:	f443 1300 	orr.w	r3, r3, #2097152	; 0x200000
 800124c:	6313      	str	r3, [r2, #48]	; 0x30
 800124e:	4b0d      	ldr	r3, [pc, #52]	; (8001284 <MX_DMA_Init+0x4c>)
 8001250:	6b1b      	ldr	r3, [r3, #48]	; 0x30
 8001252:	f403 1300 	and.w	r3, r3, #2097152	; 0x200000
 8001256:	607b      	str	r3, [r7, #4]
 8001258:	687b      	ldr	r3, [r7, #4]

  /* DMA interrupt init */
  /* DMA1_Stream5_IRQn interrupt configuration */
  HAL_NVIC_SetPriority(DMA1_Stream5_IRQn, 0, 0);
 800125a:	2200      	movs	r2, #0
 800125c:	2100      	movs	r1, #0
 800125e:	2010      	movs	r0, #16
 8001260:	f001 f89d 	bl	800239e <HAL_NVIC_SetPriority>
  HAL_NVIC_EnableIRQ(DMA1_Stream5_IRQn);
 8001264:	2010      	movs	r0, #16
 8001266:	f001 f8b6 	bl	80023d6 <HAL_NVIC_EnableIRQ>
  /* DMA1_Stream6_IRQn interrupt configuration */
  HAL_NVIC_SetPriority(DMA1_Stream6_IRQn, 0, 0);
 800126a:	2200      	movs	r2, #0
 800126c:	2100      	movs	r1, #0
 800126e:	2011      	movs	r0, #17
 8001270:	f001 f895 	bl	800239e <HAL_NVIC_SetPriority>
  HAL_NVIC_EnableIRQ(DMA1_Stream6_IRQn);
 8001274:	2011      	movs	r0, #17
 8001276:	f001 f8ae 	bl	80023d6 <HAL_NVIC_EnableIRQ>

}
 800127a:	bf00      	nop
 800127c:	3708      	adds	r7, #8
 800127e:	46bd      	mov	sp, r7
 8001280:	bd80      	pop	{r7, pc}
 8001282:	bf00      	nop
 8001284:	40023800 	.word	0x40023800

08001288 <MX_GPIO_Init>:
  * @brief GPIO Initialization Function
  * @param None
  * @retval None
  */
static void MX_GPIO_Init(void)
{
 8001288:	b580      	push	{r7, lr}
 800128a:	b08a      	sub	sp, #40	; 0x28
 800128c:	af00      	add	r7, sp, #0
  GPIO_InitTypeDef GPIO_InitStruct = {0};
 800128e:	f107 0314 	add.w	r3, r7, #20
 8001292:	2200      	movs	r2, #0
 8001294:	601a      	str	r2, [r3, #0]
 8001296:	605a      	str	r2, [r3, #4]
 8001298:	609a      	str	r2, [r3, #8]
 800129a:	60da      	str	r2, [r3, #12]
 800129c:	611a      	str	r2, [r3, #16]

  /* GPIO Ports Clock Enable */
  __HAL_RCC_GPIOC_CLK_ENABLE();
 800129e:	2300      	movs	r3, #0
 80012a0:	613b      	str	r3, [r7, #16]
 80012a2:	4b2d      	ldr	r3, [pc, #180]	; (8001358 <MX_GPIO_Init+0xd0>)
 80012a4:	6b1b      	ldr	r3, [r3, #48]	; 0x30
 80012a6:	4a2c      	ldr	r2, [pc, #176]	; (8001358 <MX_GPIO_Init+0xd0>)
 80012a8:	f043 0304 	orr.w	r3, r3, #4
 80012ac:	6313      	str	r3, [r2, #48]	; 0x30
 80012ae:	4b2a      	ldr	r3, [pc, #168]	; (8001358 <MX_GPIO_Init+0xd0>)
 80012b0:	6b1b      	ldr	r3, [r3, #48]	; 0x30
 80012b2:	f003 0304 	and.w	r3, r3, #4
 80012b6:	613b      	str	r3, [r7, #16]
 80012b8:	693b      	ldr	r3, [r7, #16]
  __HAL_RCC_GPIOH_CLK_ENABLE();
 80012ba:	2300      	movs	r3, #0
 80012bc:	60fb      	str	r3, [r7, #12]
 80012be:	4b26      	ldr	r3, [pc, #152]	; (8001358 <MX_GPIO_Init+0xd0>)
 80012c0:	6b1b      	ldr	r3, [r3, #48]	; 0x30
 80012c2:	4a25      	ldr	r2, [pc, #148]	; (8001358 <MX_GPIO_Init+0xd0>)
 80012c4:	f043 0380 	orr.w	r3, r3, #128	; 0x80
 80012c8:	6313      	str	r3, [r2, #48]	; 0x30
 80012ca:	4b23      	ldr	r3, [pc, #140]	; (8001358 <MX_GPIO_Init+0xd0>)
 80012cc:	6b1b      	ldr	r3, [r3, #48]	; 0x30
 80012ce:	f003 0380 	and.w	r3, r3, #128	; 0x80
 80012d2:	60fb      	str	r3, [r7, #12]
 80012d4:	68fb      	ldr	r3, [r7, #12]
  __HAL_RCC_GPIOA_CLK_ENABLE();
 80012d6:	2300      	movs	r3, #0
 80012d8:	60bb      	str	r3, [r7, #8]
 80012da:	4b1f      	ldr	r3, [pc, #124]	; (8001358 <MX_GPIO_Init+0xd0>)
 80012dc:	6b1b      	ldr	r3, [r3, #48]	; 0x30
 80012de:	4a1e      	ldr	r2, [pc, #120]	; (8001358 <MX_GPIO_Init+0xd0>)
 80012e0:	f043 0301 	orr.w	r3, r3, #1
 80012e4:	6313      	str	r3, [r2, #48]	; 0x30
 80012e6:	4b1c      	ldr	r3, [pc, #112]	; (8001358 <MX_GPIO_Init+0xd0>)
 80012e8:	6b1b      	ldr	r3, [r3, #48]	; 0x30
 80012ea:	f003 0301 	and.w	r3, r3, #1
 80012ee:	60bb      	str	r3, [r7, #8]
 80012f0:	68bb      	ldr	r3, [r7, #8]
  __HAL_RCC_GPIOB_CLK_ENABLE();
 80012f2:	2300      	movs	r3, #0
 80012f4:	607b      	str	r3, [r7, #4]
 80012f6:	4b18      	ldr	r3, [pc, #96]	; (8001358 <MX_GPIO_Init+0xd0>)
 80012f8:	6b1b      	ldr	r3, [r3, #48]	; 0x30
 80012fa:	4a17      	ldr	r2, [pc, #92]	; (8001358 <MX_GPIO_Init+0xd0>)
 80012fc:	f043 0302 	orr.w	r3, r3, #2
 8001300:	6313      	str	r3, [r2, #48]	; 0x30
 8001302:	4b15      	ldr	r3, [pc, #84]	; (8001358 <MX_GPIO_Init+0xd0>)
 8001304:	6b1b      	ldr	r3, [r3, #48]	; 0x30
 8001306:	f003 0302 	and.w	r3, r3, #2
 800130a:	607b      	str	r3, [r7, #4]
 800130c:	687b      	ldr	r3, [r7, #4]

  /*Configure GPIO pin Output Level */
  HAL_GPIO_WritePin(LD2_GPIO_Port, LD2_Pin, GPIO_PIN_RESET);
 800130e:	2200      	movs	r2, #0
 8001310:	2120      	movs	r1, #32
 8001312:	4812      	ldr	r0, [pc, #72]	; (800135c <MX_GPIO_Init+0xd4>)
 8001314:	f001 fe10 	bl	8002f38 <HAL_GPIO_WritePin>

  /*Configure GPIO pin : B1_Pin */
  GPIO_InitStruct.Pin = B1_Pin;
 8001318:	f44f 5300 	mov.w	r3, #8192	; 0x2000
 800131c:	617b      	str	r3, [r7, #20]
  GPIO_InitStruct.Mode = GPIO_MODE_IT_FALLING;
 800131e:	4b10      	ldr	r3, [pc, #64]	; (8001360 <MX_GPIO_Init+0xd8>)
 8001320:	61bb      	str	r3, [r7, #24]
  GPIO_InitStruct.Pull = GPIO_NOPULL;
 8001322:	2300      	movs	r3, #0
 8001324:	61fb      	str	r3, [r7, #28]
  HAL_GPIO_Init(B1_GPIO_Port, &GPIO_InitStruct);
 8001326:	f107 0314 	add.w	r3, r7, #20
 800132a:	4619      	mov	r1, r3
 800132c:	480d      	ldr	r0, [pc, #52]	; (8001364 <MX_GPIO_Init+0xdc>)
 800132e:	f001 fc6f 	bl	8002c10 <HAL_GPIO_Init>

  /*Configure GPIO pin : LD2_Pin */
  GPIO_InitStruct.Pin = LD2_Pin;
 8001332:	2320      	movs	r3, #32
 8001334:	617b      	str	r3, [r7, #20]
  GPIO_InitStruct.Mode = GPIO_MODE_OUTPUT_PP;
 8001336:	2301      	movs	r3, #1
 8001338:	61bb      	str	r3, [r7, #24]
  GPIO_InitStruct.Pull = GPIO_NOPULL;
 800133a:	2300      	movs	r3, #0
 800133c:	61fb      	str	r3, [r7, #28]
  GPIO_InitStruct.Speed = GPIO_SPEED_FREQ_LOW;
 800133e:	2300      	movs	r3, #0
 8001340:	623b      	str	r3, [r7, #32]
  HAL_GPIO_Init(LD2_GPIO_Port, &GPIO_InitStruct);
 8001342:	f107 0314 	add.w	r3, r7, #20
 8001346:	4619      	mov	r1, r3
 8001348:	4804      	ldr	r0, [pc, #16]	; (800135c <MX_GPIO_Init+0xd4>)
 800134a:	f001 fc61 	bl	8002c10 <HAL_GPIO_Init>

}
 800134e:	bf00      	nop
 8001350:	3728      	adds	r7, #40	; 0x28
 8001352:	46bd      	mov	sp, r7
 8001354:	bd80      	pop	{r7, pc}
 8001356:	bf00      	nop
 8001358:	40023800 	.word	0x40023800
 800135c:	40020000 	.word	0x40020000
 8001360:	10210000 	.word	0x10210000
 8001364:	40020800 	.word	0x40020800

08001368 <HAL_UART_RxCpltCallback>:

/* USER CODE BEGIN 4 */
void HAL_UART_RxCpltCallback(UART_HandleTypeDef *huart) {
 8001368:	b580      	push	{r7, lr}
 800136a:	b082      	sub	sp, #8
 800136c:	af00      	add	r7, sp, #0
 800136e:	6078      	str	r0, [r7, #4]

	static uint8_t Data[40]; // Tablica przechowujaca wysylana wiadomosc.


	sprintf(Data, "Odebrana wiadomosc: %s\n\r", Received);
 8001370:	4a0c      	ldr	r2, [pc, #48]	; (80013a4 <HAL_UART_RxCpltCallback+0x3c>)
 8001372:	490d      	ldr	r1, [pc, #52]	; (80013a8 <HAL_UART_RxCpltCallback+0x40>)
 8001374:	480d      	ldr	r0, [pc, #52]	; (80013ac <HAL_UART_RxCpltCallback+0x44>)
 8001376:	f004 f85d 	bl	8005434 <siprintf>
	HAL_UART_Transmit_DMA(&huart2, Data, 40); // Rozpoczecie nadawania danych z wykorzystaniem przerwan
 800137a:	2228      	movs	r2, #40	; 0x28
 800137c:	490b      	ldr	r1, [pc, #44]	; (80013ac <HAL_UART_RxCpltCallback+0x44>)
 800137e:	480c      	ldr	r0, [pc, #48]	; (80013b0 <HAL_UART_RxCpltCallback+0x48>)
 8001380:	f002 fc58 	bl	8003c34 <HAL_UART_Transmit_DMA>
	//if (Received == 'START')
	//{
	//	MeasurementStart = true;
	//	HAL_GPIO_WritePin(LD2_GPIO_Port, LD2_Pin, GPIO_PIN_SET);
	//}
	MeasurementStart = true;
 8001384:	4b0b      	ldr	r3, [pc, #44]	; (80013b4 <HAL_UART_RxCpltCallback+0x4c>)
 8001386:	2201      	movs	r2, #1
 8001388:	701a      	strb	r2, [r3, #0]
	HAL_UART_Receive_DMA(&huart2, Received, 5); // Ponowne wczenie nasuchiwania
 800138a:	2205      	movs	r2, #5
 800138c:	4905      	ldr	r1, [pc, #20]	; (80013a4 <HAL_UART_RxCpltCallback+0x3c>)
 800138e:	4808      	ldr	r0, [pc, #32]	; (80013b0 <HAL_UART_RxCpltCallback+0x48>)
 8001390:	f002 fcbc 	bl	8003d0c <HAL_UART_Receive_DMA>
	HAL_GPIO_TogglePin(LD2_GPIO_Port, LD2_Pin);
 8001394:	2120      	movs	r1, #32
 8001396:	4808      	ldr	r0, [pc, #32]	; (80013b8 <HAL_UART_RxCpltCallback+0x50>)
 8001398:	f001 fde7 	bl	8002f6a <HAL_GPIO_TogglePin>
}
 800139c:	bf00      	nop
 800139e:	3708      	adds	r7, #8
 80013a0:	46bd      	mov	sp, r7
 80013a2:	bd80      	pop	{r7, pc}
 80013a4:	20000234 	.word	0x20000234
 80013a8:	080078b4 	.word	0x080078b4
 80013ac:	20000200 	.word	0x20000200
 80013b0:	20000350 	.word	0x20000350
 80013b4:	200001fc 	.word	0x200001fc
 80013b8:	40020000 	.word	0x40020000

080013bc <Error_Handler>:
/**
  * @brief  This function is executed in case of error occurrence.
  * @retval None
  */
void Error_Handler(void)
{
 80013bc:	b480      	push	{r7}
 80013be:	af00      	add	r7, sp, #0
  \details Disables IRQ interrupts by setting the I-bit in the CPSR.
           Can only be executed in Privileged modes.
 */
__STATIC_FORCEINLINE void __disable_irq(void)
{
  __ASM volatile ("cpsid i" : : : "memory");
 80013c0:	b672      	cpsid	i
}
 80013c2:	bf00      	nop
  /* USER CODE BEGIN Error_Handler_Debug */
  /* User can add his own implementation to report the HAL error return state */
  __disable_irq();
  while (1)
 80013c4:	e7fe      	b.n	80013c4 <Error_Handler+0x8>
	...

080013c8 <HAL_MspInit>:
/* USER CODE END 0 */
/**
  * Initializes the Global MSP.
  */
void HAL_MspInit(void)
{
 80013c8:	b580      	push	{r7, lr}
 80013ca:	b082      	sub	sp, #8
 80013cc:	af00      	add	r7, sp, #0
  /* USER CODE BEGIN MspInit 0 */

  /* USER CODE END MspInit 0 */

  __HAL_RCC_SYSCFG_CLK_ENABLE();
 80013ce:	2300      	movs	r3, #0
 80013d0:	607b      	str	r3, [r7, #4]
 80013d2:	4b10      	ldr	r3, [pc, #64]	; (8001414 <HAL_MspInit+0x4c>)
 80013d4:	6c5b      	ldr	r3, [r3, #68]	; 0x44
 80013d6:	4a0f      	ldr	r2, [pc, #60]	; (8001414 <HAL_MspInit+0x4c>)
 80013d8:	f443 4380 	orr.w	r3, r3, #16384	; 0x4000
 80013dc:	6453      	str	r3, [r2, #68]	; 0x44
 80013de:	4b0d      	ldr	r3, [pc, #52]	; (8001414 <HAL_MspInit+0x4c>)
 80013e0:	6c5b      	ldr	r3, [r3, #68]	; 0x44
 80013e2:	f403 4380 	and.w	r3, r3, #16384	; 0x4000
 80013e6:	607b      	str	r3, [r7, #4]
 80013e8:	687b      	ldr	r3, [r7, #4]
  __HAL_RCC_PWR_CLK_ENABLE();
 80013ea:	2300      	movs	r3, #0
 80013ec:	603b      	str	r3, [r7, #0]
 80013ee:	4b09      	ldr	r3, [pc, #36]	; (8001414 <HAL_MspInit+0x4c>)
 80013f0:	6c1b      	ldr	r3, [r3, #64]	; 0x40
 80013f2:	4a08      	ldr	r2, [pc, #32]	; (8001414 <HAL_MspInit+0x4c>)
 80013f4:	f043 5380 	orr.w	r3, r3, #268435456	; 0x10000000
 80013f8:	6413      	str	r3, [r2, #64]	; 0x40
 80013fa:	4b06      	ldr	r3, [pc, #24]	; (8001414 <HAL_MspInit+0x4c>)
 80013fc:	6c1b      	ldr	r3, [r3, #64]	; 0x40
 80013fe:	f003 5380 	and.w	r3, r3, #268435456	; 0x10000000
 8001402:	603b      	str	r3, [r7, #0]
 8001404:	683b      	ldr	r3, [r7, #0]

  HAL_NVIC_SetPriorityGrouping(NVIC_PRIORITYGROUP_0);
 8001406:	2007      	movs	r0, #7
 8001408:	f000 ffbe 	bl	8002388 <HAL_NVIC_SetPriorityGrouping>
  /* System interrupt init*/

  /* USER CODE BEGIN MspInit 1 */

  /* USER CODE END MspInit 1 */
}
 800140c:	bf00      	nop
 800140e:	3708      	adds	r7, #8
 8001410:	46bd      	mov	sp, r7
 8001412:	bd80      	pop	{r7, pc}
 8001414:	40023800 	.word	0x40023800

08001418 <HAL_ADC_MspInit>:
* This function configures the hardware resources used in this example
* @param hadc: ADC handle pointer
* @retval None
*/
void HAL_ADC_MspInit(ADC_HandleTypeDef* hadc)
{
 8001418:	b580      	push	{r7, lr}
 800141a:	b08a      	sub	sp, #40	; 0x28
 800141c:	af00      	add	r7, sp, #0
 800141e:	6078      	str	r0, [r7, #4]
  GPIO_InitTypeDef GPIO_InitStruct = {0};
 8001420:	f107 0314 	add.w	r3, r7, #20
 8001424:	2200      	movs	r2, #0
 8001426:	601a      	str	r2, [r3, #0]
 8001428:	605a      	str	r2, [r3, #4]
 800142a:	609a      	str	r2, [r3, #8]
 800142c:	60da      	str	r2, [r3, #12]
 800142e:	611a      	str	r2, [r3, #16]
  if(hadc->Instance==ADC1)
 8001430:	687b      	ldr	r3, [r7, #4]
 8001432:	681b      	ldr	r3, [r3, #0]
 8001434:	4a17      	ldr	r2, [pc, #92]	; (8001494 <HAL_ADC_MspInit+0x7c>)
 8001436:	4293      	cmp	r3, r2
 8001438:	d127      	bne.n	800148a <HAL_ADC_MspInit+0x72>
  {
  /* USER CODE BEGIN ADC1_MspInit 0 */

  /* USER CODE END ADC1_MspInit 0 */
    /* Peripheral clock enable */
    __HAL_RCC_ADC1_CLK_ENABLE();
 800143a:	2300      	movs	r3, #0
 800143c:	613b      	str	r3, [r7, #16]
 800143e:	4b16      	ldr	r3, [pc, #88]	; (8001498 <HAL_ADC_MspInit+0x80>)
 8001440:	6c5b      	ldr	r3, [r3, #68]	; 0x44
 8001442:	4a15      	ldr	r2, [pc, #84]	; (8001498 <HAL_ADC_MspInit+0x80>)
 8001444:	f443 7380 	orr.w	r3, r3, #256	; 0x100
 8001448:	6453      	str	r3, [r2, #68]	; 0x44
 800144a:	4b13      	ldr	r3, [pc, #76]	; (8001498 <HAL_ADC_MspInit+0x80>)
 800144c:	6c5b      	ldr	r3, [r3, #68]	; 0x44
 800144e:	f403 7380 	and.w	r3, r3, #256	; 0x100
 8001452:	613b      	str	r3, [r7, #16]
 8001454:	693b      	ldr	r3, [r7, #16]

    __HAL_RCC_GPIOA_CLK_ENABLE();
 8001456:	2300      	movs	r3, #0
 8001458:	60fb      	str	r3, [r7, #12]
 800145a:	4b0f      	ldr	r3, [pc, #60]	; (8001498 <HAL_ADC_MspInit+0x80>)
 800145c:	6b1b      	ldr	r3, [r3, #48]	; 0x30
 800145e:	4a0e      	ldr	r2, [pc, #56]	; (8001498 <HAL_ADC_MspInit+0x80>)
 8001460:	f043 0301 	orr.w	r3, r3, #1
 8001464:	6313      	str	r3, [r2, #48]	; 0x30
 8001466:	4b0c      	ldr	r3, [pc, #48]	; (8001498 <HAL_ADC_MspInit+0x80>)
 8001468:	6b1b      	ldr	r3, [r3, #48]	; 0x30
 800146a:	f003 0301 	and.w	r3, r3, #1
 800146e:	60fb      	str	r3, [r7, #12]
 8001470:	68fb      	ldr	r3, [r7, #12]
    /**ADC1 GPIO Configuration
    PA0-WKUP     ------> ADC1_IN0
    */
    GPIO_InitStruct.Pin = GPIO_PIN_0;
 8001472:	2301      	movs	r3, #1
 8001474:	617b      	str	r3, [r7, #20]
    GPIO_InitStruct.Mode = GPIO_MODE_ANALOG;
 8001476:	2303      	movs	r3, #3
 8001478:	61bb      	str	r3, [r7, #24]
    GPIO_InitStruct.Pull = GPIO_NOPULL;
 800147a:	2300      	movs	r3, #0
 800147c:	61fb      	str	r3, [r7, #28]
    HAL_GPIO_Init(GPIOA, &GPIO_InitStruct);
 800147e:	f107 0314 	add.w	r3, r7, #20
 8001482:	4619      	mov	r1, r3
 8001484:	4805      	ldr	r0, [pc, #20]	; (800149c <HAL_ADC_MspInit+0x84>)
 8001486:	f001 fbc3 	bl	8002c10 <HAL_GPIO_Init>
  /* USER CODE BEGIN ADC1_MspInit 1 */

  /* USER CODE END ADC1_MspInit 1 */
  }

}
 800148a:	bf00      	nop
 800148c:	3728      	adds	r7, #40	; 0x28
 800148e:	46bd      	mov	sp, r7
 8001490:	bd80      	pop	{r7, pc}
 8001492:	bf00      	nop
 8001494:	40012000 	.word	0x40012000
 8001498:	40023800 	.word	0x40023800
 800149c:	40020000 	.word	0x40020000

080014a0 <HAL_UART_MspInit>:
* This function configures the hardware resources used in this example
* @param huart: UART handle pointer
* @retval None
*/
void HAL_UART_MspInit(UART_HandleTypeDef* huart)
{
 80014a0:	b580      	push	{r7, lr}
 80014a2:	b08a      	sub	sp, #40	; 0x28
 80014a4:	af00      	add	r7, sp, #0
 80014a6:	6078      	str	r0, [r7, #4]
  GPIO_InitTypeDef GPIO_InitStruct = {0};
 80014a8:	f107 0314 	add.w	r3, r7, #20
 80014ac:	2200      	movs	r2, #0
 80014ae:	601a      	str	r2, [r3, #0]
 80014b0:	605a      	str	r2, [r3, #4]
 80014b2:	609a      	str	r2, [r3, #8]
 80014b4:	60da      	str	r2, [r3, #12]
 80014b6:	611a      	str	r2, [r3, #16]
  if(huart->Instance==USART2)
 80014b8:	687b      	ldr	r3, [r7, #4]
 80014ba:	681b      	ldr	r3, [r3, #0]
 80014bc:	4a4b      	ldr	r2, [pc, #300]	; (80015ec <HAL_UART_MspInit+0x14c>)
 80014be:	4293      	cmp	r3, r2
 80014c0:	f040 8090 	bne.w	80015e4 <HAL_UART_MspInit+0x144>
  {
  /* USER CODE BEGIN USART2_MspInit 0 */

  /* USER CODE END USART2_MspInit 0 */
    /* Peripheral clock enable */
    __HAL_RCC_USART2_CLK_ENABLE();
 80014c4:	2300      	movs	r3, #0
 80014c6:	613b      	str	r3, [r7, #16]
 80014c8:	4b49      	ldr	r3, [pc, #292]	; (80015f0 <HAL_UART_MspInit+0x150>)
 80014ca:	6c1b      	ldr	r3, [r3, #64]	; 0x40
 80014cc:	4a48      	ldr	r2, [pc, #288]	; (80015f0 <HAL_UART_MspInit+0x150>)
 80014ce:	f443 3300 	orr.w	r3, r3, #131072	; 0x20000
 80014d2:	6413      	str	r3, [r2, #64]	; 0x40
 80014d4:	4b46      	ldr	r3, [pc, #280]	; (80015f0 <HAL_UART_MspInit+0x150>)
 80014d6:	6c1b      	ldr	r3, [r3, #64]	; 0x40
 80014d8:	f403 3300 	and.w	r3, r3, #131072	; 0x20000
 80014dc:	613b      	str	r3, [r7, #16]
 80014de:	693b      	ldr	r3, [r7, #16]

    __HAL_RCC_GPIOA_CLK_ENABLE();
 80014e0:	2300      	movs	r3, #0
 80014e2:	60fb      	str	r3, [r7, #12]
 80014e4:	4b42      	ldr	r3, [pc, #264]	; (80015f0 <HAL_UART_MspInit+0x150>)
 80014e6:	6b1b      	ldr	r3, [r3, #48]	; 0x30
 80014e8:	4a41      	ldr	r2, [pc, #260]	; (80015f0 <HAL_UART_MspInit+0x150>)
 80014ea:	f043 0301 	orr.w	r3, r3, #1
 80014ee:	6313      	str	r3, [r2, #48]	; 0x30
 80014f0:	4b3f      	ldr	r3, [pc, #252]	; (80015f0 <HAL_UART_MspInit+0x150>)
 80014f2:	6b1b      	ldr	r3, [r3, #48]	; 0x30
 80014f4:	f003 0301 	and.w	r3, r3, #1
 80014f8:	60fb      	str	r3, [r7, #12]
 80014fa:	68fb      	ldr	r3, [r7, #12]
    /**USART2 GPIO Configuration
    PA2     ------> USART2_TX
    PA3     ------> USART2_RX
    */
    GPIO_InitStruct.Pin = USART_TX_Pin|USART_RX_Pin;
 80014fc:	230c      	movs	r3, #12
 80014fe:	617b      	str	r3, [r7, #20]
    GPIO_InitStruct.Mode = GPIO_MODE_AF_PP;
 8001500:	2302      	movs	r3, #2
 8001502:	61bb      	str	r3, [r7, #24]
    GPIO_InitStruct.Pull = GPIO_NOPULL;
 8001504:	2300      	movs	r3, #0
 8001506:	61fb      	str	r3, [r7, #28]
    GPIO_InitStruct.Speed = GPIO_SPEED_FREQ_VERY_HIGH;
 8001508:	2303      	movs	r3, #3
 800150a:	623b      	str	r3, [r7, #32]
    GPIO_InitStruct.Alternate = GPIO_AF7_USART2;
 800150c:	2307      	movs	r3, #7
 800150e:	627b      	str	r3, [r7, #36]	; 0x24
    HAL_GPIO_Init(GPIOA, &GPIO_InitStruct);
 8001510:	f107 0314 	add.w	r3, r7, #20
 8001514:	4619      	mov	r1, r3
 8001516:	4837      	ldr	r0, [pc, #220]	; (80015f4 <HAL_UART_MspInit+0x154>)
 8001518:	f001 fb7a 	bl	8002c10 <HAL_GPIO_Init>

    /* USART2 DMA Init */
    /* USART2_RX Init */
    hdma_usart2_rx.Instance = DMA1_Stream5;
 800151c:	4b36      	ldr	r3, [pc, #216]	; (80015f8 <HAL_UART_MspInit+0x158>)
 800151e:	4a37      	ldr	r2, [pc, #220]	; (80015fc <HAL_UART_MspInit+0x15c>)
 8001520:	601a      	str	r2, [r3, #0]
    hdma_usart2_rx.Init.Channel = DMA_CHANNEL_4;
 8001522:	4b35      	ldr	r3, [pc, #212]	; (80015f8 <HAL_UART_MspInit+0x158>)
 8001524:	f04f 6200 	mov.w	r2, #134217728	; 0x8000000
 8001528:	605a      	str	r2, [r3, #4]
    hdma_usart2_rx.Init.Direction = DMA_PERIPH_TO_MEMORY;
 800152a:	4b33      	ldr	r3, [pc, #204]	; (80015f8 <HAL_UART_MspInit+0x158>)
 800152c:	2200      	movs	r2, #0
 800152e:	609a      	str	r2, [r3, #8]
    hdma_usart2_rx.Init.PeriphInc = DMA_PINC_DISABLE;
 8001530:	4b31      	ldr	r3, [pc, #196]	; (80015f8 <HAL_UART_MspInit+0x158>)
 8001532:	2200      	movs	r2, #0
 8001534:	60da      	str	r2, [r3, #12]
    hdma_usart2_rx.Init.MemInc = DMA_MINC_ENABLE;
 8001536:	4b30      	ldr	r3, [pc, #192]	; (80015f8 <HAL_UART_MspInit+0x158>)
 8001538:	f44f 6280 	mov.w	r2, #1024	; 0x400
 800153c:	611a      	str	r2, [r3, #16]
    hdma_usart2_rx.Init.PeriphDataAlignment = DMA_PDATAALIGN_BYTE;
 800153e:	4b2e      	ldr	r3, [pc, #184]	; (80015f8 <HAL_UART_MspInit+0x158>)
 8001540:	2200      	movs	r2, #0
 8001542:	615a      	str	r2, [r3, #20]
    hdma_usart2_rx.Init.MemDataAlignment = DMA_MDATAALIGN_BYTE;
 8001544:	4b2c      	ldr	r3, [pc, #176]	; (80015f8 <HAL_UART_MspInit+0x158>)
 8001546:	2200      	movs	r2, #0
 8001548:	619a      	str	r2, [r3, #24]
    hdma_usart2_rx.Init.Mode = DMA_NORMAL;
 800154a:	4b2b      	ldr	r3, [pc, #172]	; (80015f8 <HAL_UART_MspInit+0x158>)
 800154c:	2200      	movs	r2, #0
 800154e:	61da      	str	r2, [r3, #28]
    hdma_usart2_rx.Init.Priority = DMA_PRIORITY_LOW;
 8001550:	4b29      	ldr	r3, [pc, #164]	; (80015f8 <HAL_UART_MspInit+0x158>)
 8001552:	2200      	movs	r2, #0
 8001554:	621a      	str	r2, [r3, #32]
    hdma_usart2_rx.Init.FIFOMode = DMA_FIFOMODE_DISABLE;
 8001556:	4b28      	ldr	r3, [pc, #160]	; (80015f8 <HAL_UART_MspInit+0x158>)
 8001558:	2200      	movs	r2, #0
 800155a:	625a      	str	r2, [r3, #36]	; 0x24
    if (HAL_DMA_Init(&hdma_usart2_rx) != HAL_OK)
 800155c:	4826      	ldr	r0, [pc, #152]	; (80015f8 <HAL_UART_MspInit+0x158>)
 800155e:	f000 ff55 	bl	800240c <HAL_DMA_Init>
 8001562:	4603      	mov	r3, r0
 8001564:	2b00      	cmp	r3, #0
 8001566:	d001      	beq.n	800156c <HAL_UART_MspInit+0xcc>
    {
      Error_Handler();
 8001568:	f7ff ff28 	bl	80013bc <Error_Handler>
    }

    __HAL_LINKDMA(huart,hdmarx,hdma_usart2_rx);
 800156c:	687b      	ldr	r3, [r7, #4]
 800156e:	4a22      	ldr	r2, [pc, #136]	; (80015f8 <HAL_UART_MspInit+0x158>)
 8001570:	639a      	str	r2, [r3, #56]	; 0x38
 8001572:	4a21      	ldr	r2, [pc, #132]	; (80015f8 <HAL_UART_MspInit+0x158>)
 8001574:	687b      	ldr	r3, [r7, #4]
 8001576:	6393      	str	r3, [r2, #56]	; 0x38

    /* USART2_TX Init */
    hdma_usart2_tx.Instance = DMA1_Stream6;
 8001578:	4b21      	ldr	r3, [pc, #132]	; (8001600 <HAL_UART_MspInit+0x160>)
 800157a:	4a22      	ldr	r2, [pc, #136]	; (8001604 <HAL_UART_MspInit+0x164>)
 800157c:	601a      	str	r2, [r3, #0]
    hdma_usart2_tx.Init.Channel = DMA_CHANNEL_4;
 800157e:	4b20      	ldr	r3, [pc, #128]	; (8001600 <HAL_UART_MspInit+0x160>)
 8001580:	f04f 6200 	mov.w	r2, #134217728	; 0x8000000
 8001584:	605a      	str	r2, [r3, #4]
    hdma_usart2_tx.Init.Direction = DMA_MEMORY_TO_PERIPH;
 8001586:	4b1e      	ldr	r3, [pc, #120]	; (8001600 <HAL_UART_MspInit+0x160>)
 8001588:	2240      	movs	r2, #64	; 0x40
 800158a:	609a      	str	r2, [r3, #8]
    hdma_usart2_tx.Init.PeriphInc = DMA_PINC_DISABLE;
 800158c:	4b1c      	ldr	r3, [pc, #112]	; (8001600 <HAL_UART_MspInit+0x160>)
 800158e:	2200      	movs	r2, #0
 8001590:	60da      	str	r2, [r3, #12]
    hdma_usart2_tx.Init.MemInc = DMA_MINC_ENABLE;
 8001592:	4b1b      	ldr	r3, [pc, #108]	; (8001600 <HAL_UART_MspInit+0x160>)
 8001594:	f44f 6280 	mov.w	r2, #1024	; 0x400
 8001598:	611a      	str	r2, [r3, #16]
    hdma_usart2_tx.Init.PeriphDataAlignment = DMA_PDATAALIGN_BYTE;
 800159a:	4b19      	ldr	r3, [pc, #100]	; (8001600 <HAL_UART_MspInit+0x160>)
 800159c:	2200      	movs	r2, #0
 800159e:	615a      	str	r2, [r3, #20]
    hdma_usart2_tx.Init.MemDataAlignment = DMA_MDATAALIGN_BYTE;
 80015a0:	4b17      	ldr	r3, [pc, #92]	; (8001600 <HAL_UART_MspInit+0x160>)
 80015a2:	2200      	movs	r2, #0
 80015a4:	619a      	str	r2, [r3, #24]
    hdma_usart2_tx.Init.Mode = DMA_NORMAL;
 80015a6:	4b16      	ldr	r3, [pc, #88]	; (8001600 <HAL_UART_MspInit+0x160>)
 80015a8:	2200      	movs	r2, #0
 80015aa:	61da      	str	r2, [r3, #28]
    hdma_usart2_tx.Init.Priority = DMA_PRIORITY_LOW;
 80015ac:	4b14      	ldr	r3, [pc, #80]	; (8001600 <HAL_UART_MspInit+0x160>)
 80015ae:	2200      	movs	r2, #0
 80015b0:	621a      	str	r2, [r3, #32]
    hdma_usart2_tx.Init.FIFOMode = DMA_FIFOMODE_DISABLE;
 80015b2:	4b13      	ldr	r3, [pc, #76]	; (8001600 <HAL_UART_MspInit+0x160>)
 80015b4:	2200      	movs	r2, #0
 80015b6:	625a      	str	r2, [r3, #36]	; 0x24
    if (HAL_DMA_Init(&hdma_usart2_tx) != HAL_OK)
 80015b8:	4811      	ldr	r0, [pc, #68]	; (8001600 <HAL_UART_MspInit+0x160>)
 80015ba:	f000 ff27 	bl	800240c <HAL_DMA_Init>
 80015be:	4603      	mov	r3, r0
 80015c0:	2b00      	cmp	r3, #0
 80015c2:	d001      	beq.n	80015c8 <HAL_UART_MspInit+0x128>
    {
      Error_Handler();
 80015c4:	f7ff fefa 	bl	80013bc <Error_Handler>
    }

    __HAL_LINKDMA(huart,hdmatx,hdma_usart2_tx);
 80015c8:	687b      	ldr	r3, [r7, #4]
 80015ca:	4a0d      	ldr	r2, [pc, #52]	; (8001600 <HAL_UART_MspInit+0x160>)
 80015cc:	635a      	str	r2, [r3, #52]	; 0x34
 80015ce:	4a0c      	ldr	r2, [pc, #48]	; (8001600 <HAL_UART_MspInit+0x160>)
 80015d0:	687b      	ldr	r3, [r7, #4]
 80015d2:	6393      	str	r3, [r2, #56]	; 0x38

    /* USART2 interrupt Init */
    HAL_NVIC_SetPriority(USART2_IRQn, 0, 0);
 80015d4:	2200      	movs	r2, #0
 80015d6:	2100      	movs	r1, #0
 80015d8:	2026      	movs	r0, #38	; 0x26
 80015da:	f000 fee0 	bl	800239e <HAL_NVIC_SetPriority>
    HAL_NVIC_EnableIRQ(USART2_IRQn);
 80015de:	2026      	movs	r0, #38	; 0x26
 80015e0:	f000 fef9 	bl	80023d6 <HAL_NVIC_EnableIRQ>
  /* USER CODE BEGIN USART2_MspInit 1 */

  /* USER CODE END USART2_MspInit 1 */
  }

}
 80015e4:	bf00      	nop
 80015e6:	3728      	adds	r7, #40	; 0x28
 80015e8:	46bd      	mov	sp, r7
 80015ea:	bd80      	pop	{r7, pc}
 80015ec:	40004400 	.word	0x40004400
 80015f0:	40023800 	.word	0x40023800
 80015f4:	40020000 	.word	0x40020000
 80015f8:	2000023c 	.word	0x2000023c
 80015fc:	40026088 	.word	0x40026088
 8001600:	200002f0 	.word	0x200002f0
 8001604:	400260a0 	.word	0x400260a0

08001608 <NMI_Handler>:
/******************************************************************************/
/**
  * @brief This function handles Non maskable interrupt.
  */
void NMI_Handler(void)
{
 8001608:	b480      	push	{r7}
 800160a:	af00      	add	r7, sp, #0
  /* USER CODE BEGIN NonMaskableInt_IRQn 0 */

  /* USER CODE END NonMaskableInt_IRQn 0 */
  /* USER CODE BEGIN NonMaskableInt_IRQn 1 */
  while (1)
 800160c:	e7fe      	b.n	800160c <NMI_Handler+0x4>

0800160e <HardFault_Handler>:

/**
  * @brief This function handles Hard fault interrupt.
  */
void HardFault_Handler(void)
{
 800160e:	b480      	push	{r7}
 8001610:	af00      	add	r7, sp, #0
  /* USER CODE BEGIN HardFault_IRQn 0 */

  /* USER CODE END HardFault_IRQn 0 */
  while (1)
 8001612:	e7fe      	b.n	8001612 <HardFault_Handler+0x4>

08001614 <MemManage_Handler>:

/**
  * @brief This function handles Memory management fault.
  */
void MemManage_Handler(void)
{
 8001614:	b480      	push	{r7}
 8001616:	af00      	add	r7, sp, #0
  /* USER CODE BEGIN MemoryManagement_IRQn 0 */

  /* USER CODE END MemoryManagement_IRQn 0 */
  while (1)
 8001618:	e7fe      	b.n	8001618 <MemManage_Handler+0x4>

0800161a <BusFault_Handler>:

/**
  * @brief This function handles Pre-fetch fault, memory access fault.
  */
void BusFault_Handler(void)
{
 800161a:	b480      	push	{r7}
 800161c:	af00      	add	r7, sp, #0
  /* USER CODE BEGIN BusFault_IRQn 0 */

  /* USER CODE END BusFault_IRQn 0 */
  while (1)
 800161e:	e7fe      	b.n	800161e <BusFault_Handler+0x4>

08001620 <UsageFault_Handler>:

/**
  * @brief This function handles Undefined instruction or illegal state.
  */
void UsageFault_Handler(void)
{
 8001620:	b480      	push	{r7}
 8001622:	af00      	add	r7, sp, #0
  /* USER CODE BEGIN UsageFault_IRQn 0 */

  /* USER CODE END UsageFault_IRQn 0 */
  while (1)
 8001624:	e7fe      	b.n	8001624 <UsageFault_Handler+0x4>

08001626 <SVC_Handler>:

/**
  * @brief This function handles System service call via SWI instruction.
  */
void SVC_Handler(void)
{
 8001626:	b480      	push	{r7}
 8001628:	af00      	add	r7, sp, #0

  /* USER CODE END SVCall_IRQn 0 */
  /* USER CODE BEGIN SVCall_IRQn 1 */

  /* USER CODE END SVCall_IRQn 1 */
}
 800162a:	bf00      	nop
 800162c:	46bd      	mov	sp, r7
 800162e:	f85d 7b04 	ldr.w	r7, [sp], #4
 8001632:	4770      	bx	lr

08001634 <DebugMon_Handler>:

/**
  * @brief This function handles Debug monitor.
  */
void DebugMon_Handler(void)
{
 8001634:	b480      	push	{r7}
 8001636:	af00      	add	r7, sp, #0

  /* USER CODE END DebugMonitor_IRQn 0 */
  /* USER CODE BEGIN DebugMonitor_IRQn 1 */

  /* USER CODE END DebugMonitor_IRQn 1 */
}
 8001638:	bf00      	nop
 800163a:	46bd      	mov	sp, r7
 800163c:	f85d 7b04 	ldr.w	r7, [sp], #4
 8001640:	4770      	bx	lr

08001642 <PendSV_Handler>:

/**
  * @brief This function handles Pendable request for system service.
  */
void PendSV_Handler(void)
{
 8001642:	b480      	push	{r7}
 8001644:	af00      	add	r7, sp, #0

  /* USER CODE END PendSV_IRQn 0 */
  /* USER CODE BEGIN PendSV_IRQn 1 */

  /* USER CODE END PendSV_IRQn 1 */
}
 8001646:	bf00      	nop
 8001648:	46bd      	mov	sp, r7
 800164a:	f85d 7b04 	ldr.w	r7, [sp], #4
 800164e:	4770      	bx	lr

08001650 <SysTick_Handler>:

/**
  * @brief This function handles System tick timer.
  */
void SysTick_Handler(void)
{
 8001650:	b580      	push	{r7, lr}
 8001652:	af00      	add	r7, sp, #0
  /* USER CODE BEGIN SysTick_IRQn 0 */

  /* USER CODE END SysTick_IRQn 0 */
  HAL_IncTick();
 8001654:	f000 f974 	bl	8001940 <HAL_IncTick>
  /* USER CODE BEGIN SysTick_IRQn 1 */

  /* USER CODE END SysTick_IRQn 1 */
}
 8001658:	bf00      	nop
 800165a:	bd80      	pop	{r7, pc}

0800165c <DMA1_Stream5_IRQHandler>:

/**
  * @brief This function handles DMA1 stream5 global interrupt.
  */
void DMA1_Stream5_IRQHandler(void)
{
 800165c:	b580      	push	{r7, lr}
 800165e:	af00      	add	r7, sp, #0
  /* USER CODE BEGIN DMA1_Stream5_IRQn 0 */

  /* USER CODE END DMA1_Stream5_IRQn 0 */
  HAL_DMA_IRQHandler(&hdma_usart2_rx);
 8001660:	4802      	ldr	r0, [pc, #8]	; (800166c <DMA1_Stream5_IRQHandler+0x10>)
 8001662:	f001 f86b 	bl	800273c <HAL_DMA_IRQHandler>
  /* USER CODE BEGIN DMA1_Stream5_IRQn 1 */

  /* USER CODE END DMA1_Stream5_IRQn 1 */
}
 8001666:	bf00      	nop
 8001668:	bd80      	pop	{r7, pc}
 800166a:	bf00      	nop
 800166c:	2000023c 	.word	0x2000023c

08001670 <DMA1_Stream6_IRQHandler>:

/**
  * @brief This function handles DMA1 stream6 global interrupt.
  */
void DMA1_Stream6_IRQHandler(void)
{
 8001670:	b580      	push	{r7, lr}
 8001672:	af00      	add	r7, sp, #0
  /* USER CODE BEGIN DMA1_Stream6_IRQn 0 */

  /* USER CODE END DMA1_Stream6_IRQn 0 */
  HAL_DMA_IRQHandler(&hdma_usart2_tx);
 8001674:	4802      	ldr	r0, [pc, #8]	; (8001680 <DMA1_Stream6_IRQHandler+0x10>)
 8001676:	f001 f861 	bl	800273c <HAL_DMA_IRQHandler>
  /* USER CODE BEGIN DMA1_Stream6_IRQn 1 */

  /* USER CODE END DMA1_Stream6_IRQn 1 */
}
 800167a:	bf00      	nop
 800167c:	bd80      	pop	{r7, pc}
 800167e:	bf00      	nop
 8001680:	200002f0 	.word	0x200002f0

08001684 <USART2_IRQHandler>:

/**
  * @brief This function handles USART2 global interrupt.
  */
void USART2_IRQHandler(void)
{
 8001684:	b580      	push	{r7, lr}
 8001686:	af00      	add	r7, sp, #0
  /* USER CODE BEGIN USART2_IRQn 0 */

  /* USER CODE END USART2_IRQn 0 */
  HAL_UART_IRQHandler(&huart2);
 8001688:	4802      	ldr	r0, [pc, #8]	; (8001694 <USART2_IRQHandler+0x10>)
 800168a:	f002 fb6f 	bl	8003d6c <HAL_UART_IRQHandler>
  /* USER CODE BEGIN USART2_IRQn 1 */

  /* USER CODE END USART2_IRQn 1 */
}
 800168e:	bf00      	nop
 8001690:	bd80      	pop	{r7, pc}
 8001692:	bf00      	nop
 8001694:	20000350 	.word	0x20000350

08001698 <_getpid>:
void initialise_monitor_handles()
{
}

int _getpid(void)
{
 8001698:	b480      	push	{r7}
 800169a:	af00      	add	r7, sp, #0
	return 1;
 800169c:	2301      	movs	r3, #1
}
 800169e:	4618      	mov	r0, r3
 80016a0:	46bd      	mov	sp, r7
 80016a2:	f85d 7b04 	ldr.w	r7, [sp], #4
 80016a6:	4770      	bx	lr

080016a8 <_kill>:

int _kill(int pid, int sig)
{
 80016a8:	b580      	push	{r7, lr}
 80016aa:	b082      	sub	sp, #8
 80016ac:	af00      	add	r7, sp, #0
 80016ae:	6078      	str	r0, [r7, #4]
 80016b0:	6039      	str	r1, [r7, #0]
	errno = EINVAL;
 80016b2:	f003 f9ef 	bl	8004a94 <__errno>
 80016b6:	4603      	mov	r3, r0
 80016b8:	2216      	movs	r2, #22
 80016ba:	601a      	str	r2, [r3, #0]
	return -1;
 80016bc:	f04f 33ff 	mov.w	r3, #4294967295
}
 80016c0:	4618      	mov	r0, r3
 80016c2:	3708      	adds	r7, #8
 80016c4:	46bd      	mov	sp, r7
 80016c6:	bd80      	pop	{r7, pc}

080016c8 <_exit>:

void _exit (int status)
{
 80016c8:	b580      	push	{r7, lr}
 80016ca:	b082      	sub	sp, #8
 80016cc:	af00      	add	r7, sp, #0
 80016ce:	6078      	str	r0, [r7, #4]
	_kill(status, -1);
 80016d0:	f04f 31ff 	mov.w	r1, #4294967295
 80016d4:	6878      	ldr	r0, [r7, #4]
 80016d6:	f7ff ffe7 	bl	80016a8 <_kill>
	while (1) {}		/* Make sure we hang here */
 80016da:	e7fe      	b.n	80016da <_exit+0x12>

080016dc <_read>:
}

__attribute__((weak)) int _read(int file, char *ptr, int len)
{
 80016dc:	b580      	push	{r7, lr}
 80016de:	b086      	sub	sp, #24
 80016e0:	af00      	add	r7, sp, #0
 80016e2:	60f8      	str	r0, [r7, #12]
 80016e4:	60b9      	str	r1, [r7, #8]
 80016e6:	607a      	str	r2, [r7, #4]
	int DataIdx;

	for (DataIdx = 0; DataIdx < len; DataIdx++)
 80016e8:	2300      	movs	r3, #0
 80016ea:	617b      	str	r3, [r7, #20]
 80016ec:	e00a      	b.n	8001704 <_read+0x28>
	{
		*ptr++ = __io_getchar();
 80016ee:	f3af 8000 	nop.w
 80016f2:	4601      	mov	r1, r0
 80016f4:	68bb      	ldr	r3, [r7, #8]
 80016f6:	1c5a      	adds	r2, r3, #1
 80016f8:	60ba      	str	r2, [r7, #8]
 80016fa:	b2ca      	uxtb	r2, r1
 80016fc:	701a      	strb	r2, [r3, #0]
	for (DataIdx = 0; DataIdx < len; DataIdx++)
 80016fe:	697b      	ldr	r3, [r7, #20]
 8001700:	3301      	adds	r3, #1
 8001702:	617b      	str	r3, [r7, #20]
 8001704:	697a      	ldr	r2, [r7, #20]
 8001706:	687b      	ldr	r3, [r7, #4]
 8001708:	429a      	cmp	r2, r3
 800170a:	dbf0      	blt.n	80016ee <_read+0x12>
	}

return len;
 800170c:	687b      	ldr	r3, [r7, #4]
}
 800170e:	4618      	mov	r0, r3
 8001710:	3718      	adds	r7, #24
 8001712:	46bd      	mov	sp, r7
 8001714:	bd80      	pop	{r7, pc}

08001716 <_write>:

__attribute__((weak)) int _write(int file, char *ptr, int len)
{
 8001716:	b580      	push	{r7, lr}
 8001718:	b086      	sub	sp, #24
 800171a:	af00      	add	r7, sp, #0
 800171c:	60f8      	str	r0, [r7, #12]
 800171e:	60b9      	str	r1, [r7, #8]
 8001720:	607a      	str	r2, [r7, #4]
	int DataIdx;

	for (DataIdx = 0; DataIdx < len; DataIdx++)
 8001722:	2300      	movs	r3, #0
 8001724:	617b      	str	r3, [r7, #20]
 8001726:	e009      	b.n	800173c <_write+0x26>
	{
		__io_putchar(*ptr++);
 8001728:	68bb      	ldr	r3, [r7, #8]
 800172a:	1c5a      	adds	r2, r3, #1
 800172c:	60ba      	str	r2, [r7, #8]
 800172e:	781b      	ldrb	r3, [r3, #0]
 8001730:	4618      	mov	r0, r3
 8001732:	f3af 8000 	nop.w
	for (DataIdx = 0; DataIdx < len; DataIdx++)
 8001736:	697b      	ldr	r3, [r7, #20]
 8001738:	3301      	adds	r3, #1
 800173a:	617b      	str	r3, [r7, #20]
 800173c:	697a      	ldr	r2, [r7, #20]
 800173e:	687b      	ldr	r3, [r7, #4]
 8001740:	429a      	cmp	r2, r3
 8001742:	dbf1      	blt.n	8001728 <_write+0x12>
	}
	return len;
 8001744:	687b      	ldr	r3, [r7, #4]
}
 8001746:	4618      	mov	r0, r3
 8001748:	3718      	adds	r7, #24
 800174a:	46bd      	mov	sp, r7
 800174c:	bd80      	pop	{r7, pc}

0800174e <_close>:

int _close(int file)
{
 800174e:	b480      	push	{r7}
 8001750:	b083      	sub	sp, #12
 8001752:	af00      	add	r7, sp, #0
 8001754:	6078      	str	r0, [r7, #4]
	return -1;
 8001756:	f04f 33ff 	mov.w	r3, #4294967295
}
 800175a:	4618      	mov	r0, r3
 800175c:	370c      	adds	r7, #12
 800175e:	46bd      	mov	sp, r7
 8001760:	f85d 7b04 	ldr.w	r7, [sp], #4
 8001764:	4770      	bx	lr

08001766 <_fstat>:


int _fstat(int file, struct stat *st)
{
 8001766:	b480      	push	{r7}
 8001768:	b083      	sub	sp, #12
 800176a:	af00      	add	r7, sp, #0
 800176c:	6078      	str	r0, [r7, #4]
 800176e:	6039      	str	r1, [r7, #0]
	st->st_mode = S_IFCHR;
 8001770:	683b      	ldr	r3, [r7, #0]
 8001772:	f44f 5200 	mov.w	r2, #8192	; 0x2000
 8001776:	605a      	str	r2, [r3, #4]
	return 0;
 8001778:	2300      	movs	r3, #0
}
 800177a:	4618      	mov	r0, r3
 800177c:	370c      	adds	r7, #12
 800177e:	46bd      	mov	sp, r7
 8001780:	f85d 7b04 	ldr.w	r7, [sp], #4
 8001784:	4770      	bx	lr

08001786 <_isatty>:

int _isatty(int file)
{
 8001786:	b480      	push	{r7}
 8001788:	b083      	sub	sp, #12
 800178a:	af00      	add	r7, sp, #0
 800178c:	6078      	str	r0, [r7, #4]
	return 1;
 800178e:	2301      	movs	r3, #1
}
 8001790:	4618      	mov	r0, r3
 8001792:	370c      	adds	r7, #12
 8001794:	46bd      	mov	sp, r7
 8001796:	f85d 7b04 	ldr.w	r7, [sp], #4
 800179a:	4770      	bx	lr

0800179c <_lseek>:

int _lseek(int file, int ptr, int dir)
{
 800179c:	b480      	push	{r7}
 800179e:	b085      	sub	sp, #20
 80017a0:	af00      	add	r7, sp, #0
 80017a2:	60f8      	str	r0, [r7, #12]
 80017a4:	60b9      	str	r1, [r7, #8]
 80017a6:	607a      	str	r2, [r7, #4]
	return 0;
 80017a8:	2300      	movs	r3, #0
}
 80017aa:	4618      	mov	r0, r3
 80017ac:	3714      	adds	r7, #20
 80017ae:	46bd      	mov	sp, r7
 80017b0:	f85d 7b04 	ldr.w	r7, [sp], #4
 80017b4:	4770      	bx	lr
	...

080017b8 <_sbrk>:
 *
 * @param incr Memory size
 * @return Pointer to allocated memory
 */
void *_sbrk(ptrdiff_t incr)
{
 80017b8:	b580      	push	{r7, lr}
 80017ba:	b086      	sub	sp, #24
 80017bc:	af00      	add	r7, sp, #0
 80017be:	6078      	str	r0, [r7, #4]
  extern uint8_t _end; /* Symbol defined in the linker script */
  extern uint8_t _estack; /* Symbol defined in the linker script */
  extern uint32_t _Min_Stack_Size; /* Symbol defined in the linker script */
  const uint32_t stack_limit = (uint32_t)&_estack - (uint32_t)&_Min_Stack_Size;
 80017c0:	4a14      	ldr	r2, [pc, #80]	; (8001814 <_sbrk+0x5c>)
 80017c2:	4b15      	ldr	r3, [pc, #84]	; (8001818 <_sbrk+0x60>)
 80017c4:	1ad3      	subs	r3, r2, r3
 80017c6:	617b      	str	r3, [r7, #20]
  const uint8_t *max_heap = (uint8_t *)stack_limit;
 80017c8:	697b      	ldr	r3, [r7, #20]
 80017ca:	613b      	str	r3, [r7, #16]
  uint8_t *prev_heap_end;

  /* Initialize heap end at first call */
  if (NULL == __sbrk_heap_end)
 80017cc:	4b13      	ldr	r3, [pc, #76]	; (800181c <_sbrk+0x64>)
 80017ce:	681b      	ldr	r3, [r3, #0]
 80017d0:	2b00      	cmp	r3, #0
 80017d2:	d102      	bne.n	80017da <_sbrk+0x22>
  {
    __sbrk_heap_end = &_end;
 80017d4:	4b11      	ldr	r3, [pc, #68]	; (800181c <_sbrk+0x64>)
 80017d6:	4a12      	ldr	r2, [pc, #72]	; (8001820 <_sbrk+0x68>)
 80017d8:	601a      	str	r2, [r3, #0]
  }

  /* Protect heap from growing into the reserved MSP stack */
  if (__sbrk_heap_end + incr > max_heap)
 80017da:	4b10      	ldr	r3, [pc, #64]	; (800181c <_sbrk+0x64>)
 80017dc:	681a      	ldr	r2, [r3, #0]
 80017de:	687b      	ldr	r3, [r7, #4]
 80017e0:	4413      	add	r3, r2
 80017e2:	693a      	ldr	r2, [r7, #16]
 80017e4:	429a      	cmp	r2, r3
 80017e6:	d207      	bcs.n	80017f8 <_sbrk+0x40>
  {
    errno = ENOMEM;
 80017e8:	f003 f954 	bl	8004a94 <__errno>
 80017ec:	4603      	mov	r3, r0
 80017ee:	220c      	movs	r2, #12
 80017f0:	601a      	str	r2, [r3, #0]
    return (void *)-1;
 80017f2:	f04f 33ff 	mov.w	r3, #4294967295
 80017f6:	e009      	b.n	800180c <_sbrk+0x54>
  }

  prev_heap_end = __sbrk_heap_end;
 80017f8:	4b08      	ldr	r3, [pc, #32]	; (800181c <_sbrk+0x64>)
 80017fa:	681b      	ldr	r3, [r3, #0]
 80017fc:	60fb      	str	r3, [r7, #12]
  __sbrk_heap_end += incr;
 80017fe:	4b07      	ldr	r3, [pc, #28]	; (800181c <_sbrk+0x64>)
 8001800:	681a      	ldr	r2, [r3, #0]
 8001802:	687b      	ldr	r3, [r7, #4]
 8001804:	4413      	add	r3, r2
 8001806:	4a05      	ldr	r2, [pc, #20]	; (800181c <_sbrk+0x64>)
 8001808:	6013      	str	r3, [r2, #0]

  return (void *)prev_heap_end;
 800180a:	68fb      	ldr	r3, [r7, #12]
}
 800180c:	4618      	mov	r0, r3
 800180e:	3718      	adds	r7, #24
 8001810:	46bd      	mov	sp, r7
 8001812:	bd80      	pop	{r7, pc}
 8001814:	20020000 	.word	0x20020000
 8001818:	00000400 	.word	0x00000400
 800181c:	20000228 	.word	0x20000228
 8001820:	200003a8 	.word	0x200003a8

08001824 <SystemInit>:
  *         configuration.
  * @param  None
  * @retval None
  */
void SystemInit(void)
{
 8001824:	b480      	push	{r7}
 8001826:	af00      	add	r7, sp, #0
  /* FPU settings ------------------------------------------------------------*/
  #if (__FPU_PRESENT == 1) && (__FPU_USED == 1)
    SCB->CPACR |= ((3UL << 10*2)|(3UL << 11*2));  /* set CP10 and CP11 Full Access */
 8001828:	4b06      	ldr	r3, [pc, #24]	; (8001844 <SystemInit+0x20>)
 800182a:	f8d3 3088 	ldr.w	r3, [r3, #136]	; 0x88
 800182e:	4a05      	ldr	r2, [pc, #20]	; (8001844 <SystemInit+0x20>)
 8001830:	f443 0370 	orr.w	r3, r3, #15728640	; 0xf00000
 8001834:	f8c2 3088 	str.w	r3, [r2, #136]	; 0x88

  /* Configure the Vector Table location -------------------------------------*/
#if defined(USER_VECT_TAB_ADDRESS)
  SCB->VTOR = VECT_TAB_BASE_ADDRESS | VECT_TAB_OFFSET; /* Vector Table Relocation in Internal SRAM */
#endif /* USER_VECT_TAB_ADDRESS */
}
 8001838:	bf00      	nop
 800183a:	46bd      	mov	sp, r7
 800183c:	f85d 7b04 	ldr.w	r7, [sp], #4
 8001840:	4770      	bx	lr
 8001842:	bf00      	nop
 8001844:	e000ed00 	.word	0xe000ed00

08001848 <Reset_Handler>:

    .section  .text.Reset_Handler
  .weak  Reset_Handler
  .type  Reset_Handler, %function
Reset_Handler:  
  ldr   sp, =_estack      /* set stack pointer */
 8001848:	f8df d034 	ldr.w	sp, [pc, #52]	; 8001880 <LoopFillZerobss+0x12>

/* Copy the data segment initializers from flash to SRAM */  
  ldr r0, =_sdata
 800184c:	480d      	ldr	r0, [pc, #52]	; (8001884 <LoopFillZerobss+0x16>)
  ldr r1, =_edata
 800184e:	490e      	ldr	r1, [pc, #56]	; (8001888 <LoopFillZerobss+0x1a>)
  ldr r2, =_sidata
 8001850:	4a0e      	ldr	r2, [pc, #56]	; (800188c <LoopFillZerobss+0x1e>)
  movs r3, #0
 8001852:	2300      	movs	r3, #0
  b LoopCopyDataInit
 8001854:	e002      	b.n	800185c <LoopCopyDataInit>

08001856 <CopyDataInit>:

CopyDataInit:
  ldr r4, [r2, r3]
 8001856:	58d4      	ldr	r4, [r2, r3]
  str r4, [r0, r3]
 8001858:	50c4      	str	r4, [r0, r3]
  adds r3, r3, #4
 800185a:	3304      	adds	r3, #4

0800185c <LoopCopyDataInit>:

LoopCopyDataInit:
  adds r4, r0, r3
 800185c:	18c4      	adds	r4, r0, r3
  cmp r4, r1
 800185e:	428c      	cmp	r4, r1
  bcc CopyDataInit
 8001860:	d3f9      	bcc.n	8001856 <CopyDataInit>
  
/* Zero fill the bss segment. */
  ldr r2, =_sbss
 8001862:	4a0b      	ldr	r2, [pc, #44]	; (8001890 <LoopFillZerobss+0x22>)
  ldr r4, =_ebss
 8001864:	4c0b      	ldr	r4, [pc, #44]	; (8001894 <LoopFillZerobss+0x26>)
  movs r3, #0
 8001866:	2300      	movs	r3, #0
  b LoopFillZerobss
 8001868:	e001      	b.n	800186e <LoopFillZerobss>

0800186a <FillZerobss>:

FillZerobss:
  str  r3, [r2]
 800186a:	6013      	str	r3, [r2, #0]
  adds r2, r2, #4
 800186c:	3204      	adds	r2, #4

0800186e <LoopFillZerobss>:

LoopFillZerobss:
  cmp r2, r4
 800186e:	42a2      	cmp	r2, r4
  bcc FillZerobss
 8001870:	d3fb      	bcc.n	800186a <FillZerobss>

/* Call the clock system intitialization function.*/
  bl  SystemInit   
 8001872:	f7ff ffd7 	bl	8001824 <SystemInit>
/* Call static constructors */
    bl __libc_init_array
 8001876:	f003 f913 	bl	8004aa0 <__libc_init_array>
/* Call the application's entry point.*/
  bl  main
 800187a:	f7ff fb31 	bl	8000ee0 <main>
  bx  lr    
 800187e:	4770      	bx	lr
  ldr   sp, =_estack      /* set stack pointer */
 8001880:	20020000 	.word	0x20020000
  ldr r0, =_sdata
 8001884:	20000000 	.word	0x20000000
  ldr r1, =_edata
 8001888:	200001e0 	.word	0x200001e0
  ldr r2, =_sidata
 800188c:	08007ce4 	.word	0x08007ce4
  ldr r2, =_sbss
 8001890:	200001e0 	.word	0x200001e0
  ldr r4, =_ebss
 8001894:	200003a8 	.word	0x200003a8

08001898 <ADC_IRQHandler>:
 * @retval None       
*/
    .section  .text.Default_Handler,"ax",%progbits
Default_Handler:
Infinite_Loop:
  b  Infinite_Loop
 8001898:	e7fe      	b.n	8001898 <ADC_IRQHandler>
	...

0800189c <HAL_Init>:
  *         need to ensure that the SysTick time base is always set to 1 millisecond
  *         to have correct HAL operation.
  * @retval HAL status
  */
HAL_StatusTypeDef HAL_Init(void)
{
 800189c:	b580      	push	{r7, lr}
 800189e:	af00      	add	r7, sp, #0
  /* Configure Flash prefetch, Instruction cache, Data cache */ 
#if (INSTRUCTION_CACHE_ENABLE != 0U)
  __HAL_FLASH_INSTRUCTION_CACHE_ENABLE();
 80018a0:	4b0e      	ldr	r3, [pc, #56]	; (80018dc <HAL_Init+0x40>)
 80018a2:	681b      	ldr	r3, [r3, #0]
 80018a4:	4a0d      	ldr	r2, [pc, #52]	; (80018dc <HAL_Init+0x40>)
 80018a6:	f443 7300 	orr.w	r3, r3, #512	; 0x200
 80018aa:	6013      	str	r3, [r2, #0]
#endif /* INSTRUCTION_CACHE_ENABLE */

#if (DATA_CACHE_ENABLE != 0U)
  __HAL_FLASH_DATA_CACHE_ENABLE();
 80018ac:	4b0b      	ldr	r3, [pc, #44]	; (80018dc <HAL_Init+0x40>)
 80018ae:	681b      	ldr	r3, [r3, #0]
 80018b0:	4a0a      	ldr	r2, [pc, #40]	; (80018dc <HAL_Init+0x40>)
 80018b2:	f443 6380 	orr.w	r3, r3, #1024	; 0x400
 80018b6:	6013      	str	r3, [r2, #0]
#endif /* DATA_CACHE_ENABLE */

#if (PREFETCH_ENABLE != 0U)
  __HAL_FLASH_PREFETCH_BUFFER_ENABLE();
 80018b8:	4b08      	ldr	r3, [pc, #32]	; (80018dc <HAL_Init+0x40>)
 80018ba:	681b      	ldr	r3, [r3, #0]
 80018bc:	4a07      	ldr	r2, [pc, #28]	; (80018dc <HAL_Init+0x40>)
 80018be:	f443 7380 	orr.w	r3, r3, #256	; 0x100
 80018c2:	6013      	str	r3, [r2, #0]
#endif /* PREFETCH_ENABLE */

  /* Set Interrupt Group Priority */
  HAL_NVIC_SetPriorityGrouping(NVIC_PRIORITYGROUP_4);
 80018c4:	2003      	movs	r0, #3
 80018c6:	f000 fd5f 	bl	8002388 <HAL_NVIC_SetPriorityGrouping>

  /* Use systick as time base source and configure 1ms tick (default clock after Reset is HSI) */
  HAL_InitTick(TICK_INT_PRIORITY);
 80018ca:	2000      	movs	r0, #0
 80018cc:	f000 f808 	bl	80018e0 <HAL_InitTick>

  /* Init the low level hardware */
  HAL_MspInit();
 80018d0:	f7ff fd7a 	bl	80013c8 <HAL_MspInit>

  /* Return function status */
  return HAL_OK;
 80018d4:	2300      	movs	r3, #0
}
 80018d6:	4618      	mov	r0, r3
 80018d8:	bd80      	pop	{r7, pc}
 80018da:	bf00      	nop
 80018dc:	40023c00 	.word	0x40023c00

080018e0 <HAL_InitTick>:
  *       implementation  in user file.
  * @param TickPriority Tick interrupt priority.
  * @retval HAL status
  */
__weak HAL_StatusTypeDef HAL_InitTick(uint32_t TickPriority)
{
 80018e0:	b580      	push	{r7, lr}
 80018e2:	b082      	sub	sp, #8
 80018e4:	af00      	add	r7, sp, #0
 80018e6:	6078      	str	r0, [r7, #4]
  /* Configure the SysTick to have interrupt in 1ms time basis*/
  if (HAL_SYSTICK_Config(SystemCoreClock / (1000U / uwTickFreq)) > 0U)
 80018e8:	4b12      	ldr	r3, [pc, #72]	; (8001934 <HAL_InitTick+0x54>)
 80018ea:	681a      	ldr	r2, [r3, #0]
 80018ec:	4b12      	ldr	r3, [pc, #72]	; (8001938 <HAL_InitTick+0x58>)
 80018ee:	781b      	ldrb	r3, [r3, #0]
 80018f0:	4619      	mov	r1, r3
 80018f2:	f44f 737a 	mov.w	r3, #1000	; 0x3e8
 80018f6:	fbb3 f3f1 	udiv	r3, r3, r1
 80018fa:	fbb2 f3f3 	udiv	r3, r2, r3
 80018fe:	4618      	mov	r0, r3
 8001900:	f000 fd77 	bl	80023f2 <HAL_SYSTICK_Config>
 8001904:	4603      	mov	r3, r0
 8001906:	2b00      	cmp	r3, #0
 8001908:	d001      	beq.n	800190e <HAL_InitTick+0x2e>
  {
    return HAL_ERROR;
 800190a:	2301      	movs	r3, #1
 800190c:	e00e      	b.n	800192c <HAL_InitTick+0x4c>
  }

  /* Configure the SysTick IRQ priority */
  if (TickPriority < (1UL << __NVIC_PRIO_BITS))
 800190e:	687b      	ldr	r3, [r7, #4]
 8001910:	2b0f      	cmp	r3, #15
 8001912:	d80a      	bhi.n	800192a <HAL_InitTick+0x4a>
  {
    HAL_NVIC_SetPriority(SysTick_IRQn, TickPriority, 0U);
 8001914:	2200      	movs	r2, #0
 8001916:	6879      	ldr	r1, [r7, #4]
 8001918:	f04f 30ff 	mov.w	r0, #4294967295
 800191c:	f000 fd3f 	bl	800239e <HAL_NVIC_SetPriority>
    uwTickPrio = TickPriority;
 8001920:	4a06      	ldr	r2, [pc, #24]	; (800193c <HAL_InitTick+0x5c>)
 8001922:	687b      	ldr	r3, [r7, #4]
 8001924:	6013      	str	r3, [r2, #0]
  {
    return HAL_ERROR;
  }

  /* Return function status */
  return HAL_OK;
 8001926:	2300      	movs	r3, #0
 8001928:	e000      	b.n	800192c <HAL_InitTick+0x4c>
    return HAL_ERROR;
 800192a:	2301      	movs	r3, #1
}
 800192c:	4618      	mov	r0, r3
 800192e:	3708      	adds	r7, #8
 8001930:	46bd      	mov	sp, r7
 8001932:	bd80      	pop	{r7, pc}
 8001934:	20000004 	.word	0x20000004
 8001938:	2000000c 	.word	0x2000000c
 800193c:	20000008 	.word	0x20000008

08001940 <HAL_IncTick>:
 * @note This function is declared as __weak to be overwritten in case of other 
  *      implementations in user file.
  * @retval None
  */
__weak void HAL_IncTick(void)
{
 8001940:	b480      	push	{r7}
 8001942:	af00      	add	r7, sp, #0
  uwTick += uwTickFreq;
 8001944:	4b06      	ldr	r3, [pc, #24]	; (8001960 <HAL_IncTick+0x20>)
 8001946:	781b      	ldrb	r3, [r3, #0]
 8001948:	461a      	mov	r2, r3
 800194a:	4b06      	ldr	r3, [pc, #24]	; (8001964 <HAL_IncTick+0x24>)
 800194c:	681b      	ldr	r3, [r3, #0]
 800194e:	4413      	add	r3, r2
 8001950:	4a04      	ldr	r2, [pc, #16]	; (8001964 <HAL_IncTick+0x24>)
 8001952:	6013      	str	r3, [r2, #0]
}
 8001954:	bf00      	nop
 8001956:	46bd      	mov	sp, r7
 8001958:	f85d 7b04 	ldr.w	r7, [sp], #4
 800195c:	4770      	bx	lr
 800195e:	bf00      	nop
 8001960:	2000000c 	.word	0x2000000c
 8001964:	20000394 	.word	0x20000394

08001968 <HAL_GetTick>:
  * @note This function is declared as __weak to be overwritten in case of other 
  *       implementations in user file.
  * @retval tick value
  */
__weak uint32_t HAL_GetTick(void)
{
 8001968:	b480      	push	{r7}
 800196a:	af00      	add	r7, sp, #0
  return uwTick;
 800196c:	4b03      	ldr	r3, [pc, #12]	; (800197c <HAL_GetTick+0x14>)
 800196e:	681b      	ldr	r3, [r3, #0]
}
 8001970:	4618      	mov	r0, r3
 8001972:	46bd      	mov	sp, r7
 8001974:	f85d 7b04 	ldr.w	r7, [sp], #4
 8001978:	4770      	bx	lr
 800197a:	bf00      	nop
 800197c:	20000394 	.word	0x20000394

08001980 <HAL_Delay>:
  *       implementations in user file.
  * @param Delay specifies the delay time length, in milliseconds.
  * @retval None
  */
__weak void HAL_Delay(uint32_t Delay)
{
 8001980:	b580      	push	{r7, lr}
 8001982:	b084      	sub	sp, #16
 8001984:	af00      	add	r7, sp, #0
 8001986:	6078      	str	r0, [r7, #4]
  uint32_t tickstart = HAL_GetTick();
 8001988:	f7ff ffee 	bl	8001968 <HAL_GetTick>
 800198c:	60b8      	str	r0, [r7, #8]
  uint32_t wait = Delay;
 800198e:	687b      	ldr	r3, [r7, #4]
 8001990:	60fb      	str	r3, [r7, #12]

  /* Add a freq to guarantee minimum wait */
  if (wait < HAL_MAX_DELAY)
 8001992:	68fb      	ldr	r3, [r7, #12]
 8001994:	f1b3 3fff 	cmp.w	r3, #4294967295
 8001998:	d005      	beq.n	80019a6 <HAL_Delay+0x26>
  {
    wait += (uint32_t)(uwTickFreq);
 800199a:	4b0a      	ldr	r3, [pc, #40]	; (80019c4 <HAL_Delay+0x44>)
 800199c:	781b      	ldrb	r3, [r3, #0]
 800199e:	461a      	mov	r2, r3
 80019a0:	68fb      	ldr	r3, [r7, #12]
 80019a2:	4413      	add	r3, r2
 80019a4:	60fb      	str	r3, [r7, #12]
  }

  while((HAL_GetTick() - tickstart) < wait)
 80019a6:	bf00      	nop
 80019a8:	f7ff ffde 	bl	8001968 <HAL_GetTick>
 80019ac:	4602      	mov	r2, r0
 80019ae:	68bb      	ldr	r3, [r7, #8]
 80019b0:	1ad3      	subs	r3, r2, r3
 80019b2:	68fa      	ldr	r2, [r7, #12]
 80019b4:	429a      	cmp	r2, r3
 80019b6:	d8f7      	bhi.n	80019a8 <HAL_Delay+0x28>
  {
  }
}
 80019b8:	bf00      	nop
 80019ba:	bf00      	nop
 80019bc:	3710      	adds	r7, #16
 80019be:	46bd      	mov	sp, r7
 80019c0:	bd80      	pop	{r7, pc}
 80019c2:	bf00      	nop
 80019c4:	2000000c 	.word	0x2000000c

080019c8 <HAL_ADC_Init>:
  * @param  hadc pointer to a ADC_HandleTypeDef structure that contains
  *         the configuration information for the specified ADC.  
  * @retval HAL status
  */
HAL_StatusTypeDef HAL_ADC_Init(ADC_HandleTypeDef* hadc)
{
 80019c8:	b580      	push	{r7, lr}
 80019ca:	b084      	sub	sp, #16
 80019cc:	af00      	add	r7, sp, #0
 80019ce:	6078      	str	r0, [r7, #4]
  HAL_StatusTypeDef tmp_hal_status = HAL_OK;
 80019d0:	2300      	movs	r3, #0
 80019d2:	73fb      	strb	r3, [r7, #15]
  
  /* Check ADC handle */
  if(hadc == NULL)
 80019d4:	687b      	ldr	r3, [r7, #4]
 80019d6:	2b00      	cmp	r3, #0
 80019d8:	d101      	bne.n	80019de <HAL_ADC_Init+0x16>
  {
    return HAL_ERROR;
 80019da:	2301      	movs	r3, #1
 80019dc:	e033      	b.n	8001a46 <HAL_ADC_Init+0x7e>
  if(hadc->Init.ExternalTrigConv != ADC_SOFTWARE_START)
  {
    assert_param(IS_ADC_EXT_TRIG_EDGE(hadc->Init.ExternalTrigConvEdge));
  }
  
  if(hadc->State == HAL_ADC_STATE_RESET)
 80019de:	687b      	ldr	r3, [r7, #4]
 80019e0:	6c1b      	ldr	r3, [r3, #64]	; 0x40
 80019e2:	2b00      	cmp	r3, #0
 80019e4:	d109      	bne.n	80019fa <HAL_ADC_Init+0x32>

    /* Init the low level hardware */
    hadc->MspInitCallback(hadc);
#else
    /* Init the low level hardware */
    HAL_ADC_MspInit(hadc);
 80019e6:	6878      	ldr	r0, [r7, #4]
 80019e8:	f7ff fd16 	bl	8001418 <HAL_ADC_MspInit>
#endif /* USE_HAL_ADC_REGISTER_CALLBACKS */

    /* Initialize ADC error code */
    ADC_CLEAR_ERRORCODE(hadc);
 80019ec:	687b      	ldr	r3, [r7, #4]
 80019ee:	2200      	movs	r2, #0
 80019f0:	645a      	str	r2, [r3, #68]	; 0x44
    
    /* Allocate lock resource and initialize it */
    hadc->Lock = HAL_UNLOCKED;
 80019f2:	687b      	ldr	r3, [r7, #4]
 80019f4:	2200      	movs	r2, #0
 80019f6:	f883 203c 	strb.w	r2, [r3, #60]	; 0x3c
  }
  
  /* Configuration of ADC parameters if previous preliminary actions are      */ 
  /* correctly completed.                                                     */
  if (HAL_IS_BIT_CLR(hadc->State, HAL_ADC_STATE_ERROR_INTERNAL))
 80019fa:	687b      	ldr	r3, [r7, #4]
 80019fc:	6c1b      	ldr	r3, [r3, #64]	; 0x40
 80019fe:	f003 0310 	and.w	r3, r3, #16
 8001a02:	2b00      	cmp	r3, #0
 8001a04:	d118      	bne.n	8001a38 <HAL_ADC_Init+0x70>
  {
    /* Set ADC state */
    ADC_STATE_CLR_SET(hadc->State,
 8001a06:	687b      	ldr	r3, [r7, #4]
 8001a08:	6c1b      	ldr	r3, [r3, #64]	; 0x40
 8001a0a:	f423 5388 	bic.w	r3, r3, #4352	; 0x1100
 8001a0e:	f023 0302 	bic.w	r3, r3, #2
 8001a12:	f043 0202 	orr.w	r2, r3, #2
 8001a16:	687b      	ldr	r3, [r7, #4]
 8001a18:	641a      	str	r2, [r3, #64]	; 0x40
                      HAL_ADC_STATE_REG_BUSY | HAL_ADC_STATE_INJ_BUSY,
                      HAL_ADC_STATE_BUSY_INTERNAL);
    
    /* Set ADC parameters */
    ADC_Init(hadc);
 8001a1a:	6878      	ldr	r0, [r7, #4]
 8001a1c:	f000 fae8 	bl	8001ff0 <ADC_Init>
    
    /* Set ADC error code to none */
    ADC_CLEAR_ERRORCODE(hadc);
 8001a20:	687b      	ldr	r3, [r7, #4]
 8001a22:	2200      	movs	r2, #0
 8001a24:	645a      	str	r2, [r3, #68]	; 0x44
    
    /* Set the ADC state */
    ADC_STATE_CLR_SET(hadc->State,
 8001a26:	687b      	ldr	r3, [r7, #4]
 8001a28:	6c1b      	ldr	r3, [r3, #64]	; 0x40
 8001a2a:	f023 0303 	bic.w	r3, r3, #3
 8001a2e:	f043 0201 	orr.w	r2, r3, #1
 8001a32:	687b      	ldr	r3, [r7, #4]
 8001a34:	641a      	str	r2, [r3, #64]	; 0x40
 8001a36:	e001      	b.n	8001a3c <HAL_ADC_Init+0x74>
                      HAL_ADC_STATE_BUSY_INTERNAL,
                      HAL_ADC_STATE_READY);
  }
  else
  {
    tmp_hal_status = HAL_ERROR;
 8001a38:	2301      	movs	r3, #1
 8001a3a:	73fb      	strb	r3, [r7, #15]
  }
  
  /* Release Lock */
  __HAL_UNLOCK(hadc);
 8001a3c:	687b      	ldr	r3, [r7, #4]
 8001a3e:	2200      	movs	r2, #0
 8001a40:	f883 203c 	strb.w	r2, [r3, #60]	; 0x3c

  /* Return function status */
  return tmp_hal_status;
 8001a44:	7bfb      	ldrb	r3, [r7, #15]
}
 8001a46:	4618      	mov	r0, r3
 8001a48:	3710      	adds	r7, #16
 8001a4a:	46bd      	mov	sp, r7
 8001a4c:	bd80      	pop	{r7, pc}
	...

08001a50 <HAL_ADC_Start>:
  * @param  hadc pointer to a ADC_HandleTypeDef structure that contains
  *         the configuration information for the specified ADC.
  * @retval HAL status
  */
HAL_StatusTypeDef HAL_ADC_Start(ADC_HandleTypeDef* hadc)
{
 8001a50:	b480      	push	{r7}
 8001a52:	b085      	sub	sp, #20
 8001a54:	af00      	add	r7, sp, #0
 8001a56:	6078      	str	r0, [r7, #4]
  __IO uint32_t counter = 0U;
 8001a58:	2300      	movs	r3, #0
 8001a5a:	60bb      	str	r3, [r7, #8]
  /* Check the parameters */
  assert_param(IS_FUNCTIONAL_STATE(hadc->Init.ContinuousConvMode));
  assert_param(IS_ADC_EXT_TRIG_EDGE(hadc->Init.ExternalTrigConvEdge)); 
  
  /* Process locked */
  __HAL_LOCK(hadc);
 8001a5c:	687b      	ldr	r3, [r7, #4]
 8001a5e:	f893 303c 	ldrb.w	r3, [r3, #60]	; 0x3c
 8001a62:	2b01      	cmp	r3, #1
 8001a64:	d101      	bne.n	8001a6a <HAL_ADC_Start+0x1a>
 8001a66:	2302      	movs	r3, #2
 8001a68:	e0b2      	b.n	8001bd0 <HAL_ADC_Start+0x180>
 8001a6a:	687b      	ldr	r3, [r7, #4]
 8001a6c:	2201      	movs	r2, #1
 8001a6e:	f883 203c 	strb.w	r2, [r3, #60]	; 0x3c
  
  /* Enable the ADC peripheral */
  /* Check if ADC peripheral is disabled in order to enable it and wait during 
  Tstab time the ADC's stabilization */
  if((hadc->Instance->CR2 & ADC_CR2_ADON) != ADC_CR2_ADON)
 8001a72:	687b      	ldr	r3, [r7, #4]
 8001a74:	681b      	ldr	r3, [r3, #0]
 8001a76:	689b      	ldr	r3, [r3, #8]
 8001a78:	f003 0301 	and.w	r3, r3, #1
 8001a7c:	2b01      	cmp	r3, #1
 8001a7e:	d018      	beq.n	8001ab2 <HAL_ADC_Start+0x62>
  {  
    /* Enable the Peripheral */
    __HAL_ADC_ENABLE(hadc);
 8001a80:	687b      	ldr	r3, [r7, #4]
 8001a82:	681b      	ldr	r3, [r3, #0]
 8001a84:	689a      	ldr	r2, [r3, #8]
 8001a86:	687b      	ldr	r3, [r7, #4]
 8001a88:	681b      	ldr	r3, [r3, #0]
 8001a8a:	f042 0201 	orr.w	r2, r2, #1
 8001a8e:	609a      	str	r2, [r3, #8]
    
    /* Delay for ADC stabilization time */
    /* Compute number of CPU cycles to wait for */
    counter = (ADC_STAB_DELAY_US * (SystemCoreClock / 1000000U));
 8001a90:	4b52      	ldr	r3, [pc, #328]	; (8001bdc <HAL_ADC_Start+0x18c>)
 8001a92:	681b      	ldr	r3, [r3, #0]
 8001a94:	4a52      	ldr	r2, [pc, #328]	; (8001be0 <HAL_ADC_Start+0x190>)
 8001a96:	fba2 2303 	umull	r2, r3, r2, r3
 8001a9a:	0c9a      	lsrs	r2, r3, #18
 8001a9c:	4613      	mov	r3, r2
 8001a9e:	005b      	lsls	r3, r3, #1
 8001aa0:	4413      	add	r3, r2
 8001aa2:	60bb      	str	r3, [r7, #8]
    while(counter != 0U)
 8001aa4:	e002      	b.n	8001aac <HAL_ADC_Start+0x5c>
    {
      counter--;
 8001aa6:	68bb      	ldr	r3, [r7, #8]
 8001aa8:	3b01      	subs	r3, #1
 8001aaa:	60bb      	str	r3, [r7, #8]
    while(counter != 0U)
 8001aac:	68bb      	ldr	r3, [r7, #8]
 8001aae:	2b00      	cmp	r3, #0
 8001ab0:	d1f9      	bne.n	8001aa6 <HAL_ADC_Start+0x56>
    }
  }
  
  /* Start conversion if ADC is effectively enabled */
  if(HAL_IS_BIT_SET(hadc->Instance->CR2, ADC_CR2_ADON))
 8001ab2:	687b      	ldr	r3, [r7, #4]
 8001ab4:	681b      	ldr	r3, [r3, #0]
 8001ab6:	689b      	ldr	r3, [r3, #8]
 8001ab8:	f003 0301 	and.w	r3, r3, #1
 8001abc:	2b01      	cmp	r3, #1
 8001abe:	d17a      	bne.n	8001bb6 <HAL_ADC_Start+0x166>
  {
    /* Set ADC state                                                          */
    /* - Clear state bitfield related to regular group conversion results     */
    /* - Set state bitfield related to regular group operation                */
    ADC_STATE_CLR_SET(hadc->State,
 8001ac0:	687b      	ldr	r3, [r7, #4]
 8001ac2:	6c1b      	ldr	r3, [r3, #64]	; 0x40
 8001ac4:	f423 63e0 	bic.w	r3, r3, #1792	; 0x700
 8001ac8:	f023 0301 	bic.w	r3, r3, #1
 8001acc:	f443 7280 	orr.w	r2, r3, #256	; 0x100
 8001ad0:	687b      	ldr	r3, [r7, #4]
 8001ad2:	641a      	str	r2, [r3, #64]	; 0x40
                      HAL_ADC_STATE_READY | HAL_ADC_STATE_REG_EOC | HAL_ADC_STATE_REG_OVR,
                      HAL_ADC_STATE_REG_BUSY);
    
    /* If conversions on group regular are also triggering group injected,    */
    /* update ADC state.                                                      */
    if (READ_BIT(hadc->Instance->CR1, ADC_CR1_JAUTO) != RESET)
 8001ad4:	687b      	ldr	r3, [r7, #4]
 8001ad6:	681b      	ldr	r3, [r3, #0]
 8001ad8:	685b      	ldr	r3, [r3, #4]
 8001ada:	f403 6380 	and.w	r3, r3, #1024	; 0x400
 8001ade:	2b00      	cmp	r3, #0
 8001ae0:	d007      	beq.n	8001af2 <HAL_ADC_Start+0xa2>
    {
      ADC_STATE_CLR_SET(hadc->State, HAL_ADC_STATE_INJ_EOC, HAL_ADC_STATE_INJ_BUSY);  
 8001ae2:	687b      	ldr	r3, [r7, #4]
 8001ae4:	6c1b      	ldr	r3, [r3, #64]	; 0x40
 8001ae6:	f423 5340 	bic.w	r3, r3, #12288	; 0x3000
 8001aea:	f443 5280 	orr.w	r2, r3, #4096	; 0x1000
 8001aee:	687b      	ldr	r3, [r7, #4]
 8001af0:	641a      	str	r2, [r3, #64]	; 0x40
    }
    
    /* State machine update: Check if an injected conversion is ongoing */
    if (HAL_IS_BIT_SET(hadc->State, HAL_ADC_STATE_INJ_BUSY))
 8001af2:	687b      	ldr	r3, [r7, #4]
 8001af4:	6c1b      	ldr	r3, [r3, #64]	; 0x40
 8001af6:	f403 5380 	and.w	r3, r3, #4096	; 0x1000
 8001afa:	f5b3 5f80 	cmp.w	r3, #4096	; 0x1000
 8001afe:	d106      	bne.n	8001b0e <HAL_ADC_Start+0xbe>
    {
      /* Reset ADC error code fields related to conversions on group regular */
      CLEAR_BIT(hadc->ErrorCode, (HAL_ADC_ERROR_OVR | HAL_ADC_ERROR_DMA));         
 8001b00:	687b      	ldr	r3, [r7, #4]
 8001b02:	6c5b      	ldr	r3, [r3, #68]	; 0x44
 8001b04:	f023 0206 	bic.w	r2, r3, #6
 8001b08:	687b      	ldr	r3, [r7, #4]
 8001b0a:	645a      	str	r2, [r3, #68]	; 0x44
 8001b0c:	e002      	b.n	8001b14 <HAL_ADC_Start+0xc4>
    }
    else
    {
      /* Reset ADC all error code fields */
      ADC_CLEAR_ERRORCODE(hadc);
 8001b0e:	687b      	ldr	r3, [r7, #4]
 8001b10:	2200      	movs	r2, #0
 8001b12:	645a      	str	r2, [r3, #68]	; 0x44
    } 

    /* Process unlocked */
    /* Unlock before starting ADC conversions: in case of potential           */
    /* interruption, to let the process to ADC IRQ Handler.                   */
    __HAL_UNLOCK(hadc);
 8001b14:	687b      	ldr	r3, [r7, #4]
 8001b16:	2200      	movs	r2, #0
 8001b18:	f883 203c 	strb.w	r2, [r3, #60]	; 0x3c

    /* Pointer to the common control register to which is belonging hadc    */
    /* (Depending on STM32F4 product, there may be up to 3 ADCs and 1 common */
    /* control register)                                                    */
    tmpADC_Common = ADC_COMMON_REGISTER(hadc);
 8001b1c:	4b31      	ldr	r3, [pc, #196]	; (8001be4 <HAL_ADC_Start+0x194>)
 8001b1e:	60fb      	str	r3, [r7, #12]

    /* Clear regular group conversion flag and overrun flag */
    /* (To ensure of no unknown state from potential previous ADC operations) */
    __HAL_ADC_CLEAR_FLAG(hadc, ADC_FLAG_EOC | ADC_FLAG_OVR);
 8001b20:	687b      	ldr	r3, [r7, #4]
 8001b22:	681b      	ldr	r3, [r3, #0]
 8001b24:	f06f 0222 	mvn.w	r2, #34	; 0x22
 8001b28:	601a      	str	r2, [r3, #0]
    
    /* Check if Multimode enabled */
    if(HAL_IS_BIT_CLR(tmpADC_Common->CCR, ADC_CCR_MULTI))
 8001b2a:	68fb      	ldr	r3, [r7, #12]
 8001b2c:	685b      	ldr	r3, [r3, #4]
 8001b2e:	f003 031f 	and.w	r3, r3, #31
 8001b32:	2b00      	cmp	r3, #0
 8001b34:	d12a      	bne.n	8001b8c <HAL_ADC_Start+0x13c>
    {
#if defined(ADC2) && defined(ADC3)
      if((hadc->Instance == ADC1) || ((hadc->Instance == ADC2) && ((ADC->CCR & ADC_CCR_MULTI_Msk) < ADC_CCR_MULTI_0)) \
 8001b36:	687b      	ldr	r3, [r7, #4]
 8001b38:	681b      	ldr	r3, [r3, #0]
 8001b3a:	4a2b      	ldr	r2, [pc, #172]	; (8001be8 <HAL_ADC_Start+0x198>)
 8001b3c:	4293      	cmp	r3, r2
 8001b3e:	d015      	beq.n	8001b6c <HAL_ADC_Start+0x11c>
 8001b40:	687b      	ldr	r3, [r7, #4]
 8001b42:	681b      	ldr	r3, [r3, #0]
 8001b44:	4a29      	ldr	r2, [pc, #164]	; (8001bec <HAL_ADC_Start+0x19c>)
 8001b46:	4293      	cmp	r3, r2
 8001b48:	d105      	bne.n	8001b56 <HAL_ADC_Start+0x106>
 8001b4a:	4b26      	ldr	r3, [pc, #152]	; (8001be4 <HAL_ADC_Start+0x194>)
 8001b4c:	685b      	ldr	r3, [r3, #4]
 8001b4e:	f003 031f 	and.w	r3, r3, #31
 8001b52:	2b00      	cmp	r3, #0
 8001b54:	d00a      	beq.n	8001b6c <HAL_ADC_Start+0x11c>
                                  || ((hadc->Instance == ADC3) && ((ADC->CCR & ADC_CCR_MULTI_Msk) < ADC_CCR_MULTI_4)))
 8001b56:	687b      	ldr	r3, [r7, #4]
 8001b58:	681b      	ldr	r3, [r3, #0]
 8001b5a:	4a25      	ldr	r2, [pc, #148]	; (8001bf0 <HAL_ADC_Start+0x1a0>)
 8001b5c:	4293      	cmp	r3, r2
 8001b5e:	d136      	bne.n	8001bce <HAL_ADC_Start+0x17e>
 8001b60:	4b20      	ldr	r3, [pc, #128]	; (8001be4 <HAL_ADC_Start+0x194>)
 8001b62:	685b      	ldr	r3, [r3, #4]
 8001b64:	f003 0310 	and.w	r3, r3, #16
 8001b68:	2b00      	cmp	r3, #0
 8001b6a:	d130      	bne.n	8001bce <HAL_ADC_Start+0x17e>
      {
#endif /* ADC2 || ADC3 */
        /* if no external trigger present enable software conversion of regular channels */
        if((hadc->Instance->CR2 & ADC_CR2_EXTEN) == RESET) 
 8001b6c:	687b      	ldr	r3, [r7, #4]
 8001b6e:	681b      	ldr	r3, [r3, #0]
 8001b70:	689b      	ldr	r3, [r3, #8]
 8001b72:	f003 5340 	and.w	r3, r3, #805306368	; 0x30000000
 8001b76:	2b00      	cmp	r3, #0
 8001b78:	d129      	bne.n	8001bce <HAL_ADC_Start+0x17e>
        {
          /* Enable the selected ADC software conversion for regular group */
          hadc->Instance->CR2 |= (uint32_t)ADC_CR2_SWSTART;
 8001b7a:	687b      	ldr	r3, [r7, #4]
 8001b7c:	681b      	ldr	r3, [r3, #0]
 8001b7e:	689a      	ldr	r2, [r3, #8]
 8001b80:	687b      	ldr	r3, [r7, #4]
 8001b82:	681b      	ldr	r3, [r3, #0]
 8001b84:	f042 4280 	orr.w	r2, r2, #1073741824	; 0x40000000
 8001b88:	609a      	str	r2, [r3, #8]
 8001b8a:	e020      	b.n	8001bce <HAL_ADC_Start+0x17e>
#endif /* ADC2 || ADC3 */
    }
    else
    {
      /* if instance of handle correspond to ADC1 and  no external trigger present enable software conversion of regular channels */
      if((hadc->Instance == ADC1) && ((hadc->Instance->CR2 & ADC_CR2_EXTEN) == RESET))
 8001b8c:	687b      	ldr	r3, [r7, #4]
 8001b8e:	681b      	ldr	r3, [r3, #0]
 8001b90:	4a15      	ldr	r2, [pc, #84]	; (8001be8 <HAL_ADC_Start+0x198>)
 8001b92:	4293      	cmp	r3, r2
 8001b94:	d11b      	bne.n	8001bce <HAL_ADC_Start+0x17e>
 8001b96:	687b      	ldr	r3, [r7, #4]
 8001b98:	681b      	ldr	r3, [r3, #0]
 8001b9a:	689b      	ldr	r3, [r3, #8]
 8001b9c:	f003 5340 	and.w	r3, r3, #805306368	; 0x30000000
 8001ba0:	2b00      	cmp	r3, #0
 8001ba2:	d114      	bne.n	8001bce <HAL_ADC_Start+0x17e>
      {
        /* Enable the selected ADC software conversion for regular group */
          hadc->Instance->CR2 |= (uint32_t)ADC_CR2_SWSTART;
 8001ba4:	687b      	ldr	r3, [r7, #4]
 8001ba6:	681b      	ldr	r3, [r3, #0]
 8001ba8:	689a      	ldr	r2, [r3, #8]
 8001baa:	687b      	ldr	r3, [r7, #4]
 8001bac:	681b      	ldr	r3, [r3, #0]
 8001bae:	f042 4280 	orr.w	r2, r2, #1073741824	; 0x40000000
 8001bb2:	609a      	str	r2, [r3, #8]
 8001bb4:	e00b      	b.n	8001bce <HAL_ADC_Start+0x17e>
    }
  }
  else
  {
    /* Update ADC state machine to error */
    SET_BIT(hadc->State, HAL_ADC_STATE_ERROR_INTERNAL);
 8001bb6:	687b      	ldr	r3, [r7, #4]
 8001bb8:	6c1b      	ldr	r3, [r3, #64]	; 0x40
 8001bba:	f043 0210 	orr.w	r2, r3, #16
 8001bbe:	687b      	ldr	r3, [r7, #4]
 8001bc0:	641a      	str	r2, [r3, #64]	; 0x40

    /* Set ADC error code to ADC IP internal error */
    SET_BIT(hadc->ErrorCode, HAL_ADC_ERROR_INTERNAL);
 8001bc2:	687b      	ldr	r3, [r7, #4]
 8001bc4:	6c5b      	ldr	r3, [r3, #68]	; 0x44
 8001bc6:	f043 0201 	orr.w	r2, r3, #1
 8001bca:	687b      	ldr	r3, [r7, #4]
 8001bcc:	645a      	str	r2, [r3, #68]	; 0x44
  }
  
  /* Return function status */
  return HAL_OK;
 8001bce:	2300      	movs	r3, #0
}
 8001bd0:	4618      	mov	r0, r3
 8001bd2:	3714      	adds	r7, #20
 8001bd4:	46bd      	mov	sp, r7
 8001bd6:	f85d 7b04 	ldr.w	r7, [sp], #4
 8001bda:	4770      	bx	lr
 8001bdc:	20000004 	.word	0x20000004
 8001be0:	431bde83 	.word	0x431bde83
 8001be4:	40012300 	.word	0x40012300
 8001be8:	40012000 	.word	0x40012000
 8001bec:	40012100 	.word	0x40012100
 8001bf0:	40012200 	.word	0x40012200

08001bf4 <HAL_ADC_Stop>:
  *         the configuration information for the specified ADC.
  *
  * @retval HAL status.
  */
HAL_StatusTypeDef HAL_ADC_Stop(ADC_HandleTypeDef* hadc)
{
 8001bf4:	b480      	push	{r7}
 8001bf6:	b083      	sub	sp, #12
 8001bf8:	af00      	add	r7, sp, #0
 8001bfa:	6078      	str	r0, [r7, #4]
  /* Check the parameters */
  assert_param(IS_ADC_ALL_INSTANCE(hadc->Instance));
  
  /* Process locked */
  __HAL_LOCK(hadc);
 8001bfc:	687b      	ldr	r3, [r7, #4]
 8001bfe:	f893 303c 	ldrb.w	r3, [r3, #60]	; 0x3c
 8001c02:	2b01      	cmp	r3, #1
 8001c04:	d101      	bne.n	8001c0a <HAL_ADC_Stop+0x16>
 8001c06:	2302      	movs	r3, #2
 8001c08:	e021      	b.n	8001c4e <HAL_ADC_Stop+0x5a>
 8001c0a:	687b      	ldr	r3, [r7, #4]
 8001c0c:	2201      	movs	r2, #1
 8001c0e:	f883 203c 	strb.w	r2, [r3, #60]	; 0x3c
  
  /* Stop potential conversion on going, on regular and injected groups */
  /* Disable ADC peripheral */
  __HAL_ADC_DISABLE(hadc);
 8001c12:	687b      	ldr	r3, [r7, #4]
 8001c14:	681b      	ldr	r3, [r3, #0]
 8001c16:	689a      	ldr	r2, [r3, #8]
 8001c18:	687b      	ldr	r3, [r7, #4]
 8001c1a:	681b      	ldr	r3, [r3, #0]
 8001c1c:	f022 0201 	bic.w	r2, r2, #1
 8001c20:	609a      	str	r2, [r3, #8]
  
  /* Check if ADC is effectively disabled */
  if(HAL_IS_BIT_CLR(hadc->Instance->CR2, ADC_CR2_ADON))
 8001c22:	687b      	ldr	r3, [r7, #4]
 8001c24:	681b      	ldr	r3, [r3, #0]
 8001c26:	689b      	ldr	r3, [r3, #8]
 8001c28:	f003 0301 	and.w	r3, r3, #1
 8001c2c:	2b00      	cmp	r3, #0
 8001c2e:	d109      	bne.n	8001c44 <HAL_ADC_Stop+0x50>
  {
    /* Set ADC state */
    ADC_STATE_CLR_SET(hadc->State,
 8001c30:	687b      	ldr	r3, [r7, #4]
 8001c32:	6c1b      	ldr	r3, [r3, #64]	; 0x40
 8001c34:	f423 5388 	bic.w	r3, r3, #4352	; 0x1100
 8001c38:	f023 0301 	bic.w	r3, r3, #1
 8001c3c:	f043 0201 	orr.w	r2, r3, #1
 8001c40:	687b      	ldr	r3, [r7, #4]
 8001c42:	641a      	str	r2, [r3, #64]	; 0x40
                      HAL_ADC_STATE_REG_BUSY | HAL_ADC_STATE_INJ_BUSY,
                      HAL_ADC_STATE_READY);
  }
  
  /* Process unlocked */
  __HAL_UNLOCK(hadc);
 8001c44:	687b      	ldr	r3, [r7, #4]
 8001c46:	2200      	movs	r2, #0
 8001c48:	f883 203c 	strb.w	r2, [r3, #60]	; 0x3c
  
  /* Return function status */
  return HAL_OK;
 8001c4c:	2300      	movs	r3, #0
}
 8001c4e:	4618      	mov	r0, r3
 8001c50:	370c      	adds	r7, #12
 8001c52:	46bd      	mov	sp, r7
 8001c54:	f85d 7b04 	ldr.w	r7, [sp], #4
 8001c58:	4770      	bx	lr

08001c5a <HAL_ADC_PollForConversion>:
  *         the configuration information for the specified ADC.
  * @param  Timeout Timeout value in millisecond.  
  * @retval HAL status
  */
HAL_StatusTypeDef HAL_ADC_PollForConversion(ADC_HandleTypeDef* hadc, uint32_t Timeout)
{
 8001c5a:	b580      	push	{r7, lr}
 8001c5c:	b084      	sub	sp, #16
 8001c5e:	af00      	add	r7, sp, #0
 8001c60:	6078      	str	r0, [r7, #4]
 8001c62:	6039      	str	r1, [r7, #0]
  uint32_t tickstart = 0U;
 8001c64:	2300      	movs	r3, #0
 8001c66:	60fb      	str	r3, [r7, #12]
  /* each conversion:                                                       */
  /* Particular case is ADC configured in DMA mode and ADC sequencer with   */
  /* several ranks and polling for end of each conversion.                  */
  /* For code simplicity sake, this particular case is generalized to       */
  /* ADC configured in DMA mode and polling for end of each conversion.     */
  if (HAL_IS_BIT_SET(hadc->Instance->CR2, ADC_CR2_EOCS) &&
 8001c68:	687b      	ldr	r3, [r7, #4]
 8001c6a:	681b      	ldr	r3, [r3, #0]
 8001c6c:	689b      	ldr	r3, [r3, #8]
 8001c6e:	f403 6380 	and.w	r3, r3, #1024	; 0x400
 8001c72:	f5b3 6f80 	cmp.w	r3, #1024	; 0x400
 8001c76:	d113      	bne.n	8001ca0 <HAL_ADC_PollForConversion+0x46>
      HAL_IS_BIT_SET(hadc->Instance->CR2, ADC_CR2_DMA)    )
 8001c78:	687b      	ldr	r3, [r7, #4]
 8001c7a:	681b      	ldr	r3, [r3, #0]
 8001c7c:	689b      	ldr	r3, [r3, #8]
 8001c7e:	f403 7380 	and.w	r3, r3, #256	; 0x100
  if (HAL_IS_BIT_SET(hadc->Instance->CR2, ADC_CR2_EOCS) &&
 8001c82:	f5b3 7f80 	cmp.w	r3, #256	; 0x100
 8001c86:	d10b      	bne.n	8001ca0 <HAL_ADC_PollForConversion+0x46>
  {
    /* Update ADC state machine to error */
    SET_BIT(hadc->State, HAL_ADC_STATE_ERROR_CONFIG);
 8001c88:	687b      	ldr	r3, [r7, #4]
 8001c8a:	6c1b      	ldr	r3, [r3, #64]	; 0x40
 8001c8c:	f043 0220 	orr.w	r2, r3, #32
 8001c90:	687b      	ldr	r3, [r7, #4]
 8001c92:	641a      	str	r2, [r3, #64]	; 0x40
    
    /* Process unlocked */
    __HAL_UNLOCK(hadc);
 8001c94:	687b      	ldr	r3, [r7, #4]
 8001c96:	2200      	movs	r2, #0
 8001c98:	f883 203c 	strb.w	r2, [r3, #60]	; 0x3c
    
    return HAL_ERROR;
 8001c9c:	2301      	movs	r3, #1
 8001c9e:	e063      	b.n	8001d68 <HAL_ADC_PollForConversion+0x10e>
  }

  /* Get tick */ 
  tickstart = HAL_GetTick();
 8001ca0:	f7ff fe62 	bl	8001968 <HAL_GetTick>
 8001ca4:	60f8      	str	r0, [r7, #12]

  /* Check End of conversion flag */
  while(!(__HAL_ADC_GET_FLAG(hadc, ADC_FLAG_EOC)))
 8001ca6:	e021      	b.n	8001cec <HAL_ADC_PollForConversion+0x92>
  {
    /* Check if timeout is disabled (set to infinite wait) */
    if(Timeout != HAL_MAX_DELAY)
 8001ca8:	683b      	ldr	r3, [r7, #0]
 8001caa:	f1b3 3fff 	cmp.w	r3, #4294967295
 8001cae:	d01d      	beq.n	8001cec <HAL_ADC_PollForConversion+0x92>
    {
      if((Timeout == 0U) || ((HAL_GetTick() - tickstart ) > Timeout))
 8001cb0:	683b      	ldr	r3, [r7, #0]
 8001cb2:	2b00      	cmp	r3, #0
 8001cb4:	d007      	beq.n	8001cc6 <HAL_ADC_PollForConversion+0x6c>
 8001cb6:	f7ff fe57 	bl	8001968 <HAL_GetTick>
 8001cba:	4602      	mov	r2, r0
 8001cbc:	68fb      	ldr	r3, [r7, #12]
 8001cbe:	1ad3      	subs	r3, r2, r3
 8001cc0:	683a      	ldr	r2, [r7, #0]
 8001cc2:	429a      	cmp	r2, r3
 8001cc4:	d212      	bcs.n	8001cec <HAL_ADC_PollForConversion+0x92>
      {
        /* New check to avoid false timeout detection in case of preemption */
        if(!(__HAL_ADC_GET_FLAG(hadc, ADC_FLAG_EOC)))
 8001cc6:	687b      	ldr	r3, [r7, #4]
 8001cc8:	681b      	ldr	r3, [r3, #0]
 8001cca:	681b      	ldr	r3, [r3, #0]
 8001ccc:	f003 0302 	and.w	r3, r3, #2
 8001cd0:	2b02      	cmp	r3, #2
 8001cd2:	d00b      	beq.n	8001cec <HAL_ADC_PollForConversion+0x92>
        {
          /* Update ADC state machine to timeout */
          SET_BIT(hadc->State, HAL_ADC_STATE_TIMEOUT);
 8001cd4:	687b      	ldr	r3, [r7, #4]
 8001cd6:	6c1b      	ldr	r3, [r3, #64]	; 0x40
 8001cd8:	f043 0204 	orr.w	r2, r3, #4
 8001cdc:	687b      	ldr	r3, [r7, #4]
 8001cde:	641a      	str	r2, [r3, #64]	; 0x40
          
          /* Process unlocked */
          __HAL_UNLOCK(hadc);
 8001ce0:	687b      	ldr	r3, [r7, #4]
 8001ce2:	2200      	movs	r2, #0
 8001ce4:	f883 203c 	strb.w	r2, [r3, #60]	; 0x3c
          
          return HAL_TIMEOUT;
 8001ce8:	2303      	movs	r3, #3
 8001cea:	e03d      	b.n	8001d68 <HAL_ADC_PollForConversion+0x10e>
  while(!(__HAL_ADC_GET_FLAG(hadc, ADC_FLAG_EOC)))
 8001cec:	687b      	ldr	r3, [r7, #4]
 8001cee:	681b      	ldr	r3, [r3, #0]
 8001cf0:	681b      	ldr	r3, [r3, #0]
 8001cf2:	f003 0302 	and.w	r3, r3, #2
 8001cf6:	2b02      	cmp	r3, #2
 8001cf8:	d1d6      	bne.n	8001ca8 <HAL_ADC_PollForConversion+0x4e>
      }
    }
  }
  
  /* Clear regular group conversion flag */
  __HAL_ADC_CLEAR_FLAG(hadc, ADC_FLAG_STRT | ADC_FLAG_EOC);
 8001cfa:	687b      	ldr	r3, [r7, #4]
 8001cfc:	681b      	ldr	r3, [r3, #0]
 8001cfe:	f06f 0212 	mvn.w	r2, #18
 8001d02:	601a      	str	r2, [r3, #0]
  
  /* Update ADC state machine */
  SET_BIT(hadc->State, HAL_ADC_STATE_REG_EOC);
 8001d04:	687b      	ldr	r3, [r7, #4]
 8001d06:	6c1b      	ldr	r3, [r3, #64]	; 0x40
 8001d08:	f443 7200 	orr.w	r2, r3, #512	; 0x200
 8001d0c:	687b      	ldr	r3, [r7, #4]
 8001d0e:	641a      	str	r2, [r3, #64]	; 0x40
  /* by external trigger, continuous mode or scan sequence on going.          */
  /* Note: On STM32F4, there is no independent flag of end of sequence.       */
  /*       The test of scan sequence on going is done either with scan        */
  /*       sequence disabled or with end of conversion flag set to            */
  /*       of end of sequence.                                                */
  if(ADC_IS_SOFTWARE_START_REGULAR(hadc)                   &&
 8001d10:	687b      	ldr	r3, [r7, #4]
 8001d12:	681b      	ldr	r3, [r3, #0]
 8001d14:	689b      	ldr	r3, [r3, #8]
 8001d16:	f003 5340 	and.w	r3, r3, #805306368	; 0x30000000
 8001d1a:	2b00      	cmp	r3, #0
 8001d1c:	d123      	bne.n	8001d66 <HAL_ADC_PollForConversion+0x10c>
     (hadc->Init.ContinuousConvMode == DISABLE)            &&
 8001d1e:	687b      	ldr	r3, [r7, #4]
 8001d20:	7e1b      	ldrb	r3, [r3, #24]
  if(ADC_IS_SOFTWARE_START_REGULAR(hadc)                   &&
 8001d22:	2b00      	cmp	r3, #0
 8001d24:	d11f      	bne.n	8001d66 <HAL_ADC_PollForConversion+0x10c>
     (HAL_IS_BIT_CLR(hadc->Instance->SQR1, ADC_SQR1_L) ||
 8001d26:	687b      	ldr	r3, [r7, #4]
 8001d28:	681b      	ldr	r3, [r3, #0]
 8001d2a:	6adb      	ldr	r3, [r3, #44]	; 0x2c
 8001d2c:	f403 0370 	and.w	r3, r3, #15728640	; 0xf00000
     (hadc->Init.ContinuousConvMode == DISABLE)            &&
 8001d30:	2b00      	cmp	r3, #0
 8001d32:	d006      	beq.n	8001d42 <HAL_ADC_PollForConversion+0xe8>
      HAL_IS_BIT_CLR(hadc->Instance->CR2, ADC_CR2_EOCS)  )   )
 8001d34:	687b      	ldr	r3, [r7, #4]
 8001d36:	681b      	ldr	r3, [r3, #0]
 8001d38:	689b      	ldr	r3, [r3, #8]
 8001d3a:	f403 6380 	and.w	r3, r3, #1024	; 0x400
     (HAL_IS_BIT_CLR(hadc->Instance->SQR1, ADC_SQR1_L) ||
 8001d3e:	2b00      	cmp	r3, #0
 8001d40:	d111      	bne.n	8001d66 <HAL_ADC_PollForConversion+0x10c>
  {
    /* Set ADC state */
    CLEAR_BIT(hadc->State, HAL_ADC_STATE_REG_BUSY);   
 8001d42:	687b      	ldr	r3, [r7, #4]
 8001d44:	6c1b      	ldr	r3, [r3, #64]	; 0x40
 8001d46:	f423 7280 	bic.w	r2, r3, #256	; 0x100
 8001d4a:	687b      	ldr	r3, [r7, #4]
 8001d4c:	641a      	str	r2, [r3, #64]	; 0x40
    
    if (HAL_IS_BIT_CLR(hadc->State, HAL_ADC_STATE_INJ_BUSY))
 8001d4e:	687b      	ldr	r3, [r7, #4]
 8001d50:	6c1b      	ldr	r3, [r3, #64]	; 0x40
 8001d52:	f403 5380 	and.w	r3, r3, #4096	; 0x1000
 8001d56:	2b00      	cmp	r3, #0
 8001d58:	d105      	bne.n	8001d66 <HAL_ADC_PollForConversion+0x10c>
    { 
      SET_BIT(hadc->State, HAL_ADC_STATE_READY);
 8001d5a:	687b      	ldr	r3, [r7, #4]
 8001d5c:	6c1b      	ldr	r3, [r3, #64]	; 0x40
 8001d5e:	f043 0201 	orr.w	r2, r3, #1
 8001d62:	687b      	ldr	r3, [r7, #4]
 8001d64:	641a      	str	r2, [r3, #64]	; 0x40
    }
  }
  
  /* Return ADC state */
  return HAL_OK;
 8001d66:	2300      	movs	r3, #0
}
 8001d68:	4618      	mov	r0, r3
 8001d6a:	3710      	adds	r7, #16
 8001d6c:	46bd      	mov	sp, r7
 8001d6e:	bd80      	pop	{r7, pc}

08001d70 <HAL_ADC_GetValue>:
  * @param  hadc pointer to a ADC_HandleTypeDef structure that contains
  *         the configuration information for the specified ADC.
  * @retval Converted value
  */
uint32_t HAL_ADC_GetValue(ADC_HandleTypeDef* hadc)
{       
 8001d70:	b480      	push	{r7}
 8001d72:	b083      	sub	sp, #12
 8001d74:	af00      	add	r7, sp, #0
 8001d76:	6078      	str	r0, [r7, #4]
  /* Return the selected ADC converted value */ 
  return hadc->Instance->DR;
 8001d78:	687b      	ldr	r3, [r7, #4]
 8001d7a:	681b      	ldr	r3, [r3, #0]
 8001d7c:	6cdb      	ldr	r3, [r3, #76]	; 0x4c
}
 8001d7e:	4618      	mov	r0, r3
 8001d80:	370c      	adds	r7, #12
 8001d82:	46bd      	mov	sp, r7
 8001d84:	f85d 7b04 	ldr.w	r7, [sp], #4
 8001d88:	4770      	bx	lr
	...

08001d8c <HAL_ADC_ConfigChannel>:
  *         the configuration information for the specified ADC.
  * @param  sConfig ADC configuration structure. 
  * @retval HAL status
  */
HAL_StatusTypeDef HAL_ADC_ConfigChannel(ADC_HandleTypeDef* hadc, ADC_ChannelConfTypeDef* sConfig)
{
 8001d8c:	b480      	push	{r7}
 8001d8e:	b085      	sub	sp, #20
 8001d90:	af00      	add	r7, sp, #0
 8001d92:	6078      	str	r0, [r7, #4]
 8001d94:	6039      	str	r1, [r7, #0]
  __IO uint32_t counter = 0U;
 8001d96:	2300      	movs	r3, #0
 8001d98:	60bb      	str	r3, [r7, #8]
  assert_param(IS_ADC_CHANNEL(sConfig->Channel));
  assert_param(IS_ADC_REGULAR_RANK(sConfig->Rank));
  assert_param(IS_ADC_SAMPLE_TIME(sConfig->SamplingTime));
  
  /* Process locked */
  __HAL_LOCK(hadc);
 8001d9a:	687b      	ldr	r3, [r7, #4]
 8001d9c:	f893 303c 	ldrb.w	r3, [r3, #60]	; 0x3c
 8001da0:	2b01      	cmp	r3, #1
 8001da2:	d101      	bne.n	8001da8 <HAL_ADC_ConfigChannel+0x1c>
 8001da4:	2302      	movs	r3, #2
 8001da6:	e113      	b.n	8001fd0 <HAL_ADC_ConfigChannel+0x244>
 8001da8:	687b      	ldr	r3, [r7, #4]
 8001daa:	2201      	movs	r2, #1
 8001dac:	f883 203c 	strb.w	r2, [r3, #60]	; 0x3c
    
  /* if ADC_Channel_10 ... ADC_Channel_18 is selected */
  if (sConfig->Channel > ADC_CHANNEL_9)
 8001db0:	683b      	ldr	r3, [r7, #0]
 8001db2:	681b      	ldr	r3, [r3, #0]
 8001db4:	2b09      	cmp	r3, #9
 8001db6:	d925      	bls.n	8001e04 <HAL_ADC_ConfigChannel+0x78>
  {
    /* Clear the old sample time */
    hadc->Instance->SMPR1 &= ~ADC_SMPR1(ADC_SMPR1_SMP10, sConfig->Channel);
 8001db8:	687b      	ldr	r3, [r7, #4]
 8001dba:	681b      	ldr	r3, [r3, #0]
 8001dbc:	68d9      	ldr	r1, [r3, #12]
 8001dbe:	683b      	ldr	r3, [r7, #0]
 8001dc0:	681b      	ldr	r3, [r3, #0]
 8001dc2:	b29b      	uxth	r3, r3
 8001dc4:	461a      	mov	r2, r3
 8001dc6:	4613      	mov	r3, r2
 8001dc8:	005b      	lsls	r3, r3, #1
 8001dca:	4413      	add	r3, r2
 8001dcc:	3b1e      	subs	r3, #30
 8001dce:	2207      	movs	r2, #7
 8001dd0:	fa02 f303 	lsl.w	r3, r2, r3
 8001dd4:	43da      	mvns	r2, r3
 8001dd6:	687b      	ldr	r3, [r7, #4]
 8001dd8:	681b      	ldr	r3, [r3, #0]
 8001dda:	400a      	ands	r2, r1
 8001ddc:	60da      	str	r2, [r3, #12]
    
    /* Set the new sample time */
    hadc->Instance->SMPR1 |= ADC_SMPR1(sConfig->SamplingTime, sConfig->Channel);
 8001dde:	687b      	ldr	r3, [r7, #4]
 8001de0:	681b      	ldr	r3, [r3, #0]
 8001de2:	68d9      	ldr	r1, [r3, #12]
 8001de4:	683b      	ldr	r3, [r7, #0]
 8001de6:	689a      	ldr	r2, [r3, #8]
 8001de8:	683b      	ldr	r3, [r7, #0]
 8001dea:	681b      	ldr	r3, [r3, #0]
 8001dec:	b29b      	uxth	r3, r3
 8001dee:	4618      	mov	r0, r3
 8001df0:	4603      	mov	r3, r0
 8001df2:	005b      	lsls	r3, r3, #1
 8001df4:	4403      	add	r3, r0
 8001df6:	3b1e      	subs	r3, #30
 8001df8:	409a      	lsls	r2, r3
 8001dfa:	687b      	ldr	r3, [r7, #4]
 8001dfc:	681b      	ldr	r3, [r3, #0]
 8001dfe:	430a      	orrs	r2, r1
 8001e00:	60da      	str	r2, [r3, #12]
 8001e02:	e022      	b.n	8001e4a <HAL_ADC_ConfigChannel+0xbe>
  }
  else /* ADC_Channel include in ADC_Channel_[0..9] */
  {
    /* Clear the old sample time */
    hadc->Instance->SMPR2 &= ~ADC_SMPR2(ADC_SMPR2_SMP0, sConfig->Channel);
 8001e04:	687b      	ldr	r3, [r7, #4]
 8001e06:	681b      	ldr	r3, [r3, #0]
 8001e08:	6919      	ldr	r1, [r3, #16]
 8001e0a:	683b      	ldr	r3, [r7, #0]
 8001e0c:	681b      	ldr	r3, [r3, #0]
 8001e0e:	b29b      	uxth	r3, r3
 8001e10:	461a      	mov	r2, r3
 8001e12:	4613      	mov	r3, r2
 8001e14:	005b      	lsls	r3, r3, #1
 8001e16:	4413      	add	r3, r2
 8001e18:	2207      	movs	r2, #7
 8001e1a:	fa02 f303 	lsl.w	r3, r2, r3
 8001e1e:	43da      	mvns	r2, r3
 8001e20:	687b      	ldr	r3, [r7, #4]
 8001e22:	681b      	ldr	r3, [r3, #0]
 8001e24:	400a      	ands	r2, r1
 8001e26:	611a      	str	r2, [r3, #16]
    
    /* Set the new sample time */
    hadc->Instance->SMPR2 |= ADC_SMPR2(sConfig->SamplingTime, sConfig->Channel);
 8001e28:	687b      	ldr	r3, [r7, #4]
 8001e2a:	681b      	ldr	r3, [r3, #0]
 8001e2c:	6919      	ldr	r1, [r3, #16]
 8001e2e:	683b      	ldr	r3, [r7, #0]
 8001e30:	689a      	ldr	r2, [r3, #8]
 8001e32:	683b      	ldr	r3, [r7, #0]
 8001e34:	681b      	ldr	r3, [r3, #0]
 8001e36:	b29b      	uxth	r3, r3
 8001e38:	4618      	mov	r0, r3
 8001e3a:	4603      	mov	r3, r0
 8001e3c:	005b      	lsls	r3, r3, #1
 8001e3e:	4403      	add	r3, r0
 8001e40:	409a      	lsls	r2, r3
 8001e42:	687b      	ldr	r3, [r7, #4]
 8001e44:	681b      	ldr	r3, [r3, #0]
 8001e46:	430a      	orrs	r2, r1
 8001e48:	611a      	str	r2, [r3, #16]
  }
  
  /* For Rank 1 to 6 */
  if (sConfig->Rank < 7U)
 8001e4a:	683b      	ldr	r3, [r7, #0]
 8001e4c:	685b      	ldr	r3, [r3, #4]
 8001e4e:	2b06      	cmp	r3, #6
 8001e50:	d824      	bhi.n	8001e9c <HAL_ADC_ConfigChannel+0x110>
  {
    /* Clear the old SQx bits for the selected rank */
    hadc->Instance->SQR3 &= ~ADC_SQR3_RK(ADC_SQR3_SQ1, sConfig->Rank);
 8001e52:	687b      	ldr	r3, [r7, #4]
 8001e54:	681b      	ldr	r3, [r3, #0]
 8001e56:	6b59      	ldr	r1, [r3, #52]	; 0x34
 8001e58:	683b      	ldr	r3, [r7, #0]
 8001e5a:	685a      	ldr	r2, [r3, #4]
 8001e5c:	4613      	mov	r3, r2
 8001e5e:	009b      	lsls	r3, r3, #2
 8001e60:	4413      	add	r3, r2
 8001e62:	3b05      	subs	r3, #5
 8001e64:	221f      	movs	r2, #31
 8001e66:	fa02 f303 	lsl.w	r3, r2, r3
 8001e6a:	43da      	mvns	r2, r3
 8001e6c:	687b      	ldr	r3, [r7, #4]
 8001e6e:	681b      	ldr	r3, [r3, #0]
 8001e70:	400a      	ands	r2, r1
 8001e72:	635a      	str	r2, [r3, #52]	; 0x34
    
    /* Set the SQx bits for the selected rank */
    hadc->Instance->SQR3 |= ADC_SQR3_RK(sConfig->Channel, sConfig->Rank);
 8001e74:	687b      	ldr	r3, [r7, #4]
 8001e76:	681b      	ldr	r3, [r3, #0]
 8001e78:	6b59      	ldr	r1, [r3, #52]	; 0x34
 8001e7a:	683b      	ldr	r3, [r7, #0]
 8001e7c:	681b      	ldr	r3, [r3, #0]
 8001e7e:	b29b      	uxth	r3, r3
 8001e80:	4618      	mov	r0, r3
 8001e82:	683b      	ldr	r3, [r7, #0]
 8001e84:	685a      	ldr	r2, [r3, #4]
 8001e86:	4613      	mov	r3, r2
 8001e88:	009b      	lsls	r3, r3, #2
 8001e8a:	4413      	add	r3, r2
 8001e8c:	3b05      	subs	r3, #5
 8001e8e:	fa00 f203 	lsl.w	r2, r0, r3
 8001e92:	687b      	ldr	r3, [r7, #4]
 8001e94:	681b      	ldr	r3, [r3, #0]
 8001e96:	430a      	orrs	r2, r1
 8001e98:	635a      	str	r2, [r3, #52]	; 0x34
 8001e9a:	e04c      	b.n	8001f36 <HAL_ADC_ConfigChannel+0x1aa>
  }
  /* For Rank 7 to 12 */
  else if (sConfig->Rank < 13U)
 8001e9c:	683b      	ldr	r3, [r7, #0]
 8001e9e:	685b      	ldr	r3, [r3, #4]
 8001ea0:	2b0c      	cmp	r3, #12
 8001ea2:	d824      	bhi.n	8001eee <HAL_ADC_ConfigChannel+0x162>
  {
    /* Clear the old SQx bits for the selected rank */
    hadc->Instance->SQR2 &= ~ADC_SQR2_RK(ADC_SQR2_SQ7, sConfig->Rank);
 8001ea4:	687b      	ldr	r3, [r7, #4]
 8001ea6:	681b      	ldr	r3, [r3, #0]
 8001ea8:	6b19      	ldr	r1, [r3, #48]	; 0x30
 8001eaa:	683b      	ldr	r3, [r7, #0]
 8001eac:	685a      	ldr	r2, [r3, #4]
 8001eae:	4613      	mov	r3, r2
 8001eb0:	009b      	lsls	r3, r3, #2
 8001eb2:	4413      	add	r3, r2
 8001eb4:	3b23      	subs	r3, #35	; 0x23
 8001eb6:	221f      	movs	r2, #31
 8001eb8:	fa02 f303 	lsl.w	r3, r2, r3
 8001ebc:	43da      	mvns	r2, r3
 8001ebe:	687b      	ldr	r3, [r7, #4]
 8001ec0:	681b      	ldr	r3, [r3, #0]
 8001ec2:	400a      	ands	r2, r1
 8001ec4:	631a      	str	r2, [r3, #48]	; 0x30
    
    /* Set the SQx bits for the selected rank */
    hadc->Instance->SQR2 |= ADC_SQR2_RK(sConfig->Channel, sConfig->Rank);
 8001ec6:	687b      	ldr	r3, [r7, #4]
 8001ec8:	681b      	ldr	r3, [r3, #0]
 8001eca:	6b19      	ldr	r1, [r3, #48]	; 0x30
 8001ecc:	683b      	ldr	r3, [r7, #0]
 8001ece:	681b      	ldr	r3, [r3, #0]
 8001ed0:	b29b      	uxth	r3, r3
 8001ed2:	4618      	mov	r0, r3
 8001ed4:	683b      	ldr	r3, [r7, #0]
 8001ed6:	685a      	ldr	r2, [r3, #4]
 8001ed8:	4613      	mov	r3, r2
 8001eda:	009b      	lsls	r3, r3, #2
 8001edc:	4413      	add	r3, r2
 8001ede:	3b23      	subs	r3, #35	; 0x23
 8001ee0:	fa00 f203 	lsl.w	r2, r0, r3
 8001ee4:	687b      	ldr	r3, [r7, #4]
 8001ee6:	681b      	ldr	r3, [r3, #0]
 8001ee8:	430a      	orrs	r2, r1
 8001eea:	631a      	str	r2, [r3, #48]	; 0x30
 8001eec:	e023      	b.n	8001f36 <HAL_ADC_ConfigChannel+0x1aa>
  }
  /* For Rank 13 to 16 */
  else
  {
    /* Clear the old SQx bits for the selected rank */
    hadc->Instance->SQR1 &= ~ADC_SQR1_RK(ADC_SQR1_SQ13, sConfig->Rank);
 8001eee:	687b      	ldr	r3, [r7, #4]
 8001ef0:	681b      	ldr	r3, [r3, #0]
 8001ef2:	6ad9      	ldr	r1, [r3, #44]	; 0x2c
 8001ef4:	683b      	ldr	r3, [r7, #0]
 8001ef6:	685a      	ldr	r2, [r3, #4]
 8001ef8:	4613      	mov	r3, r2
 8001efa:	009b      	lsls	r3, r3, #2
 8001efc:	4413      	add	r3, r2
 8001efe:	3b41      	subs	r3, #65	; 0x41
 8001f00:	221f      	movs	r2, #31
 8001f02:	fa02 f303 	lsl.w	r3, r2, r3
 8001f06:	43da      	mvns	r2, r3
 8001f08:	687b      	ldr	r3, [r7, #4]
 8001f0a:	681b      	ldr	r3, [r3, #0]
 8001f0c:	400a      	ands	r2, r1
 8001f0e:	62da      	str	r2, [r3, #44]	; 0x2c
    
    /* Set the SQx bits for the selected rank */
    hadc->Instance->SQR1 |= ADC_SQR1_RK(sConfig->Channel, sConfig->Rank);
 8001f10:	687b      	ldr	r3, [r7, #4]
 8001f12:	681b      	ldr	r3, [r3, #0]
 8001f14:	6ad9      	ldr	r1, [r3, #44]	; 0x2c
 8001f16:	683b      	ldr	r3, [r7, #0]
 8001f18:	681b      	ldr	r3, [r3, #0]
 8001f1a:	b29b      	uxth	r3, r3
 8001f1c:	4618      	mov	r0, r3
 8001f1e:	683b      	ldr	r3, [r7, #0]
 8001f20:	685a      	ldr	r2, [r3, #4]
 8001f22:	4613      	mov	r3, r2
 8001f24:	009b      	lsls	r3, r3, #2
 8001f26:	4413      	add	r3, r2
 8001f28:	3b41      	subs	r3, #65	; 0x41
 8001f2a:	fa00 f203 	lsl.w	r2, r0, r3
 8001f2e:	687b      	ldr	r3, [r7, #4]
 8001f30:	681b      	ldr	r3, [r3, #0]
 8001f32:	430a      	orrs	r2, r1
 8001f34:	62da      	str	r2, [r3, #44]	; 0x2c
  }

    /* Pointer to the common control register to which is belonging hadc    */
    /* (Depending on STM32F4 product, there may be up to 3 ADCs and 1 common */
    /* control register)                                                    */
    tmpADC_Common = ADC_COMMON_REGISTER(hadc);
 8001f36:	4b29      	ldr	r3, [pc, #164]	; (8001fdc <HAL_ADC_ConfigChannel+0x250>)
 8001f38:	60fb      	str	r3, [r7, #12]

  /* if ADC1 Channel_18 is selected for VBAT Channel ennable VBATE */
  if ((hadc->Instance == ADC1) && (sConfig->Channel == ADC_CHANNEL_VBAT))
 8001f3a:	687b      	ldr	r3, [r7, #4]
 8001f3c:	681b      	ldr	r3, [r3, #0]
 8001f3e:	4a28      	ldr	r2, [pc, #160]	; (8001fe0 <HAL_ADC_ConfigChannel+0x254>)
 8001f40:	4293      	cmp	r3, r2
 8001f42:	d10f      	bne.n	8001f64 <HAL_ADC_ConfigChannel+0x1d8>
 8001f44:	683b      	ldr	r3, [r7, #0]
 8001f46:	681b      	ldr	r3, [r3, #0]
 8001f48:	2b12      	cmp	r3, #18
 8001f4a:	d10b      	bne.n	8001f64 <HAL_ADC_ConfigChannel+0x1d8>
  {
    /* Disable the TEMPSENSOR channel in case of using board with multiplixed ADC_CHANNEL_VBAT & ADC_CHANNEL_TEMPSENSOR*/    
    if ((uint16_t)ADC_CHANNEL_TEMPSENSOR == (uint16_t)ADC_CHANNEL_VBAT)
    {
      tmpADC_Common->CCR &= ~ADC_CCR_TSVREFE;
 8001f4c:	68fb      	ldr	r3, [r7, #12]
 8001f4e:	685b      	ldr	r3, [r3, #4]
 8001f50:	f423 0200 	bic.w	r2, r3, #8388608	; 0x800000
 8001f54:	68fb      	ldr	r3, [r7, #12]
 8001f56:	605a      	str	r2, [r3, #4]
    }
    /* Enable the VBAT channel*/
    tmpADC_Common->CCR |= ADC_CCR_VBATE;
 8001f58:	68fb      	ldr	r3, [r7, #12]
 8001f5a:	685b      	ldr	r3, [r3, #4]
 8001f5c:	f443 0280 	orr.w	r2, r3, #4194304	; 0x400000
 8001f60:	68fb      	ldr	r3, [r7, #12]
 8001f62:	605a      	str	r2, [r3, #4]
  }
  
  /* if ADC1 Channel_16 or Channel_18 is selected for Temperature sensor or 
     Channel_17 is selected for VREFINT enable TSVREFE */
  if ((hadc->Instance == ADC1) && ((sConfig->Channel == ADC_CHANNEL_TEMPSENSOR) || (sConfig->Channel == ADC_CHANNEL_VREFINT)))
 8001f64:	687b      	ldr	r3, [r7, #4]
 8001f66:	681b      	ldr	r3, [r3, #0]
 8001f68:	4a1d      	ldr	r2, [pc, #116]	; (8001fe0 <HAL_ADC_ConfigChannel+0x254>)
 8001f6a:	4293      	cmp	r3, r2
 8001f6c:	d12b      	bne.n	8001fc6 <HAL_ADC_ConfigChannel+0x23a>
 8001f6e:	683b      	ldr	r3, [r7, #0]
 8001f70:	681b      	ldr	r3, [r3, #0]
 8001f72:	4a1c      	ldr	r2, [pc, #112]	; (8001fe4 <HAL_ADC_ConfigChannel+0x258>)
 8001f74:	4293      	cmp	r3, r2
 8001f76:	d003      	beq.n	8001f80 <HAL_ADC_ConfigChannel+0x1f4>
 8001f78:	683b      	ldr	r3, [r7, #0]
 8001f7a:	681b      	ldr	r3, [r3, #0]
 8001f7c:	2b11      	cmp	r3, #17
 8001f7e:	d122      	bne.n	8001fc6 <HAL_ADC_ConfigChannel+0x23a>
  {
    /* Disable the VBAT channel in case of using board with multiplixed ADC_CHANNEL_VBAT & ADC_CHANNEL_TEMPSENSOR*/
    if ((uint16_t)ADC_CHANNEL_TEMPSENSOR == (uint16_t)ADC_CHANNEL_VBAT)
    {
      tmpADC_Common->CCR &= ~ADC_CCR_VBATE;
 8001f80:	68fb      	ldr	r3, [r7, #12]
 8001f82:	685b      	ldr	r3, [r3, #4]
 8001f84:	f423 0280 	bic.w	r2, r3, #4194304	; 0x400000
 8001f88:	68fb      	ldr	r3, [r7, #12]
 8001f8a:	605a      	str	r2, [r3, #4]
    }
    /* Enable the Temperature sensor and VREFINT channel*/
    tmpADC_Common->CCR |= ADC_CCR_TSVREFE;
 8001f8c:	68fb      	ldr	r3, [r7, #12]
 8001f8e:	685b      	ldr	r3, [r3, #4]
 8001f90:	f443 0200 	orr.w	r2, r3, #8388608	; 0x800000
 8001f94:	68fb      	ldr	r3, [r7, #12]
 8001f96:	605a      	str	r2, [r3, #4]
    
    if((sConfig->Channel == ADC_CHANNEL_TEMPSENSOR))
 8001f98:	683b      	ldr	r3, [r7, #0]
 8001f9a:	681b      	ldr	r3, [r3, #0]
 8001f9c:	4a11      	ldr	r2, [pc, #68]	; (8001fe4 <HAL_ADC_ConfigChannel+0x258>)
 8001f9e:	4293      	cmp	r3, r2
 8001fa0:	d111      	bne.n	8001fc6 <HAL_ADC_ConfigChannel+0x23a>
    {
      /* Delay for temperature sensor stabilization time */
      /* Compute number of CPU cycles to wait for */
      counter = (ADC_TEMPSENSOR_DELAY_US * (SystemCoreClock / 1000000U));
 8001fa2:	4b11      	ldr	r3, [pc, #68]	; (8001fe8 <HAL_ADC_ConfigChannel+0x25c>)
 8001fa4:	681b      	ldr	r3, [r3, #0]
 8001fa6:	4a11      	ldr	r2, [pc, #68]	; (8001fec <HAL_ADC_ConfigChannel+0x260>)
 8001fa8:	fba2 2303 	umull	r2, r3, r2, r3
 8001fac:	0c9a      	lsrs	r2, r3, #18
 8001fae:	4613      	mov	r3, r2
 8001fb0:	009b      	lsls	r3, r3, #2
 8001fb2:	4413      	add	r3, r2
 8001fb4:	005b      	lsls	r3, r3, #1
 8001fb6:	60bb      	str	r3, [r7, #8]
      while(counter != 0U)
 8001fb8:	e002      	b.n	8001fc0 <HAL_ADC_ConfigChannel+0x234>
      {
        counter--;
 8001fba:	68bb      	ldr	r3, [r7, #8]
 8001fbc:	3b01      	subs	r3, #1
 8001fbe:	60bb      	str	r3, [r7, #8]
      while(counter != 0U)
 8001fc0:	68bb      	ldr	r3, [r7, #8]
 8001fc2:	2b00      	cmp	r3, #0
 8001fc4:	d1f9      	bne.n	8001fba <HAL_ADC_ConfigChannel+0x22e>
      }
    }
  }
  
  /* Process unlocked */
  __HAL_UNLOCK(hadc);
 8001fc6:	687b      	ldr	r3, [r7, #4]
 8001fc8:	2200      	movs	r2, #0
 8001fca:	f883 203c 	strb.w	r2, [r3, #60]	; 0x3c
  
  /* Return function status */
  return HAL_OK;
 8001fce:	2300      	movs	r3, #0
}
 8001fd0:	4618      	mov	r0, r3
 8001fd2:	3714      	adds	r7, #20
 8001fd4:	46bd      	mov	sp, r7
 8001fd6:	f85d 7b04 	ldr.w	r7, [sp], #4
 8001fda:	4770      	bx	lr
 8001fdc:	40012300 	.word	0x40012300
 8001fe0:	40012000 	.word	0x40012000
 8001fe4:	10000012 	.word	0x10000012
 8001fe8:	20000004 	.word	0x20000004
 8001fec:	431bde83 	.word	0x431bde83

08001ff0 <ADC_Init>:
  * @param  hadc pointer to a ADC_HandleTypeDef structure that contains
  *         the configuration information for the specified ADC.  
  * @retval None
  */
static void ADC_Init(ADC_HandleTypeDef* hadc)
{
 8001ff0:	b480      	push	{r7}
 8001ff2:	b085      	sub	sp, #20
 8001ff4:	af00      	add	r7, sp, #0
 8001ff6:	6078      	str	r0, [r7, #4]
  
  /* Set ADC parameters */
  /* Pointer to the common control register to which is belonging hadc    */
  /* (Depending on STM32F4 product, there may be up to 3 ADCs and 1 common */
  /* control register)                                                    */
  tmpADC_Common = ADC_COMMON_REGISTER(hadc);
 8001ff8:	4b79      	ldr	r3, [pc, #484]	; (80021e0 <ADC_Init+0x1f0>)
 8001ffa:	60fb      	str	r3, [r7, #12]
  
  /* Set the ADC clock prescaler */
  tmpADC_Common->CCR &= ~(ADC_CCR_ADCPRE);
 8001ffc:	68fb      	ldr	r3, [r7, #12]
 8001ffe:	685b      	ldr	r3, [r3, #4]
 8002000:	f423 3240 	bic.w	r2, r3, #196608	; 0x30000
 8002004:	68fb      	ldr	r3, [r7, #12]
 8002006:	605a      	str	r2, [r3, #4]
  tmpADC_Common->CCR |=  hadc->Init.ClockPrescaler;
 8002008:	68fb      	ldr	r3, [r7, #12]
 800200a:	685a      	ldr	r2, [r3, #4]
 800200c:	687b      	ldr	r3, [r7, #4]
 800200e:	685b      	ldr	r3, [r3, #4]
 8002010:	431a      	orrs	r2, r3
 8002012:	68fb      	ldr	r3, [r7, #12]
 8002014:	605a      	str	r2, [r3, #4]
  
  /* Set ADC scan mode */
  hadc->Instance->CR1 &= ~(ADC_CR1_SCAN);
 8002016:	687b      	ldr	r3, [r7, #4]
 8002018:	681b      	ldr	r3, [r3, #0]
 800201a:	685a      	ldr	r2, [r3, #4]
 800201c:	687b      	ldr	r3, [r7, #4]
 800201e:	681b      	ldr	r3, [r3, #0]
 8002020:	f422 7280 	bic.w	r2, r2, #256	; 0x100
 8002024:	605a      	str	r2, [r3, #4]
  hadc->Instance->CR1 |=  ADC_CR1_SCANCONV(hadc->Init.ScanConvMode);
 8002026:	687b      	ldr	r3, [r7, #4]
 8002028:	681b      	ldr	r3, [r3, #0]
 800202a:	6859      	ldr	r1, [r3, #4]
 800202c:	687b      	ldr	r3, [r7, #4]
 800202e:	691b      	ldr	r3, [r3, #16]
 8002030:	021a      	lsls	r2, r3, #8
 8002032:	687b      	ldr	r3, [r7, #4]
 8002034:	681b      	ldr	r3, [r3, #0]
 8002036:	430a      	orrs	r2, r1
 8002038:	605a      	str	r2, [r3, #4]
  
  /* Set ADC resolution */
  hadc->Instance->CR1 &= ~(ADC_CR1_RES);
 800203a:	687b      	ldr	r3, [r7, #4]
 800203c:	681b      	ldr	r3, [r3, #0]
 800203e:	685a      	ldr	r2, [r3, #4]
 8002040:	687b      	ldr	r3, [r7, #4]
 8002042:	681b      	ldr	r3, [r3, #0]
 8002044:	f022 7240 	bic.w	r2, r2, #50331648	; 0x3000000
 8002048:	605a      	str	r2, [r3, #4]
  hadc->Instance->CR1 |=  hadc->Init.Resolution;
 800204a:	687b      	ldr	r3, [r7, #4]
 800204c:	681b      	ldr	r3, [r3, #0]
 800204e:	6859      	ldr	r1, [r3, #4]
 8002050:	687b      	ldr	r3, [r7, #4]
 8002052:	689a      	ldr	r2, [r3, #8]
 8002054:	687b      	ldr	r3, [r7, #4]
 8002056:	681b      	ldr	r3, [r3, #0]
 8002058:	430a      	orrs	r2, r1
 800205a:	605a      	str	r2, [r3, #4]
  
  /* Set ADC data alignment */
  hadc->Instance->CR2 &= ~(ADC_CR2_ALIGN);
 800205c:	687b      	ldr	r3, [r7, #4]
 800205e:	681b      	ldr	r3, [r3, #0]
 8002060:	689a      	ldr	r2, [r3, #8]
 8002062:	687b      	ldr	r3, [r7, #4]
 8002064:	681b      	ldr	r3, [r3, #0]
 8002066:	f422 6200 	bic.w	r2, r2, #2048	; 0x800
 800206a:	609a      	str	r2, [r3, #8]
  hadc->Instance->CR2 |= hadc->Init.DataAlign;
 800206c:	687b      	ldr	r3, [r7, #4]
 800206e:	681b      	ldr	r3, [r3, #0]
 8002070:	6899      	ldr	r1, [r3, #8]
 8002072:	687b      	ldr	r3, [r7, #4]
 8002074:	68da      	ldr	r2, [r3, #12]
 8002076:	687b      	ldr	r3, [r7, #4]
 8002078:	681b      	ldr	r3, [r3, #0]
 800207a:	430a      	orrs	r2, r1
 800207c:	609a      	str	r2, [r3, #8]
  /* Enable external trigger if trigger selection is different of software  */
  /* start.                                                                 */
  /* Note: This configuration keeps the hardware feature of parameter       */
  /*       ExternalTrigConvEdge "trigger edge none" equivalent to           */
  /*       software start.                                                  */
  if(hadc->Init.ExternalTrigConv != ADC_SOFTWARE_START)
 800207e:	687b      	ldr	r3, [r7, #4]
 8002080:	6a9b      	ldr	r3, [r3, #40]	; 0x28
 8002082:	4a58      	ldr	r2, [pc, #352]	; (80021e4 <ADC_Init+0x1f4>)
 8002084:	4293      	cmp	r3, r2
 8002086:	d022      	beq.n	80020ce <ADC_Init+0xde>
  {
    /* Select external trigger to start conversion */
    hadc->Instance->CR2 &= ~(ADC_CR2_EXTSEL);
 8002088:	687b      	ldr	r3, [r7, #4]
 800208a:	681b      	ldr	r3, [r3, #0]
 800208c:	689a      	ldr	r2, [r3, #8]
 800208e:	687b      	ldr	r3, [r7, #4]
 8002090:	681b      	ldr	r3, [r3, #0]
 8002092:	f022 6270 	bic.w	r2, r2, #251658240	; 0xf000000
 8002096:	609a      	str	r2, [r3, #8]
    hadc->Instance->CR2 |= hadc->Init.ExternalTrigConv;
 8002098:	687b      	ldr	r3, [r7, #4]
 800209a:	681b      	ldr	r3, [r3, #0]
 800209c:	6899      	ldr	r1, [r3, #8]
 800209e:	687b      	ldr	r3, [r7, #4]
 80020a0:	6a9a      	ldr	r2, [r3, #40]	; 0x28
 80020a2:	687b      	ldr	r3, [r7, #4]
 80020a4:	681b      	ldr	r3, [r3, #0]
 80020a6:	430a      	orrs	r2, r1
 80020a8:	609a      	str	r2, [r3, #8]
    
    /* Select external trigger polarity */
    hadc->Instance->CR2 &= ~(ADC_CR2_EXTEN);
 80020aa:	687b      	ldr	r3, [r7, #4]
 80020ac:	681b      	ldr	r3, [r3, #0]
 80020ae:	689a      	ldr	r2, [r3, #8]
 80020b0:	687b      	ldr	r3, [r7, #4]
 80020b2:	681b      	ldr	r3, [r3, #0]
 80020b4:	f022 5240 	bic.w	r2, r2, #805306368	; 0x30000000
 80020b8:	609a      	str	r2, [r3, #8]
    hadc->Instance->CR2 |= hadc->Init.ExternalTrigConvEdge;
 80020ba:	687b      	ldr	r3, [r7, #4]
 80020bc:	681b      	ldr	r3, [r3, #0]
 80020be:	6899      	ldr	r1, [r3, #8]
 80020c0:	687b      	ldr	r3, [r7, #4]
 80020c2:	6ada      	ldr	r2, [r3, #44]	; 0x2c
 80020c4:	687b      	ldr	r3, [r7, #4]
 80020c6:	681b      	ldr	r3, [r3, #0]
 80020c8:	430a      	orrs	r2, r1
 80020ca:	609a      	str	r2, [r3, #8]
 80020cc:	e00f      	b.n	80020ee <ADC_Init+0xfe>
  }
  else
  {
    /* Reset the external trigger */
    hadc->Instance->CR2 &= ~(ADC_CR2_EXTSEL);
 80020ce:	687b      	ldr	r3, [r7, #4]
 80020d0:	681b      	ldr	r3, [r3, #0]
 80020d2:	689a      	ldr	r2, [r3, #8]
 80020d4:	687b      	ldr	r3, [r7, #4]
 80020d6:	681b      	ldr	r3, [r3, #0]
 80020d8:	f022 6270 	bic.w	r2, r2, #251658240	; 0xf000000
 80020dc:	609a      	str	r2, [r3, #8]
    hadc->Instance->CR2 &= ~(ADC_CR2_EXTEN);
 80020de:	687b      	ldr	r3, [r7, #4]
 80020e0:	681b      	ldr	r3, [r3, #0]
 80020e2:	689a      	ldr	r2, [r3, #8]
 80020e4:	687b      	ldr	r3, [r7, #4]
 80020e6:	681b      	ldr	r3, [r3, #0]
 80020e8:	f022 5240 	bic.w	r2, r2, #805306368	; 0x30000000
 80020ec:	609a      	str	r2, [r3, #8]
  }
  
  /* Enable or disable ADC continuous conversion mode */
  hadc->Instance->CR2 &= ~(ADC_CR2_CONT);
 80020ee:	687b      	ldr	r3, [r7, #4]
 80020f0:	681b      	ldr	r3, [r3, #0]
 80020f2:	689a      	ldr	r2, [r3, #8]
 80020f4:	687b      	ldr	r3, [r7, #4]
 80020f6:	681b      	ldr	r3, [r3, #0]
 80020f8:	f022 0202 	bic.w	r2, r2, #2
 80020fc:	609a      	str	r2, [r3, #8]
  hadc->Instance->CR2 |= ADC_CR2_CONTINUOUS((uint32_t)hadc->Init.ContinuousConvMode);
 80020fe:	687b      	ldr	r3, [r7, #4]
 8002100:	681b      	ldr	r3, [r3, #0]
 8002102:	6899      	ldr	r1, [r3, #8]
 8002104:	687b      	ldr	r3, [r7, #4]
 8002106:	7e1b      	ldrb	r3, [r3, #24]
 8002108:	005a      	lsls	r2, r3, #1
 800210a:	687b      	ldr	r3, [r7, #4]
 800210c:	681b      	ldr	r3, [r3, #0]
 800210e:	430a      	orrs	r2, r1
 8002110:	609a      	str	r2, [r3, #8]
  
  if(hadc->Init.DiscontinuousConvMode != DISABLE)
 8002112:	687b      	ldr	r3, [r7, #4]
 8002114:	f893 3020 	ldrb.w	r3, [r3, #32]
 8002118:	2b00      	cmp	r3, #0
 800211a:	d01b      	beq.n	8002154 <ADC_Init+0x164>
  {
    assert_param(IS_ADC_REGULAR_DISC_NUMBER(hadc->Init.NbrOfDiscConversion));
  
    /* Enable the selected ADC regular discontinuous mode */
    hadc->Instance->CR1 |= (uint32_t)ADC_CR1_DISCEN;
 800211c:	687b      	ldr	r3, [r7, #4]
 800211e:	681b      	ldr	r3, [r3, #0]
 8002120:	685a      	ldr	r2, [r3, #4]
 8002122:	687b      	ldr	r3, [r7, #4]
 8002124:	681b      	ldr	r3, [r3, #0]
 8002126:	f442 6200 	orr.w	r2, r2, #2048	; 0x800
 800212a:	605a      	str	r2, [r3, #4]
    
    /* Set the number of channels to be converted in discontinuous mode */
    hadc->Instance->CR1 &= ~(ADC_CR1_DISCNUM);
 800212c:	687b      	ldr	r3, [r7, #4]
 800212e:	681b      	ldr	r3, [r3, #0]
 8002130:	685a      	ldr	r2, [r3, #4]
 8002132:	687b      	ldr	r3, [r7, #4]
 8002134:	681b      	ldr	r3, [r3, #0]
 8002136:	f422 4260 	bic.w	r2, r2, #57344	; 0xe000
 800213a:	605a      	str	r2, [r3, #4]
    hadc->Instance->CR1 |=  ADC_CR1_DISCONTINUOUS(hadc->Init.NbrOfDiscConversion);
 800213c:	687b      	ldr	r3, [r7, #4]
 800213e:	681b      	ldr	r3, [r3, #0]
 8002140:	6859      	ldr	r1, [r3, #4]
 8002142:	687b      	ldr	r3, [r7, #4]
 8002144:	6a5b      	ldr	r3, [r3, #36]	; 0x24
 8002146:	3b01      	subs	r3, #1
 8002148:	035a      	lsls	r2, r3, #13
 800214a:	687b      	ldr	r3, [r7, #4]
 800214c:	681b      	ldr	r3, [r3, #0]
 800214e:	430a      	orrs	r2, r1
 8002150:	605a      	str	r2, [r3, #4]
 8002152:	e007      	b.n	8002164 <ADC_Init+0x174>
  }
  else
  {
    /* Disable the selected ADC regular discontinuous mode */
    hadc->Instance->CR1 &= ~(ADC_CR1_DISCEN);
 8002154:	687b      	ldr	r3, [r7, #4]
 8002156:	681b      	ldr	r3, [r3, #0]
 8002158:	685a      	ldr	r2, [r3, #4]
 800215a:	687b      	ldr	r3, [r7, #4]
 800215c:	681b      	ldr	r3, [r3, #0]
 800215e:	f422 6200 	bic.w	r2, r2, #2048	; 0x800
 8002162:	605a      	str	r2, [r3, #4]
  }
  
  /* Set ADC number of conversion */
  hadc->Instance->SQR1 &= ~(ADC_SQR1_L);
 8002164:	687b      	ldr	r3, [r7, #4]
 8002166:	681b      	ldr	r3, [r3, #0]
 8002168:	6ada      	ldr	r2, [r3, #44]	; 0x2c
 800216a:	687b      	ldr	r3, [r7, #4]
 800216c:	681b      	ldr	r3, [r3, #0]
 800216e:	f422 0270 	bic.w	r2, r2, #15728640	; 0xf00000
 8002172:	62da      	str	r2, [r3, #44]	; 0x2c
  hadc->Instance->SQR1 |=  ADC_SQR1(hadc->Init.NbrOfConversion);
 8002174:	687b      	ldr	r3, [r7, #4]
 8002176:	681b      	ldr	r3, [r3, #0]
 8002178:	6ad9      	ldr	r1, [r3, #44]	; 0x2c
 800217a:	687b      	ldr	r3, [r7, #4]
 800217c:	69db      	ldr	r3, [r3, #28]
 800217e:	3b01      	subs	r3, #1
 8002180:	051a      	lsls	r2, r3, #20
 8002182:	687b      	ldr	r3, [r7, #4]
 8002184:	681b      	ldr	r3, [r3, #0]
 8002186:	430a      	orrs	r2, r1
 8002188:	62da      	str	r2, [r3, #44]	; 0x2c
  
  /* Enable or disable ADC DMA continuous request */
  hadc->Instance->CR2 &= ~(ADC_CR2_DDS);
 800218a:	687b      	ldr	r3, [r7, #4]
 800218c:	681b      	ldr	r3, [r3, #0]
 800218e:	689a      	ldr	r2, [r3, #8]
 8002190:	687b      	ldr	r3, [r7, #4]
 8002192:	681b      	ldr	r3, [r3, #0]
 8002194:	f422 7200 	bic.w	r2, r2, #512	; 0x200
 8002198:	609a      	str	r2, [r3, #8]
  hadc->Instance->CR2 |= ADC_CR2_DMAContReq((uint32_t)hadc->Init.DMAContinuousRequests);
 800219a:	687b      	ldr	r3, [r7, #4]
 800219c:	681b      	ldr	r3, [r3, #0]
 800219e:	6899      	ldr	r1, [r3, #8]
 80021a0:	687b      	ldr	r3, [r7, #4]
 80021a2:	f893 3030 	ldrb.w	r3, [r3, #48]	; 0x30
 80021a6:	025a      	lsls	r2, r3, #9
 80021a8:	687b      	ldr	r3, [r7, #4]
 80021aa:	681b      	ldr	r3, [r3, #0]
 80021ac:	430a      	orrs	r2, r1
 80021ae:	609a      	str	r2, [r3, #8]
  
  /* Enable or disable ADC end of conversion selection */
  hadc->Instance->CR2 &= ~(ADC_CR2_EOCS);
 80021b0:	687b      	ldr	r3, [r7, #4]
 80021b2:	681b      	ldr	r3, [r3, #0]
 80021b4:	689a      	ldr	r2, [r3, #8]
 80021b6:	687b      	ldr	r3, [r7, #4]
 80021b8:	681b      	ldr	r3, [r3, #0]
 80021ba:	f422 6280 	bic.w	r2, r2, #1024	; 0x400
 80021be:	609a      	str	r2, [r3, #8]
  hadc->Instance->CR2 |= ADC_CR2_EOCSelection(hadc->Init.EOCSelection);
 80021c0:	687b      	ldr	r3, [r7, #4]
 80021c2:	681b      	ldr	r3, [r3, #0]
 80021c4:	6899      	ldr	r1, [r3, #8]
 80021c6:	687b      	ldr	r3, [r7, #4]
 80021c8:	695b      	ldr	r3, [r3, #20]
 80021ca:	029a      	lsls	r2, r3, #10
 80021cc:	687b      	ldr	r3, [r7, #4]
 80021ce:	681b      	ldr	r3, [r3, #0]
 80021d0:	430a      	orrs	r2, r1
 80021d2:	609a      	str	r2, [r3, #8]
}
 80021d4:	bf00      	nop
 80021d6:	3714      	adds	r7, #20
 80021d8:	46bd      	mov	sp, r7
 80021da:	f85d 7b04 	ldr.w	r7, [sp], #4
 80021de:	4770      	bx	lr
 80021e0:	40012300 	.word	0x40012300
 80021e4:	0f000001 	.word	0x0f000001

080021e8 <__NVIC_SetPriorityGrouping>:
           In case of a conflict between priority grouping and available
           priority bits (__NVIC_PRIO_BITS), the smallest possible priority group is set.
  \param [in]      PriorityGroup  Priority grouping field.
 */
__STATIC_INLINE void __NVIC_SetPriorityGrouping(uint32_t PriorityGroup)
{
 80021e8:	b480      	push	{r7}
 80021ea:	b085      	sub	sp, #20
 80021ec:	af00      	add	r7, sp, #0
 80021ee:	6078      	str	r0, [r7, #4]
  uint32_t reg_value;
  uint32_t PriorityGroupTmp = (PriorityGroup & (uint32_t)0x07UL);             /* only values 0..7 are used          */
 80021f0:	687b      	ldr	r3, [r7, #4]
 80021f2:	f003 0307 	and.w	r3, r3, #7
 80021f6:	60fb      	str	r3, [r7, #12]

  reg_value  =  SCB->AIRCR;                                                   /* read old register configuration    */
 80021f8:	4b0c      	ldr	r3, [pc, #48]	; (800222c <__NVIC_SetPriorityGrouping+0x44>)
 80021fa:	68db      	ldr	r3, [r3, #12]
 80021fc:	60bb      	str	r3, [r7, #8]
  reg_value &= ~((uint32_t)(SCB_AIRCR_VECTKEY_Msk | SCB_AIRCR_PRIGROUP_Msk)); /* clear bits to change               */
 80021fe:	68ba      	ldr	r2, [r7, #8]
 8002200:	f64f 03ff 	movw	r3, #63743	; 0xf8ff
 8002204:	4013      	ands	r3, r2
 8002206:	60bb      	str	r3, [r7, #8]
  reg_value  =  (reg_value                                   |
                ((uint32_t)0x5FAUL << SCB_AIRCR_VECTKEY_Pos) |
                (PriorityGroupTmp << SCB_AIRCR_PRIGROUP_Pos)  );              /* Insert write key and priority group */
 8002208:	68fb      	ldr	r3, [r7, #12]
 800220a:	021a      	lsls	r2, r3, #8
                ((uint32_t)0x5FAUL << SCB_AIRCR_VECTKEY_Pos) |
 800220c:	68bb      	ldr	r3, [r7, #8]
 800220e:	4313      	orrs	r3, r2
  reg_value  =  (reg_value                                   |
 8002210:	f043 63bf 	orr.w	r3, r3, #100139008	; 0x5f80000
 8002214:	f443 3300 	orr.w	r3, r3, #131072	; 0x20000
 8002218:	60bb      	str	r3, [r7, #8]
  SCB->AIRCR =  reg_value;
 800221a:	4a04      	ldr	r2, [pc, #16]	; (800222c <__NVIC_SetPriorityGrouping+0x44>)
 800221c:	68bb      	ldr	r3, [r7, #8]
 800221e:	60d3      	str	r3, [r2, #12]
}
 8002220:	bf00      	nop
 8002222:	3714      	adds	r7, #20
 8002224:	46bd      	mov	sp, r7
 8002226:	f85d 7b04 	ldr.w	r7, [sp], #4
 800222a:	4770      	bx	lr
 800222c:	e000ed00 	.word	0xe000ed00

08002230 <__NVIC_GetPriorityGrouping>:
  \brief   Get Priority Grouping
  \details Reads the priority grouping field from the NVIC Interrupt Controller.
  \return                Priority grouping field (SCB->AIRCR [10:8] PRIGROUP field).
 */
__STATIC_INLINE uint32_t __NVIC_GetPriorityGrouping(void)
{
 8002230:	b480      	push	{r7}
 8002232:	af00      	add	r7, sp, #0
  return ((uint32_t)((SCB->AIRCR & SCB_AIRCR_PRIGROUP_Msk) >> SCB_AIRCR_PRIGROUP_Pos));
 8002234:	4b04      	ldr	r3, [pc, #16]	; (8002248 <__NVIC_GetPriorityGrouping+0x18>)
 8002236:	68db      	ldr	r3, [r3, #12]
 8002238:	0a1b      	lsrs	r3, r3, #8
 800223a:	f003 0307 	and.w	r3, r3, #7
}
 800223e:	4618      	mov	r0, r3
 8002240:	46bd      	mov	sp, r7
 8002242:	f85d 7b04 	ldr.w	r7, [sp], #4
 8002246:	4770      	bx	lr
 8002248:	e000ed00 	.word	0xe000ed00

0800224c <__NVIC_EnableIRQ>:
  \details Enables a device specific interrupt in the NVIC interrupt controller.
  \param [in]      IRQn  Device specific interrupt number.
  \note    IRQn must not be negative.
 */
__STATIC_INLINE void __NVIC_EnableIRQ(IRQn_Type IRQn)
{
 800224c:	b480      	push	{r7}
 800224e:	b083      	sub	sp, #12
 8002250:	af00      	add	r7, sp, #0
 8002252:	4603      	mov	r3, r0
 8002254:	71fb      	strb	r3, [r7, #7]
  if ((int32_t)(IRQn) >= 0)
 8002256:	f997 3007 	ldrsb.w	r3, [r7, #7]
 800225a:	2b00      	cmp	r3, #0
 800225c:	db0b      	blt.n	8002276 <__NVIC_EnableIRQ+0x2a>
  {
    NVIC->ISER[(((uint32_t)IRQn) >> 5UL)] = (uint32_t)(1UL << (((uint32_t)IRQn) & 0x1FUL));
 800225e:	79fb      	ldrb	r3, [r7, #7]
 8002260:	f003 021f 	and.w	r2, r3, #31
 8002264:	4907      	ldr	r1, [pc, #28]	; (8002284 <__NVIC_EnableIRQ+0x38>)
 8002266:	f997 3007 	ldrsb.w	r3, [r7, #7]
 800226a:	095b      	lsrs	r3, r3, #5
 800226c:	2001      	movs	r0, #1
 800226e:	fa00 f202 	lsl.w	r2, r0, r2
 8002272:	f841 2023 	str.w	r2, [r1, r3, lsl #2]
  }
}
 8002276:	bf00      	nop
 8002278:	370c      	adds	r7, #12
 800227a:	46bd      	mov	sp, r7
 800227c:	f85d 7b04 	ldr.w	r7, [sp], #4
 8002280:	4770      	bx	lr
 8002282:	bf00      	nop
 8002284:	e000e100 	.word	0xe000e100

08002288 <__NVIC_SetPriority>:
  \param [in]      IRQn  Interrupt number.
  \param [in]  priority  Priority to set.
  \note    The priority cannot be set for every processor exception.
 */
__STATIC_INLINE void __NVIC_SetPriority(IRQn_Type IRQn, uint32_t priority)
{
 8002288:	b480      	push	{r7}
 800228a:	b083      	sub	sp, #12
 800228c:	af00      	add	r7, sp, #0
 800228e:	4603      	mov	r3, r0
 8002290:	6039      	str	r1, [r7, #0]
 8002292:	71fb      	strb	r3, [r7, #7]
  if ((int32_t)(IRQn) >= 0)
 8002294:	f997 3007 	ldrsb.w	r3, [r7, #7]
 8002298:	2b00      	cmp	r3, #0
 800229a:	db0a      	blt.n	80022b2 <__NVIC_SetPriority+0x2a>
  {
    NVIC->IP[((uint32_t)IRQn)]               = (uint8_t)((priority << (8U - __NVIC_PRIO_BITS)) & (uint32_t)0xFFUL);
 800229c:	683b      	ldr	r3, [r7, #0]
 800229e:	b2da      	uxtb	r2, r3
 80022a0:	490c      	ldr	r1, [pc, #48]	; (80022d4 <__NVIC_SetPriority+0x4c>)
 80022a2:	f997 3007 	ldrsb.w	r3, [r7, #7]
 80022a6:	0112      	lsls	r2, r2, #4
 80022a8:	b2d2      	uxtb	r2, r2
 80022aa:	440b      	add	r3, r1
 80022ac:	f883 2300 	strb.w	r2, [r3, #768]	; 0x300
  }
  else
  {
    SCB->SHP[(((uint32_t)IRQn) & 0xFUL)-4UL] = (uint8_t)((priority << (8U - __NVIC_PRIO_BITS)) & (uint32_t)0xFFUL);
  }
}
 80022b0:	e00a      	b.n	80022c8 <__NVIC_SetPriority+0x40>
    SCB->SHP[(((uint32_t)IRQn) & 0xFUL)-4UL] = (uint8_t)((priority << (8U - __NVIC_PRIO_BITS)) & (uint32_t)0xFFUL);
 80022b2:	683b      	ldr	r3, [r7, #0]
 80022b4:	b2da      	uxtb	r2, r3
 80022b6:	4908      	ldr	r1, [pc, #32]	; (80022d8 <__NVIC_SetPriority+0x50>)
 80022b8:	79fb      	ldrb	r3, [r7, #7]
 80022ba:	f003 030f 	and.w	r3, r3, #15
 80022be:	3b04      	subs	r3, #4
 80022c0:	0112      	lsls	r2, r2, #4
 80022c2:	b2d2      	uxtb	r2, r2
 80022c4:	440b      	add	r3, r1
 80022c6:	761a      	strb	r2, [r3, #24]
}
 80022c8:	bf00      	nop
 80022ca:	370c      	adds	r7, #12
 80022cc:	46bd      	mov	sp, r7
 80022ce:	f85d 7b04 	ldr.w	r7, [sp], #4
 80022d2:	4770      	bx	lr
 80022d4:	e000e100 	.word	0xe000e100
 80022d8:	e000ed00 	.word	0xe000ed00

080022dc <NVIC_EncodePriority>:
  \param [in]   PreemptPriority  Preemptive priority value (starting from 0).
  \param [in]       SubPriority  Subpriority value (starting from 0).
  \return                        Encoded priority. Value can be used in the function \ref NVIC_SetPriority().
 */
__STATIC_INLINE uint32_t NVIC_EncodePriority (uint32_t PriorityGroup, uint32_t PreemptPriority, uint32_t SubPriority)
{
 80022dc:	b480      	push	{r7}
 80022de:	b089      	sub	sp, #36	; 0x24
 80022e0:	af00      	add	r7, sp, #0
 80022e2:	60f8      	str	r0, [r7, #12]
 80022e4:	60b9      	str	r1, [r7, #8]
 80022e6:	607a      	str	r2, [r7, #4]
  uint32_t PriorityGroupTmp = (PriorityGroup & (uint32_t)0x07UL);   /* only values 0..7 are used          */
 80022e8:	68fb      	ldr	r3, [r7, #12]
 80022ea:	f003 0307 	and.w	r3, r3, #7
 80022ee:	61fb      	str	r3, [r7, #28]
  uint32_t PreemptPriorityBits;
  uint32_t SubPriorityBits;

  PreemptPriorityBits = ((7UL - PriorityGroupTmp) > (uint32_t)(__NVIC_PRIO_BITS)) ? (uint32_t)(__NVIC_PRIO_BITS) : (uint32_t)(7UL - PriorityGroupTmp);
 80022f0:	69fb      	ldr	r3, [r7, #28]
 80022f2:	f1c3 0307 	rsb	r3, r3, #7
 80022f6:	2b04      	cmp	r3, #4
 80022f8:	bf28      	it	cs
 80022fa:	2304      	movcs	r3, #4
 80022fc:	61bb      	str	r3, [r7, #24]
  SubPriorityBits     = ((PriorityGroupTmp + (uint32_t)(__NVIC_PRIO_BITS)) < (uint32_t)7UL) ? (uint32_t)0UL : (uint32_t)((PriorityGroupTmp - 7UL) + (uint32_t)(__NVIC_PRIO_BITS));
 80022fe:	69fb      	ldr	r3, [r7, #28]
 8002300:	3304      	adds	r3, #4
 8002302:	2b06      	cmp	r3, #6
 8002304:	d902      	bls.n	800230c <NVIC_EncodePriority+0x30>
 8002306:	69fb      	ldr	r3, [r7, #28]
 8002308:	3b03      	subs	r3, #3
 800230a:	e000      	b.n	800230e <NVIC_EncodePriority+0x32>
 800230c:	2300      	movs	r3, #0
 800230e:	617b      	str	r3, [r7, #20]

  return (
           ((PreemptPriority & (uint32_t)((1UL << (PreemptPriorityBits)) - 1UL)) << SubPriorityBits) |
 8002310:	f04f 32ff 	mov.w	r2, #4294967295
 8002314:	69bb      	ldr	r3, [r7, #24]
 8002316:	fa02 f303 	lsl.w	r3, r2, r3
 800231a:	43da      	mvns	r2, r3
 800231c:	68bb      	ldr	r3, [r7, #8]
 800231e:	401a      	ands	r2, r3
 8002320:	697b      	ldr	r3, [r7, #20]
 8002322:	409a      	lsls	r2, r3
           ((SubPriority     & (uint32_t)((1UL << (SubPriorityBits    )) - 1UL)))
 8002324:	f04f 31ff 	mov.w	r1, #4294967295
 8002328:	697b      	ldr	r3, [r7, #20]
 800232a:	fa01 f303 	lsl.w	r3, r1, r3
 800232e:	43d9      	mvns	r1, r3
 8002330:	687b      	ldr	r3, [r7, #4]
 8002332:	400b      	ands	r3, r1
           ((PreemptPriority & (uint32_t)((1UL << (PreemptPriorityBits)) - 1UL)) << SubPriorityBits) |
 8002334:	4313      	orrs	r3, r2
         );
}
 8002336:	4618      	mov	r0, r3
 8002338:	3724      	adds	r7, #36	; 0x24
 800233a:	46bd      	mov	sp, r7
 800233c:	f85d 7b04 	ldr.w	r7, [sp], #4
 8002340:	4770      	bx	lr
	...

08002344 <SysTick_Config>:
  \note    When the variable <b>__Vendor_SysTickConfig</b> is set to 1, then the
           function <b>SysTick_Config</b> is not included. In this case, the file <b><i>device</i>.h</b>
           must contain a vendor-specific implementation of this function.
 */
__STATIC_INLINE uint32_t SysTick_Config(uint32_t ticks)
{
 8002344:	b580      	push	{r7, lr}
 8002346:	b082      	sub	sp, #8
 8002348:	af00      	add	r7, sp, #0
 800234a:	6078      	str	r0, [r7, #4]
  if ((ticks - 1UL) > SysTick_LOAD_RELOAD_Msk)
 800234c:	687b      	ldr	r3, [r7, #4]
 800234e:	3b01      	subs	r3, #1
 8002350:	f1b3 7f80 	cmp.w	r3, #16777216	; 0x1000000
 8002354:	d301      	bcc.n	800235a <SysTick_Config+0x16>
  {
    return (1UL);                                                   /* Reload value impossible */
 8002356:	2301      	movs	r3, #1
 8002358:	e00f      	b.n	800237a <SysTick_Config+0x36>
  }

  SysTick->LOAD  = (uint32_t)(ticks - 1UL);                         /* set reload register */
 800235a:	4a0a      	ldr	r2, [pc, #40]	; (8002384 <SysTick_Config+0x40>)
 800235c:	687b      	ldr	r3, [r7, #4]
 800235e:	3b01      	subs	r3, #1
 8002360:	6053      	str	r3, [r2, #4]
  NVIC_SetPriority (SysTick_IRQn, (1UL << __NVIC_PRIO_BITS) - 1UL); /* set Priority for Systick Interrupt */
 8002362:	210f      	movs	r1, #15
 8002364:	f04f 30ff 	mov.w	r0, #4294967295
 8002368:	f7ff ff8e 	bl	8002288 <__NVIC_SetPriority>
  SysTick->VAL   = 0UL;                                             /* Load the SysTick Counter Value */
 800236c:	4b05      	ldr	r3, [pc, #20]	; (8002384 <SysTick_Config+0x40>)
 800236e:	2200      	movs	r2, #0
 8002370:	609a      	str	r2, [r3, #8]
  SysTick->CTRL  = SysTick_CTRL_CLKSOURCE_Msk |
 8002372:	4b04      	ldr	r3, [pc, #16]	; (8002384 <SysTick_Config+0x40>)
 8002374:	2207      	movs	r2, #7
 8002376:	601a      	str	r2, [r3, #0]
                   SysTick_CTRL_TICKINT_Msk   |
                   SysTick_CTRL_ENABLE_Msk;                         /* Enable SysTick IRQ and SysTick Timer */
  return (0UL);                                                     /* Function successful */
 8002378:	2300      	movs	r3, #0
}
 800237a:	4618      	mov	r0, r3
 800237c:	3708      	adds	r7, #8
 800237e:	46bd      	mov	sp, r7
 8002380:	bd80      	pop	{r7, pc}
 8002382:	bf00      	nop
 8002384:	e000e010 	.word	0xe000e010

08002388 <HAL_NVIC_SetPriorityGrouping>:
  * @note   When the NVIC_PriorityGroup_0 is selected, IRQ preemption is no more possible. 
  *         The pending IRQ priority will be managed only by the subpriority. 
  * @retval None
  */
void HAL_NVIC_SetPriorityGrouping(uint32_t PriorityGroup)
{
 8002388:	b580      	push	{r7, lr}
 800238a:	b082      	sub	sp, #8
 800238c:	af00      	add	r7, sp, #0
 800238e:	6078      	str	r0, [r7, #4]
  /* Check the parameters */
  assert_param(IS_NVIC_PRIORITY_GROUP(PriorityGroup));
  
  /* Set the PRIGROUP[10:8] bits according to the PriorityGroup parameter value */
  NVIC_SetPriorityGrouping(PriorityGroup);
 8002390:	6878      	ldr	r0, [r7, #4]
 8002392:	f7ff ff29 	bl	80021e8 <__NVIC_SetPriorityGrouping>
}
 8002396:	bf00      	nop
 8002398:	3708      	adds	r7, #8
 800239a:	46bd      	mov	sp, r7
 800239c:	bd80      	pop	{r7, pc}

0800239e <HAL_NVIC_SetPriority>:
  *         This parameter can be a value between 0 and 15
  *         A lower priority value indicates a higher priority.          
  * @retval None
  */
void HAL_NVIC_SetPriority(IRQn_Type IRQn, uint32_t PreemptPriority, uint32_t SubPriority)
{ 
 800239e:	b580      	push	{r7, lr}
 80023a0:	b086      	sub	sp, #24
 80023a2:	af00      	add	r7, sp, #0
 80023a4:	4603      	mov	r3, r0
 80023a6:	60b9      	str	r1, [r7, #8]
 80023a8:	607a      	str	r2, [r7, #4]
 80023aa:	73fb      	strb	r3, [r7, #15]
  uint32_t prioritygroup = 0x00U;
 80023ac:	2300      	movs	r3, #0
 80023ae:	617b      	str	r3, [r7, #20]
  
  /* Check the parameters */
  assert_param(IS_NVIC_SUB_PRIORITY(SubPriority));
  assert_param(IS_NVIC_PREEMPTION_PRIORITY(PreemptPriority));
  
  prioritygroup = NVIC_GetPriorityGrouping();
 80023b0:	f7ff ff3e 	bl	8002230 <__NVIC_GetPriorityGrouping>
 80023b4:	6178      	str	r0, [r7, #20]
  
  NVIC_SetPriority(IRQn, NVIC_EncodePriority(prioritygroup, PreemptPriority, SubPriority));
 80023b6:	687a      	ldr	r2, [r7, #4]
 80023b8:	68b9      	ldr	r1, [r7, #8]
 80023ba:	6978      	ldr	r0, [r7, #20]
 80023bc:	f7ff ff8e 	bl	80022dc <NVIC_EncodePriority>
 80023c0:	4602      	mov	r2, r0
 80023c2:	f997 300f 	ldrsb.w	r3, [r7, #15]
 80023c6:	4611      	mov	r1, r2
 80023c8:	4618      	mov	r0, r3
 80023ca:	f7ff ff5d 	bl	8002288 <__NVIC_SetPriority>
}
 80023ce:	bf00      	nop
 80023d0:	3718      	adds	r7, #24
 80023d2:	46bd      	mov	sp, r7
 80023d4:	bd80      	pop	{r7, pc}

080023d6 <HAL_NVIC_EnableIRQ>:
  *         This parameter can be an enumerator of IRQn_Type enumeration
  *         (For the complete STM32 Devices IRQ Channels list, please refer to the appropriate CMSIS device file (stm32f4xxxx.h))
  * @retval None
  */
void HAL_NVIC_EnableIRQ(IRQn_Type IRQn)
{
 80023d6:	b580      	push	{r7, lr}
 80023d8:	b082      	sub	sp, #8
 80023da:	af00      	add	r7, sp, #0
 80023dc:	4603      	mov	r3, r0
 80023de:	71fb      	strb	r3, [r7, #7]
  /* Check the parameters */
  assert_param(IS_NVIC_DEVICE_IRQ(IRQn));
  
  /* Enable interrupt */
  NVIC_EnableIRQ(IRQn);
 80023e0:	f997 3007 	ldrsb.w	r3, [r7, #7]
 80023e4:	4618      	mov	r0, r3
 80023e6:	f7ff ff31 	bl	800224c <__NVIC_EnableIRQ>
}
 80023ea:	bf00      	nop
 80023ec:	3708      	adds	r7, #8
 80023ee:	46bd      	mov	sp, r7
 80023f0:	bd80      	pop	{r7, pc}

080023f2 <HAL_SYSTICK_Config>:
  * @param  TicksNumb Specifies the ticks Number of ticks between two interrupts.
  * @retval status:  - 0  Function succeeded.
  *                  - 1  Function failed.
  */
uint32_t HAL_SYSTICK_Config(uint32_t TicksNumb)
{
 80023f2:	b580      	push	{r7, lr}
 80023f4:	b082      	sub	sp, #8
 80023f6:	af00      	add	r7, sp, #0
 80023f8:	6078      	str	r0, [r7, #4]
   return SysTick_Config(TicksNumb);
 80023fa:	6878      	ldr	r0, [r7, #4]
 80023fc:	f7ff ffa2 	bl	8002344 <SysTick_Config>
 8002400:	4603      	mov	r3, r0
}
 8002402:	4618      	mov	r0, r3
 8002404:	3708      	adds	r7, #8
 8002406:	46bd      	mov	sp, r7
 8002408:	bd80      	pop	{r7, pc}
	...

0800240c <HAL_DMA_Init>:
  * @param  hdma Pointer to a DMA_HandleTypeDef structure that contains
  *               the configuration information for the specified DMA Stream.  
  * @retval HAL status
  */
HAL_StatusTypeDef HAL_DMA_Init(DMA_HandleTypeDef *hdma)
{
 800240c:	b580      	push	{r7, lr}
 800240e:	b086      	sub	sp, #24
 8002410:	af00      	add	r7, sp, #0
 8002412:	6078      	str	r0, [r7, #4]
  uint32_t tmp = 0U;
 8002414:	2300      	movs	r3, #0
 8002416:	617b      	str	r3, [r7, #20]
  uint32_t tickstart = HAL_GetTick();
 8002418:	f7ff faa6 	bl	8001968 <HAL_GetTick>
 800241c:	6138      	str	r0, [r7, #16]
  DMA_Base_Registers *regs;

  /* Check the DMA peripheral state */
  if(hdma == NULL)
 800241e:	687b      	ldr	r3, [r7, #4]
 8002420:	2b00      	cmp	r3, #0
 8002422:	d101      	bne.n	8002428 <HAL_DMA_Init+0x1c>
  {
    return HAL_ERROR;
 8002424:	2301      	movs	r3, #1
 8002426:	e099      	b.n	800255c <HAL_DMA_Init+0x150>
    assert_param(IS_DMA_MEMORY_BURST(hdma->Init.MemBurst));
    assert_param(IS_DMA_PERIPHERAL_BURST(hdma->Init.PeriphBurst));
  }
  
  /* Allocate lock resource */
  __HAL_UNLOCK(hdma);
 8002428:	687b      	ldr	r3, [r7, #4]
 800242a:	2200      	movs	r2, #0
 800242c:	f883 2034 	strb.w	r2, [r3, #52]	; 0x34

  /* Change DMA peripheral state */
  hdma->State = HAL_DMA_STATE_BUSY;
 8002430:	687b      	ldr	r3, [r7, #4]
 8002432:	2202      	movs	r2, #2
 8002434:	f883 2035 	strb.w	r2, [r3, #53]	; 0x35
  
  /* Disable the peripheral */
  __HAL_DMA_DISABLE(hdma);
 8002438:	687b      	ldr	r3, [r7, #4]
 800243a:	681b      	ldr	r3, [r3, #0]
 800243c:	681a      	ldr	r2, [r3, #0]
 800243e:	687b      	ldr	r3, [r7, #4]
 8002440:	681b      	ldr	r3, [r3, #0]
 8002442:	f022 0201 	bic.w	r2, r2, #1
 8002446:	601a      	str	r2, [r3, #0]
  
  /* Check if the DMA Stream is effectively disabled */
  while((hdma->Instance->CR & DMA_SxCR_EN) != RESET)
 8002448:	e00f      	b.n	800246a <HAL_DMA_Init+0x5e>
  {
    /* Check for the Timeout */
    if((HAL_GetTick() - tickstart ) > HAL_TIMEOUT_DMA_ABORT)
 800244a:	f7ff fa8d 	bl	8001968 <HAL_GetTick>
 800244e:	4602      	mov	r2, r0
 8002450:	693b      	ldr	r3, [r7, #16]
 8002452:	1ad3      	subs	r3, r2, r3
 8002454:	2b05      	cmp	r3, #5
 8002456:	d908      	bls.n	800246a <HAL_DMA_Init+0x5e>
    {
      /* Update error code */
      hdma->ErrorCode = HAL_DMA_ERROR_TIMEOUT;
 8002458:	687b      	ldr	r3, [r7, #4]
 800245a:	2220      	movs	r2, #32
 800245c:	655a      	str	r2, [r3, #84]	; 0x54
      
      /* Change the DMA state */
      hdma->State = HAL_DMA_STATE_TIMEOUT;
 800245e:	687b      	ldr	r3, [r7, #4]
 8002460:	2203      	movs	r2, #3
 8002462:	f883 2035 	strb.w	r2, [r3, #53]	; 0x35
      
      return HAL_TIMEOUT;
 8002466:	2303      	movs	r3, #3
 8002468:	e078      	b.n	800255c <HAL_DMA_Init+0x150>
  while((hdma->Instance->CR & DMA_SxCR_EN) != RESET)
 800246a:	687b      	ldr	r3, [r7, #4]
 800246c:	681b      	ldr	r3, [r3, #0]
 800246e:	681b      	ldr	r3, [r3, #0]
 8002470:	f003 0301 	and.w	r3, r3, #1
 8002474:	2b00      	cmp	r3, #0
 8002476:	d1e8      	bne.n	800244a <HAL_DMA_Init+0x3e>
    }
  }
  
  /* Get the CR register value */
  tmp = hdma->Instance->CR;
 8002478:	687b      	ldr	r3, [r7, #4]
 800247a:	681b      	ldr	r3, [r3, #0]
 800247c:	681b      	ldr	r3, [r3, #0]
 800247e:	617b      	str	r3, [r7, #20]

  /* Clear CHSEL, MBURST, PBURST, PL, MSIZE, PSIZE, MINC, PINC, CIRC, DIR, CT and DBM bits */
  tmp &= ((uint32_t)~(DMA_SxCR_CHSEL | DMA_SxCR_MBURST | DMA_SxCR_PBURST | \
 8002480:	697a      	ldr	r2, [r7, #20]
 8002482:	4b38      	ldr	r3, [pc, #224]	; (8002564 <HAL_DMA_Init+0x158>)
 8002484:	4013      	ands	r3, r2
 8002486:	617b      	str	r3, [r7, #20]
                      DMA_SxCR_PL    | DMA_SxCR_MSIZE  | DMA_SxCR_PSIZE  | \
                      DMA_SxCR_MINC  | DMA_SxCR_PINC   | DMA_SxCR_CIRC   | \
                      DMA_SxCR_DIR   | DMA_SxCR_CT     | DMA_SxCR_DBM));

  /* Prepare the DMA Stream configuration */
  tmp |=  hdma->Init.Channel             | hdma->Init.Direction        |
 8002488:	687b      	ldr	r3, [r7, #4]
 800248a:	685a      	ldr	r2, [r3, #4]
 800248c:	687b      	ldr	r3, [r7, #4]
 800248e:	689b      	ldr	r3, [r3, #8]
 8002490:	431a      	orrs	r2, r3
          hdma->Init.PeriphInc           | hdma->Init.MemInc           |
 8002492:	687b      	ldr	r3, [r7, #4]
 8002494:	68db      	ldr	r3, [r3, #12]
  tmp |=  hdma->Init.Channel             | hdma->Init.Direction        |
 8002496:	431a      	orrs	r2, r3
          hdma->Init.PeriphInc           | hdma->Init.MemInc           |
 8002498:	687b      	ldr	r3, [r7, #4]
 800249a:	691b      	ldr	r3, [r3, #16]
 800249c:	431a      	orrs	r2, r3
          hdma->Init.PeriphDataAlignment | hdma->Init.MemDataAlignment |
 800249e:	687b      	ldr	r3, [r7, #4]
 80024a0:	695b      	ldr	r3, [r3, #20]
          hdma->Init.PeriphInc           | hdma->Init.MemInc           |
 80024a2:	431a      	orrs	r2, r3
          hdma->Init.PeriphDataAlignment | hdma->Init.MemDataAlignment |
 80024a4:	687b      	ldr	r3, [r7, #4]
 80024a6:	699b      	ldr	r3, [r3, #24]
 80024a8:	431a      	orrs	r2, r3
          hdma->Init.Mode                | hdma->Init.Priority;
 80024aa:	687b      	ldr	r3, [r7, #4]
 80024ac:	69db      	ldr	r3, [r3, #28]
          hdma->Init.PeriphDataAlignment | hdma->Init.MemDataAlignment |
 80024ae:	431a      	orrs	r2, r3
          hdma->Init.Mode                | hdma->Init.Priority;
 80024b0:	687b      	ldr	r3, [r7, #4]
 80024b2:	6a1b      	ldr	r3, [r3, #32]
 80024b4:	4313      	orrs	r3, r2
  tmp |=  hdma->Init.Channel             | hdma->Init.Direction        |
 80024b6:	697a      	ldr	r2, [r7, #20]
 80024b8:	4313      	orrs	r3, r2
 80024ba:	617b      	str	r3, [r7, #20]

  /* the Memory burst and peripheral burst are not used when the FIFO is disabled */
  if(hdma->Init.FIFOMode == DMA_FIFOMODE_ENABLE)
 80024bc:	687b      	ldr	r3, [r7, #4]
 80024be:	6a5b      	ldr	r3, [r3, #36]	; 0x24
 80024c0:	2b04      	cmp	r3, #4
 80024c2:	d107      	bne.n	80024d4 <HAL_DMA_Init+0xc8>
  {
    /* Get memory burst and peripheral burst */
    tmp |=  hdma->Init.MemBurst | hdma->Init.PeriphBurst;
 80024c4:	687b      	ldr	r3, [r7, #4]
 80024c6:	6ada      	ldr	r2, [r3, #44]	; 0x2c
 80024c8:	687b      	ldr	r3, [r7, #4]
 80024ca:	6b1b      	ldr	r3, [r3, #48]	; 0x30
 80024cc:	4313      	orrs	r3, r2
 80024ce:	697a      	ldr	r2, [r7, #20]
 80024d0:	4313      	orrs	r3, r2
 80024d2:	617b      	str	r3, [r7, #20]
  }
  
  /* Write to DMA Stream CR register */
  hdma->Instance->CR = tmp;  
 80024d4:	687b      	ldr	r3, [r7, #4]
 80024d6:	681b      	ldr	r3, [r3, #0]
 80024d8:	697a      	ldr	r2, [r7, #20]
 80024da:	601a      	str	r2, [r3, #0]

  /* Get the FCR register value */
  tmp = hdma->Instance->FCR;
 80024dc:	687b      	ldr	r3, [r7, #4]
 80024de:	681b      	ldr	r3, [r3, #0]
 80024e0:	695b      	ldr	r3, [r3, #20]
 80024e2:	617b      	str	r3, [r7, #20]

  /* Clear Direct mode and FIFO threshold bits */
  tmp &= (uint32_t)~(DMA_SxFCR_DMDIS | DMA_SxFCR_FTH);
 80024e4:	697b      	ldr	r3, [r7, #20]
 80024e6:	f023 0307 	bic.w	r3, r3, #7
 80024ea:	617b      	str	r3, [r7, #20]

  /* Prepare the DMA Stream FIFO configuration */
  tmp |= hdma->Init.FIFOMode;
 80024ec:	687b      	ldr	r3, [r7, #4]
 80024ee:	6a5b      	ldr	r3, [r3, #36]	; 0x24
 80024f0:	697a      	ldr	r2, [r7, #20]
 80024f2:	4313      	orrs	r3, r2
 80024f4:	617b      	str	r3, [r7, #20]

  /* The FIFO threshold is not used when the FIFO mode is disabled */
  if(hdma->Init.FIFOMode == DMA_FIFOMODE_ENABLE)
 80024f6:	687b      	ldr	r3, [r7, #4]
 80024f8:	6a5b      	ldr	r3, [r3, #36]	; 0x24
 80024fa:	2b04      	cmp	r3, #4
 80024fc:	d117      	bne.n	800252e <HAL_DMA_Init+0x122>
  {
    /* Get the FIFO threshold */
    tmp |= hdma->Init.FIFOThreshold;
 80024fe:	687b      	ldr	r3, [r7, #4]
 8002500:	6a9b      	ldr	r3, [r3, #40]	; 0x28
 8002502:	697a      	ldr	r2, [r7, #20]
 8002504:	4313      	orrs	r3, r2
 8002506:	617b      	str	r3, [r7, #20]
    
    /* Check compatibility between FIFO threshold level and size of the memory burst */
    /* for INCR4, INCR8, INCR16 bursts */
    if (hdma->Init.MemBurst != DMA_MBURST_SINGLE)
 8002508:	687b      	ldr	r3, [r7, #4]
 800250a:	6adb      	ldr	r3, [r3, #44]	; 0x2c
 800250c:	2b00      	cmp	r3, #0
 800250e:	d00e      	beq.n	800252e <HAL_DMA_Init+0x122>
    {
      if (DMA_CheckFifoParam(hdma) != HAL_OK)
 8002510:	6878      	ldr	r0, [r7, #4]
 8002512:	f000 fb01 	bl	8002b18 <DMA_CheckFifoParam>
 8002516:	4603      	mov	r3, r0
 8002518:	2b00      	cmp	r3, #0
 800251a:	d008      	beq.n	800252e <HAL_DMA_Init+0x122>
      {
        /* Update error code */
        hdma->ErrorCode = HAL_DMA_ERROR_PARAM;
 800251c:	687b      	ldr	r3, [r7, #4]
 800251e:	2240      	movs	r2, #64	; 0x40
 8002520:	655a      	str	r2, [r3, #84]	; 0x54
        
        /* Change the DMA state */
        hdma->State = HAL_DMA_STATE_READY;
 8002522:	687b      	ldr	r3, [r7, #4]
 8002524:	2201      	movs	r2, #1
 8002526:	f883 2035 	strb.w	r2, [r3, #53]	; 0x35
        
        return HAL_ERROR; 
 800252a:	2301      	movs	r3, #1
 800252c:	e016      	b.n	800255c <HAL_DMA_Init+0x150>
      }
    }
  }
  
  /* Write to DMA Stream FCR */
  hdma->Instance->FCR = tmp;
 800252e:	687b      	ldr	r3, [r7, #4]
 8002530:	681b      	ldr	r3, [r3, #0]
 8002532:	697a      	ldr	r2, [r7, #20]
 8002534:	615a      	str	r2, [r3, #20]

  /* Initialize StreamBaseAddress and StreamIndex parameters to be used to calculate
     DMA steam Base Address needed by HAL_DMA_IRQHandler() and HAL_DMA_PollForTransfer() */
  regs = (DMA_Base_Registers *)DMA_CalcBaseAndBitshift(hdma);
 8002536:	6878      	ldr	r0, [r7, #4]
 8002538:	f000 fab8 	bl	8002aac <DMA_CalcBaseAndBitshift>
 800253c:	4603      	mov	r3, r0
 800253e:	60fb      	str	r3, [r7, #12]
  
  /* Clear all interrupt flags */
  regs->IFCR = 0x3FU << hdma->StreamIndex;
 8002540:	687b      	ldr	r3, [r7, #4]
 8002542:	6ddb      	ldr	r3, [r3, #92]	; 0x5c
 8002544:	223f      	movs	r2, #63	; 0x3f
 8002546:	409a      	lsls	r2, r3
 8002548:	68fb      	ldr	r3, [r7, #12]
 800254a:	609a      	str	r2, [r3, #8]

  /* Initialize the error code */
  hdma->ErrorCode = HAL_DMA_ERROR_NONE;
 800254c:	687b      	ldr	r3, [r7, #4]
 800254e:	2200      	movs	r2, #0
 8002550:	655a      	str	r2, [r3, #84]	; 0x54
                                                                                     
  /* Initialize the DMA state */
  hdma->State = HAL_DMA_STATE_READY;
 8002552:	687b      	ldr	r3, [r7, #4]
 8002554:	2201      	movs	r2, #1
 8002556:	f883 2035 	strb.w	r2, [r3, #53]	; 0x35

  return HAL_OK;
 800255a:	2300      	movs	r3, #0
}
 800255c:	4618      	mov	r0, r3
 800255e:	3718      	adds	r7, #24
 8002560:	46bd      	mov	sp, r7
 8002562:	bd80      	pop	{r7, pc}
 8002564:	f010803f 	.word	0xf010803f

08002568 <HAL_DMA_Start_IT>:
  * @param  DstAddress The destination memory Buffer address
  * @param  DataLength The length of data to be transferred from source to destination
  * @retval HAL status
  */
HAL_StatusTypeDef HAL_DMA_Start_IT(DMA_HandleTypeDef *hdma, uint32_t SrcAddress, uint32_t DstAddress, uint32_t DataLength)
{
 8002568:	b580      	push	{r7, lr}
 800256a:	b086      	sub	sp, #24
 800256c:	af00      	add	r7, sp, #0
 800256e:	60f8      	str	r0, [r7, #12]
 8002570:	60b9      	str	r1, [r7, #8]
 8002572:	607a      	str	r2, [r7, #4]
 8002574:	603b      	str	r3, [r7, #0]
  HAL_StatusTypeDef status = HAL_OK;
 8002576:	2300      	movs	r3, #0
 8002578:	75fb      	strb	r3, [r7, #23]

  /* calculate DMA base and stream number */
  DMA_Base_Registers *regs = (DMA_Base_Registers *)hdma->StreamBaseAddress;
 800257a:	68fb      	ldr	r3, [r7, #12]
 800257c:	6d9b      	ldr	r3, [r3, #88]	; 0x58
 800257e:	613b      	str	r3, [r7, #16]
  
  /* Check the parameters */
  assert_param(IS_DMA_BUFFER_SIZE(DataLength));
 
  /* Process locked */
  __HAL_LOCK(hdma);
 8002580:	68fb      	ldr	r3, [r7, #12]
 8002582:	f893 3034 	ldrb.w	r3, [r3, #52]	; 0x34
 8002586:	2b01      	cmp	r3, #1
 8002588:	d101      	bne.n	800258e <HAL_DMA_Start_IT+0x26>
 800258a:	2302      	movs	r3, #2
 800258c:	e040      	b.n	8002610 <HAL_DMA_Start_IT+0xa8>
 800258e:	68fb      	ldr	r3, [r7, #12]
 8002590:	2201      	movs	r2, #1
 8002592:	f883 2034 	strb.w	r2, [r3, #52]	; 0x34
  
  if(HAL_DMA_STATE_READY == hdma->State)
 8002596:	68fb      	ldr	r3, [r7, #12]
 8002598:	f893 3035 	ldrb.w	r3, [r3, #53]	; 0x35
 800259c:	b2db      	uxtb	r3, r3
 800259e:	2b01      	cmp	r3, #1
 80025a0:	d12f      	bne.n	8002602 <HAL_DMA_Start_IT+0x9a>
  {
    /* Change DMA peripheral state */
    hdma->State = HAL_DMA_STATE_BUSY;
 80025a2:	68fb      	ldr	r3, [r7, #12]
 80025a4:	2202      	movs	r2, #2
 80025a6:	f883 2035 	strb.w	r2, [r3, #53]	; 0x35
    
    /* Initialize the error code */
    hdma->ErrorCode = HAL_DMA_ERROR_NONE;
 80025aa:	68fb      	ldr	r3, [r7, #12]
 80025ac:	2200      	movs	r2, #0
 80025ae:	655a      	str	r2, [r3, #84]	; 0x54
    
    /* Configure the source, destination address and the data length */
    DMA_SetConfig(hdma, SrcAddress, DstAddress, DataLength);
 80025b0:	683b      	ldr	r3, [r7, #0]
 80025b2:	687a      	ldr	r2, [r7, #4]
 80025b4:	68b9      	ldr	r1, [r7, #8]
 80025b6:	68f8      	ldr	r0, [r7, #12]
 80025b8:	f000 fa4a 	bl	8002a50 <DMA_SetConfig>
    
    /* Clear all interrupt flags at correct offset within the register */
    regs->IFCR = 0x3FU << hdma->StreamIndex;
 80025bc:	68fb      	ldr	r3, [r7, #12]
 80025be:	6ddb      	ldr	r3, [r3, #92]	; 0x5c
 80025c0:	223f      	movs	r2, #63	; 0x3f
 80025c2:	409a      	lsls	r2, r3
 80025c4:	693b      	ldr	r3, [r7, #16]
 80025c6:	609a      	str	r2, [r3, #8]
    
    /* Enable Common interrupts*/
    hdma->Instance->CR  |= DMA_IT_TC | DMA_IT_TE | DMA_IT_DME;
 80025c8:	68fb      	ldr	r3, [r7, #12]
 80025ca:	681b      	ldr	r3, [r3, #0]
 80025cc:	681a      	ldr	r2, [r3, #0]
 80025ce:	68fb      	ldr	r3, [r7, #12]
 80025d0:	681b      	ldr	r3, [r3, #0]
 80025d2:	f042 0216 	orr.w	r2, r2, #22
 80025d6:	601a      	str	r2, [r3, #0]
    
    if(hdma->XferHalfCpltCallback != NULL)
 80025d8:	68fb      	ldr	r3, [r7, #12]
 80025da:	6c1b      	ldr	r3, [r3, #64]	; 0x40
 80025dc:	2b00      	cmp	r3, #0
 80025de:	d007      	beq.n	80025f0 <HAL_DMA_Start_IT+0x88>
    {
      hdma->Instance->CR  |= DMA_IT_HT;
 80025e0:	68fb      	ldr	r3, [r7, #12]
 80025e2:	681b      	ldr	r3, [r3, #0]
 80025e4:	681a      	ldr	r2, [r3, #0]
 80025e6:	68fb      	ldr	r3, [r7, #12]
 80025e8:	681b      	ldr	r3, [r3, #0]
 80025ea:	f042 0208 	orr.w	r2, r2, #8
 80025ee:	601a      	str	r2, [r3, #0]
    }
    
    /* Enable the Peripheral */
    __HAL_DMA_ENABLE(hdma);
 80025f0:	68fb      	ldr	r3, [r7, #12]
 80025f2:	681b      	ldr	r3, [r3, #0]
 80025f4:	681a      	ldr	r2, [r3, #0]
 80025f6:	68fb      	ldr	r3, [r7, #12]
 80025f8:	681b      	ldr	r3, [r3, #0]
 80025fa:	f042 0201 	orr.w	r2, r2, #1
 80025fe:	601a      	str	r2, [r3, #0]
 8002600:	e005      	b.n	800260e <HAL_DMA_Start_IT+0xa6>
  }
  else
  {
    /* Process unlocked */
    __HAL_UNLOCK(hdma);	  
 8002602:	68fb      	ldr	r3, [r7, #12]
 8002604:	2200      	movs	r2, #0
 8002606:	f883 2034 	strb.w	r2, [r3, #52]	; 0x34
    
    /* Return error status */
    status = HAL_BUSY;
 800260a:	2302      	movs	r3, #2
 800260c:	75fb      	strb	r3, [r7, #23]
  }
  
  return status;
 800260e:	7dfb      	ldrb	r3, [r7, #23]
}
 8002610:	4618      	mov	r0, r3
 8002612:	3718      	adds	r7, #24
 8002614:	46bd      	mov	sp, r7
 8002616:	bd80      	pop	{r7, pc}

08002618 <HAL_DMA_Abort>:
  *        and the Stream will be effectively disabled only after the transfer of
  *        this single data is finished.  
  * @retval HAL status
  */
HAL_StatusTypeDef HAL_DMA_Abort(DMA_HandleTypeDef *hdma)
{
 8002618:	b580      	push	{r7, lr}
 800261a:	b084      	sub	sp, #16
 800261c:	af00      	add	r7, sp, #0
 800261e:	6078      	str	r0, [r7, #4]
  /* calculate DMA base and stream number */
  DMA_Base_Registers *regs = (DMA_Base_Registers *)hdma->StreamBaseAddress;
 8002620:	687b      	ldr	r3, [r7, #4]
 8002622:	6d9b      	ldr	r3, [r3, #88]	; 0x58
 8002624:	60fb      	str	r3, [r7, #12]
  
  uint32_t tickstart = HAL_GetTick();
 8002626:	f7ff f99f 	bl	8001968 <HAL_GetTick>
 800262a:	60b8      	str	r0, [r7, #8]
  
  if(hdma->State != HAL_DMA_STATE_BUSY)
 800262c:	687b      	ldr	r3, [r7, #4]
 800262e:	f893 3035 	ldrb.w	r3, [r3, #53]	; 0x35
 8002632:	b2db      	uxtb	r3, r3
 8002634:	2b02      	cmp	r3, #2
 8002636:	d008      	beq.n	800264a <HAL_DMA_Abort+0x32>
  {
    hdma->ErrorCode = HAL_DMA_ERROR_NO_XFER;
 8002638:	687b      	ldr	r3, [r7, #4]
 800263a:	2280      	movs	r2, #128	; 0x80
 800263c:	655a      	str	r2, [r3, #84]	; 0x54
    
    /* Process Unlocked */
    __HAL_UNLOCK(hdma);
 800263e:	687b      	ldr	r3, [r7, #4]
 8002640:	2200      	movs	r2, #0
 8002642:	f883 2034 	strb.w	r2, [r3, #52]	; 0x34
    
    return HAL_ERROR;
 8002646:	2301      	movs	r3, #1
 8002648:	e052      	b.n	80026f0 <HAL_DMA_Abort+0xd8>
  }
  else
  {
    /* Disable all the transfer interrupts */
    hdma->Instance->CR  &= ~(DMA_IT_TC | DMA_IT_TE | DMA_IT_DME);
 800264a:	687b      	ldr	r3, [r7, #4]
 800264c:	681b      	ldr	r3, [r3, #0]
 800264e:	681a      	ldr	r2, [r3, #0]
 8002650:	687b      	ldr	r3, [r7, #4]
 8002652:	681b      	ldr	r3, [r3, #0]
 8002654:	f022 0216 	bic.w	r2, r2, #22
 8002658:	601a      	str	r2, [r3, #0]
    hdma->Instance->FCR &= ~(DMA_IT_FE);
 800265a:	687b      	ldr	r3, [r7, #4]
 800265c:	681b      	ldr	r3, [r3, #0]
 800265e:	695a      	ldr	r2, [r3, #20]
 8002660:	687b      	ldr	r3, [r7, #4]
 8002662:	681b      	ldr	r3, [r3, #0]
 8002664:	f022 0280 	bic.w	r2, r2, #128	; 0x80
 8002668:	615a      	str	r2, [r3, #20]
    
    if((hdma->XferHalfCpltCallback != NULL) || (hdma->XferM1HalfCpltCallback != NULL))
 800266a:	687b      	ldr	r3, [r7, #4]
 800266c:	6c1b      	ldr	r3, [r3, #64]	; 0x40
 800266e:	2b00      	cmp	r3, #0
 8002670:	d103      	bne.n	800267a <HAL_DMA_Abort+0x62>
 8002672:	687b      	ldr	r3, [r7, #4]
 8002674:	6c9b      	ldr	r3, [r3, #72]	; 0x48
 8002676:	2b00      	cmp	r3, #0
 8002678:	d007      	beq.n	800268a <HAL_DMA_Abort+0x72>
    {
      hdma->Instance->CR  &= ~(DMA_IT_HT);
 800267a:	687b      	ldr	r3, [r7, #4]
 800267c:	681b      	ldr	r3, [r3, #0]
 800267e:	681a      	ldr	r2, [r3, #0]
 8002680:	687b      	ldr	r3, [r7, #4]
 8002682:	681b      	ldr	r3, [r3, #0]
 8002684:	f022 0208 	bic.w	r2, r2, #8
 8002688:	601a      	str	r2, [r3, #0]
    }
    
    /* Disable the stream */
    __HAL_DMA_DISABLE(hdma);
 800268a:	687b      	ldr	r3, [r7, #4]
 800268c:	681b      	ldr	r3, [r3, #0]
 800268e:	681a      	ldr	r2, [r3, #0]
 8002690:	687b      	ldr	r3, [r7, #4]
 8002692:	681b      	ldr	r3, [r3, #0]
 8002694:	f022 0201 	bic.w	r2, r2, #1
 8002698:	601a      	str	r2, [r3, #0]
    
    /* Check if the DMA Stream is effectively disabled */
    while((hdma->Instance->CR & DMA_SxCR_EN) != RESET)
 800269a:	e013      	b.n	80026c4 <HAL_DMA_Abort+0xac>
    {
      /* Check for the Timeout */
      if((HAL_GetTick() - tickstart ) > HAL_TIMEOUT_DMA_ABORT)
 800269c:	f7ff f964 	bl	8001968 <HAL_GetTick>
 80026a0:	4602      	mov	r2, r0
 80026a2:	68bb      	ldr	r3, [r7, #8]
 80026a4:	1ad3      	subs	r3, r2, r3
 80026a6:	2b05      	cmp	r3, #5
 80026a8:	d90c      	bls.n	80026c4 <HAL_DMA_Abort+0xac>
      {
        /* Update error code */
        hdma->ErrorCode = HAL_DMA_ERROR_TIMEOUT;
 80026aa:	687b      	ldr	r3, [r7, #4]
 80026ac:	2220      	movs	r2, #32
 80026ae:	655a      	str	r2, [r3, #84]	; 0x54
        
        /* Process Unlocked */
        __HAL_UNLOCK(hdma);
 80026b0:	687b      	ldr	r3, [r7, #4]
 80026b2:	2200      	movs	r2, #0
 80026b4:	f883 2034 	strb.w	r2, [r3, #52]	; 0x34
        
        /* Change the DMA state */
        hdma->State = HAL_DMA_STATE_TIMEOUT;
 80026b8:	687b      	ldr	r3, [r7, #4]
 80026ba:	2203      	movs	r2, #3
 80026bc:	f883 2035 	strb.w	r2, [r3, #53]	; 0x35
        
        return HAL_TIMEOUT;
 80026c0:	2303      	movs	r3, #3
 80026c2:	e015      	b.n	80026f0 <HAL_DMA_Abort+0xd8>
    while((hdma->Instance->CR & DMA_SxCR_EN) != RESET)
 80026c4:	687b      	ldr	r3, [r7, #4]
 80026c6:	681b      	ldr	r3, [r3, #0]
 80026c8:	681b      	ldr	r3, [r3, #0]
 80026ca:	f003 0301 	and.w	r3, r3, #1
 80026ce:	2b00      	cmp	r3, #0
 80026d0:	d1e4      	bne.n	800269c <HAL_DMA_Abort+0x84>
      }
    }
    
    /* Clear all interrupt flags at correct offset within the register */
    regs->IFCR = 0x3FU << hdma->StreamIndex;
 80026d2:	687b      	ldr	r3, [r7, #4]
 80026d4:	6ddb      	ldr	r3, [r3, #92]	; 0x5c
 80026d6:	223f      	movs	r2, #63	; 0x3f
 80026d8:	409a      	lsls	r2, r3
 80026da:	68fb      	ldr	r3, [r7, #12]
 80026dc:	609a      	str	r2, [r3, #8]
    
    /* Process Unlocked */
    __HAL_UNLOCK(hdma);
 80026de:	687b      	ldr	r3, [r7, #4]
 80026e0:	2200      	movs	r2, #0
 80026e2:	f883 2034 	strb.w	r2, [r3, #52]	; 0x34
    
    /* Change the DMA state*/
    hdma->State = HAL_DMA_STATE_READY;
 80026e6:	687b      	ldr	r3, [r7, #4]
 80026e8:	2201      	movs	r2, #1
 80026ea:	f883 2035 	strb.w	r2, [r3, #53]	; 0x35
  }
  return HAL_OK;
 80026ee:	2300      	movs	r3, #0
}
 80026f0:	4618      	mov	r0, r3
 80026f2:	3710      	adds	r7, #16
 80026f4:	46bd      	mov	sp, r7
 80026f6:	bd80      	pop	{r7, pc}

080026f8 <HAL_DMA_Abort_IT>:
  * @param  hdma   pointer to a DMA_HandleTypeDef structure that contains
  *                 the configuration information for the specified DMA Stream.
  * @retval HAL status
  */
HAL_StatusTypeDef HAL_DMA_Abort_IT(DMA_HandleTypeDef *hdma)
{
 80026f8:	b480      	push	{r7}
 80026fa:	b083      	sub	sp, #12
 80026fc:	af00      	add	r7, sp, #0
 80026fe:	6078      	str	r0, [r7, #4]
  if(hdma->State != HAL_DMA_STATE_BUSY)
 8002700:	687b      	ldr	r3, [r7, #4]
 8002702:	f893 3035 	ldrb.w	r3, [r3, #53]	; 0x35
 8002706:	b2db      	uxtb	r3, r3
 8002708:	2b02      	cmp	r3, #2
 800270a:	d004      	beq.n	8002716 <HAL_DMA_Abort_IT+0x1e>
  {
    hdma->ErrorCode = HAL_DMA_ERROR_NO_XFER;
 800270c:	687b      	ldr	r3, [r7, #4]
 800270e:	2280      	movs	r2, #128	; 0x80
 8002710:	655a      	str	r2, [r3, #84]	; 0x54
    return HAL_ERROR;
 8002712:	2301      	movs	r3, #1
 8002714:	e00c      	b.n	8002730 <HAL_DMA_Abort_IT+0x38>
  }
  else
  {
    /* Set Abort State  */
    hdma->State = HAL_DMA_STATE_ABORT;
 8002716:	687b      	ldr	r3, [r7, #4]
 8002718:	2205      	movs	r2, #5
 800271a:	f883 2035 	strb.w	r2, [r3, #53]	; 0x35
    
    /* Disable the stream */
    __HAL_DMA_DISABLE(hdma);
 800271e:	687b      	ldr	r3, [r7, #4]
 8002720:	681b      	ldr	r3, [r3, #0]
 8002722:	681a      	ldr	r2, [r3, #0]
 8002724:	687b      	ldr	r3, [r7, #4]
 8002726:	681b      	ldr	r3, [r3, #0]
 8002728:	f022 0201 	bic.w	r2, r2, #1
 800272c:	601a      	str	r2, [r3, #0]
  }

  return HAL_OK;
 800272e:	2300      	movs	r3, #0
}
 8002730:	4618      	mov	r0, r3
 8002732:	370c      	adds	r7, #12
 8002734:	46bd      	mov	sp, r7
 8002736:	f85d 7b04 	ldr.w	r7, [sp], #4
 800273a:	4770      	bx	lr

0800273c <HAL_DMA_IRQHandler>:
  * @param  hdma pointer to a DMA_HandleTypeDef structure that contains
  *               the configuration information for the specified DMA Stream.  
  * @retval None
  */
void HAL_DMA_IRQHandler(DMA_HandleTypeDef *hdma)
{
 800273c:	b580      	push	{r7, lr}
 800273e:	b086      	sub	sp, #24
 8002740:	af00      	add	r7, sp, #0
 8002742:	6078      	str	r0, [r7, #4]
  uint32_t tmpisr;
  __IO uint32_t count = 0U;
 8002744:	2300      	movs	r3, #0
 8002746:	60bb      	str	r3, [r7, #8]
  uint32_t timeout = SystemCoreClock / 9600U;
 8002748:	4b92      	ldr	r3, [pc, #584]	; (8002994 <HAL_DMA_IRQHandler+0x258>)
 800274a:	681b      	ldr	r3, [r3, #0]
 800274c:	4a92      	ldr	r2, [pc, #584]	; (8002998 <HAL_DMA_IRQHandler+0x25c>)
 800274e:	fba2 2303 	umull	r2, r3, r2, r3
 8002752:	0a9b      	lsrs	r3, r3, #10
 8002754:	617b      	str	r3, [r7, #20]

  /* calculate DMA base and stream number */
  DMA_Base_Registers *regs = (DMA_Base_Registers *)hdma->StreamBaseAddress;
 8002756:	687b      	ldr	r3, [r7, #4]
 8002758:	6d9b      	ldr	r3, [r3, #88]	; 0x58
 800275a:	613b      	str	r3, [r7, #16]

  tmpisr = regs->ISR;
 800275c:	693b      	ldr	r3, [r7, #16]
 800275e:	681b      	ldr	r3, [r3, #0]
 8002760:	60fb      	str	r3, [r7, #12]

  /* Transfer Error Interrupt management ***************************************/
  if ((tmpisr & (DMA_FLAG_TEIF0_4 << hdma->StreamIndex)) != RESET)
 8002762:	687b      	ldr	r3, [r7, #4]
 8002764:	6ddb      	ldr	r3, [r3, #92]	; 0x5c
 8002766:	2208      	movs	r2, #8
 8002768:	409a      	lsls	r2, r3
 800276a:	68fb      	ldr	r3, [r7, #12]
 800276c:	4013      	ands	r3, r2
 800276e:	2b00      	cmp	r3, #0
 8002770:	d01a      	beq.n	80027a8 <HAL_DMA_IRQHandler+0x6c>
  {
    if(__HAL_DMA_GET_IT_SOURCE(hdma, DMA_IT_TE) != RESET)
 8002772:	687b      	ldr	r3, [r7, #4]
 8002774:	681b      	ldr	r3, [r3, #0]
 8002776:	681b      	ldr	r3, [r3, #0]
 8002778:	f003 0304 	and.w	r3, r3, #4
 800277c:	2b00      	cmp	r3, #0
 800277e:	d013      	beq.n	80027a8 <HAL_DMA_IRQHandler+0x6c>
    {
      /* Disable the transfer error interrupt */
      hdma->Instance->CR  &= ~(DMA_IT_TE);
 8002780:	687b      	ldr	r3, [r7, #4]
 8002782:	681b      	ldr	r3, [r3, #0]
 8002784:	681a      	ldr	r2, [r3, #0]
 8002786:	687b      	ldr	r3, [r7, #4]
 8002788:	681b      	ldr	r3, [r3, #0]
 800278a:	f022 0204 	bic.w	r2, r2, #4
 800278e:	601a      	str	r2, [r3, #0]
      
      /* Clear the transfer error flag */
      regs->IFCR = DMA_FLAG_TEIF0_4 << hdma->StreamIndex;
 8002790:	687b      	ldr	r3, [r7, #4]
 8002792:	6ddb      	ldr	r3, [r3, #92]	; 0x5c
 8002794:	2208      	movs	r2, #8
 8002796:	409a      	lsls	r2, r3
 8002798:	693b      	ldr	r3, [r7, #16]
 800279a:	609a      	str	r2, [r3, #8]
      
      /* Update error code */
      hdma->ErrorCode |= HAL_DMA_ERROR_TE;
 800279c:	687b      	ldr	r3, [r7, #4]
 800279e:	6d5b      	ldr	r3, [r3, #84]	; 0x54
 80027a0:	f043 0201 	orr.w	r2, r3, #1
 80027a4:	687b      	ldr	r3, [r7, #4]
 80027a6:	655a      	str	r2, [r3, #84]	; 0x54
    }
  }
  /* FIFO Error Interrupt management ******************************************/
  if ((tmpisr & (DMA_FLAG_FEIF0_4 << hdma->StreamIndex)) != RESET)
 80027a8:	687b      	ldr	r3, [r7, #4]
 80027aa:	6ddb      	ldr	r3, [r3, #92]	; 0x5c
 80027ac:	2201      	movs	r2, #1
 80027ae:	409a      	lsls	r2, r3
 80027b0:	68fb      	ldr	r3, [r7, #12]
 80027b2:	4013      	ands	r3, r2
 80027b4:	2b00      	cmp	r3, #0
 80027b6:	d012      	beq.n	80027de <HAL_DMA_IRQHandler+0xa2>
  {
    if(__HAL_DMA_GET_IT_SOURCE(hdma, DMA_IT_FE) != RESET)
 80027b8:	687b      	ldr	r3, [r7, #4]
 80027ba:	681b      	ldr	r3, [r3, #0]
 80027bc:	695b      	ldr	r3, [r3, #20]
 80027be:	f003 0380 	and.w	r3, r3, #128	; 0x80
 80027c2:	2b00      	cmp	r3, #0
 80027c4:	d00b      	beq.n	80027de <HAL_DMA_IRQHandler+0xa2>
    {
      /* Clear the FIFO error flag */
      regs->IFCR = DMA_FLAG_FEIF0_4 << hdma->StreamIndex;
 80027c6:	687b      	ldr	r3, [r7, #4]
 80027c8:	6ddb      	ldr	r3, [r3, #92]	; 0x5c
 80027ca:	2201      	movs	r2, #1
 80027cc:	409a      	lsls	r2, r3
 80027ce:	693b      	ldr	r3, [r7, #16]
 80027d0:	609a      	str	r2, [r3, #8]

      /* Update error code */
      hdma->ErrorCode |= HAL_DMA_ERROR_FE;
 80027d2:	687b      	ldr	r3, [r7, #4]
 80027d4:	6d5b      	ldr	r3, [r3, #84]	; 0x54
 80027d6:	f043 0202 	orr.w	r2, r3, #2
 80027da:	687b      	ldr	r3, [r7, #4]
 80027dc:	655a      	str	r2, [r3, #84]	; 0x54
    }
  }
  /* Direct Mode Error Interrupt management ***********************************/
  if ((tmpisr & (DMA_FLAG_DMEIF0_4 << hdma->StreamIndex)) != RESET)
 80027de:	687b      	ldr	r3, [r7, #4]
 80027e0:	6ddb      	ldr	r3, [r3, #92]	; 0x5c
 80027e2:	2204      	movs	r2, #4
 80027e4:	409a      	lsls	r2, r3
 80027e6:	68fb      	ldr	r3, [r7, #12]
 80027e8:	4013      	ands	r3, r2
 80027ea:	2b00      	cmp	r3, #0
 80027ec:	d012      	beq.n	8002814 <HAL_DMA_IRQHandler+0xd8>
  {
    if(__HAL_DMA_GET_IT_SOURCE(hdma, DMA_IT_DME) != RESET)
 80027ee:	687b      	ldr	r3, [r7, #4]
 80027f0:	681b      	ldr	r3, [r3, #0]
 80027f2:	681b      	ldr	r3, [r3, #0]
 80027f4:	f003 0302 	and.w	r3, r3, #2
 80027f8:	2b00      	cmp	r3, #0
 80027fa:	d00b      	beq.n	8002814 <HAL_DMA_IRQHandler+0xd8>
    {
      /* Clear the direct mode error flag */
      regs->IFCR = DMA_FLAG_DMEIF0_4 << hdma->StreamIndex;
 80027fc:	687b      	ldr	r3, [r7, #4]
 80027fe:	6ddb      	ldr	r3, [r3, #92]	; 0x5c
 8002800:	2204      	movs	r2, #4
 8002802:	409a      	lsls	r2, r3
 8002804:	693b      	ldr	r3, [r7, #16]
 8002806:	609a      	str	r2, [r3, #8]

      /* Update error code */
      hdma->ErrorCode |= HAL_DMA_ERROR_DME;
 8002808:	687b      	ldr	r3, [r7, #4]
 800280a:	6d5b      	ldr	r3, [r3, #84]	; 0x54
 800280c:	f043 0204 	orr.w	r2, r3, #4
 8002810:	687b      	ldr	r3, [r7, #4]
 8002812:	655a      	str	r2, [r3, #84]	; 0x54
    }
  }
  /* Half Transfer Complete Interrupt management ******************************/
  if ((tmpisr & (DMA_FLAG_HTIF0_4 << hdma->StreamIndex)) != RESET)
 8002814:	687b      	ldr	r3, [r7, #4]
 8002816:	6ddb      	ldr	r3, [r3, #92]	; 0x5c
 8002818:	2210      	movs	r2, #16
 800281a:	409a      	lsls	r2, r3
 800281c:	68fb      	ldr	r3, [r7, #12]
 800281e:	4013      	ands	r3, r2
 8002820:	2b00      	cmp	r3, #0
 8002822:	d043      	beq.n	80028ac <HAL_DMA_IRQHandler+0x170>
  {
    if(__HAL_DMA_GET_IT_SOURCE(hdma, DMA_IT_HT) != RESET)
 8002824:	687b      	ldr	r3, [r7, #4]
 8002826:	681b      	ldr	r3, [r3, #0]
 8002828:	681b      	ldr	r3, [r3, #0]
 800282a:	f003 0308 	and.w	r3, r3, #8
 800282e:	2b00      	cmp	r3, #0
 8002830:	d03c      	beq.n	80028ac <HAL_DMA_IRQHandler+0x170>
    {
      /* Clear the half transfer complete flag */
      regs->IFCR = DMA_FLAG_HTIF0_4 << hdma->StreamIndex;
 8002832:	687b      	ldr	r3, [r7, #4]
 8002834:	6ddb      	ldr	r3, [r3, #92]	; 0x5c
 8002836:	2210      	movs	r2, #16
 8002838:	409a      	lsls	r2, r3
 800283a:	693b      	ldr	r3, [r7, #16]
 800283c:	609a      	str	r2, [r3, #8]
      
      /* Multi_Buffering mode enabled */
      if(((hdma->Instance->CR) & (uint32_t)(DMA_SxCR_DBM)) != RESET)
 800283e:	687b      	ldr	r3, [r7, #4]
 8002840:	681b      	ldr	r3, [r3, #0]
 8002842:	681b      	ldr	r3, [r3, #0]
 8002844:	f403 2380 	and.w	r3, r3, #262144	; 0x40000
 8002848:	2b00      	cmp	r3, #0
 800284a:	d018      	beq.n	800287e <HAL_DMA_IRQHandler+0x142>
      {
        /* Current memory buffer used is Memory 0 */
        if((hdma->Instance->CR & DMA_SxCR_CT) == RESET)
 800284c:	687b      	ldr	r3, [r7, #4]
 800284e:	681b      	ldr	r3, [r3, #0]
 8002850:	681b      	ldr	r3, [r3, #0]
 8002852:	f403 2300 	and.w	r3, r3, #524288	; 0x80000
 8002856:	2b00      	cmp	r3, #0
 8002858:	d108      	bne.n	800286c <HAL_DMA_IRQHandler+0x130>
        {
          if(hdma->XferHalfCpltCallback != NULL)
 800285a:	687b      	ldr	r3, [r7, #4]
 800285c:	6c1b      	ldr	r3, [r3, #64]	; 0x40
 800285e:	2b00      	cmp	r3, #0
 8002860:	d024      	beq.n	80028ac <HAL_DMA_IRQHandler+0x170>
          {
            /* Half transfer callback */
            hdma->XferHalfCpltCallback(hdma);
 8002862:	687b      	ldr	r3, [r7, #4]
 8002864:	6c1b      	ldr	r3, [r3, #64]	; 0x40
 8002866:	6878      	ldr	r0, [r7, #4]
 8002868:	4798      	blx	r3
 800286a:	e01f      	b.n	80028ac <HAL_DMA_IRQHandler+0x170>
          }
        }
        /* Current memory buffer used is Memory 1 */
        else
        {
          if(hdma->XferM1HalfCpltCallback != NULL)
 800286c:	687b      	ldr	r3, [r7, #4]
 800286e:	6c9b      	ldr	r3, [r3, #72]	; 0x48
 8002870:	2b00      	cmp	r3, #0
 8002872:	d01b      	beq.n	80028ac <HAL_DMA_IRQHandler+0x170>
          {
            /* Half transfer callback */
            hdma->XferM1HalfCpltCallback(hdma);
 8002874:	687b      	ldr	r3, [r7, #4]
 8002876:	6c9b      	ldr	r3, [r3, #72]	; 0x48
 8002878:	6878      	ldr	r0, [r7, #4]
 800287a:	4798      	blx	r3
 800287c:	e016      	b.n	80028ac <HAL_DMA_IRQHandler+0x170>
        }
      }
      else
      {
        /* Disable the half transfer interrupt if the DMA mode is not CIRCULAR */
        if((hdma->Instance->CR & DMA_SxCR_CIRC) == RESET)
 800287e:	687b      	ldr	r3, [r7, #4]
 8002880:	681b      	ldr	r3, [r3, #0]
 8002882:	681b      	ldr	r3, [r3, #0]
 8002884:	f403 7380 	and.w	r3, r3, #256	; 0x100
 8002888:	2b00      	cmp	r3, #0
 800288a:	d107      	bne.n	800289c <HAL_DMA_IRQHandler+0x160>
        {
          /* Disable the half transfer interrupt */
          hdma->Instance->CR  &= ~(DMA_IT_HT);
 800288c:	687b      	ldr	r3, [r7, #4]
 800288e:	681b      	ldr	r3, [r3, #0]
 8002890:	681a      	ldr	r2, [r3, #0]
 8002892:	687b      	ldr	r3, [r7, #4]
 8002894:	681b      	ldr	r3, [r3, #0]
 8002896:	f022 0208 	bic.w	r2, r2, #8
 800289a:	601a      	str	r2, [r3, #0]
        }
        
        if(hdma->XferHalfCpltCallback != NULL)
 800289c:	687b      	ldr	r3, [r7, #4]
 800289e:	6c1b      	ldr	r3, [r3, #64]	; 0x40
 80028a0:	2b00      	cmp	r3, #0
 80028a2:	d003      	beq.n	80028ac <HAL_DMA_IRQHandler+0x170>
        {
          /* Half transfer callback */
          hdma->XferHalfCpltCallback(hdma);
 80028a4:	687b      	ldr	r3, [r7, #4]
 80028a6:	6c1b      	ldr	r3, [r3, #64]	; 0x40
 80028a8:	6878      	ldr	r0, [r7, #4]
 80028aa:	4798      	blx	r3
        }
      }
    }
  }
  /* Transfer Complete Interrupt management ***********************************/
  if ((tmpisr & (DMA_FLAG_TCIF0_4 << hdma->StreamIndex)) != RESET)
 80028ac:	687b      	ldr	r3, [r7, #4]
 80028ae:	6ddb      	ldr	r3, [r3, #92]	; 0x5c
 80028b0:	2220      	movs	r2, #32
 80028b2:	409a      	lsls	r2, r3
 80028b4:	68fb      	ldr	r3, [r7, #12]
 80028b6:	4013      	ands	r3, r2
 80028b8:	2b00      	cmp	r3, #0
 80028ba:	f000 808e 	beq.w	80029da <HAL_DMA_IRQHandler+0x29e>
  {
    if(__HAL_DMA_GET_IT_SOURCE(hdma, DMA_IT_TC) != RESET)
 80028be:	687b      	ldr	r3, [r7, #4]
 80028c0:	681b      	ldr	r3, [r3, #0]
 80028c2:	681b      	ldr	r3, [r3, #0]
 80028c4:	f003 0310 	and.w	r3, r3, #16
 80028c8:	2b00      	cmp	r3, #0
 80028ca:	f000 8086 	beq.w	80029da <HAL_DMA_IRQHandler+0x29e>
    {
      /* Clear the transfer complete flag */
      regs->IFCR = DMA_FLAG_TCIF0_4 << hdma->StreamIndex;
 80028ce:	687b      	ldr	r3, [r7, #4]
 80028d0:	6ddb      	ldr	r3, [r3, #92]	; 0x5c
 80028d2:	2220      	movs	r2, #32
 80028d4:	409a      	lsls	r2, r3
 80028d6:	693b      	ldr	r3, [r7, #16]
 80028d8:	609a      	str	r2, [r3, #8]
      
      if(HAL_DMA_STATE_ABORT == hdma->State)
 80028da:	687b      	ldr	r3, [r7, #4]
 80028dc:	f893 3035 	ldrb.w	r3, [r3, #53]	; 0x35
 80028e0:	b2db      	uxtb	r3, r3
 80028e2:	2b05      	cmp	r3, #5
 80028e4:	d136      	bne.n	8002954 <HAL_DMA_IRQHandler+0x218>
      {
        /* Disable all the transfer interrupts */
        hdma->Instance->CR  &= ~(DMA_IT_TC | DMA_IT_TE | DMA_IT_DME);
 80028e6:	687b      	ldr	r3, [r7, #4]
 80028e8:	681b      	ldr	r3, [r3, #0]
 80028ea:	681a      	ldr	r2, [r3, #0]
 80028ec:	687b      	ldr	r3, [r7, #4]
 80028ee:	681b      	ldr	r3, [r3, #0]
 80028f0:	f022 0216 	bic.w	r2, r2, #22
 80028f4:	601a      	str	r2, [r3, #0]
        hdma->Instance->FCR &= ~(DMA_IT_FE);
 80028f6:	687b      	ldr	r3, [r7, #4]
 80028f8:	681b      	ldr	r3, [r3, #0]
 80028fa:	695a      	ldr	r2, [r3, #20]
 80028fc:	687b      	ldr	r3, [r7, #4]
 80028fe:	681b      	ldr	r3, [r3, #0]
 8002900:	f022 0280 	bic.w	r2, r2, #128	; 0x80
 8002904:	615a      	str	r2, [r3, #20]
        
        if((hdma->XferHalfCpltCallback != NULL) || (hdma->XferM1HalfCpltCallback != NULL))
 8002906:	687b      	ldr	r3, [r7, #4]
 8002908:	6c1b      	ldr	r3, [r3, #64]	; 0x40
 800290a:	2b00      	cmp	r3, #0
 800290c:	d103      	bne.n	8002916 <HAL_DMA_IRQHandler+0x1da>
 800290e:	687b      	ldr	r3, [r7, #4]
 8002910:	6c9b      	ldr	r3, [r3, #72]	; 0x48
 8002912:	2b00      	cmp	r3, #0
 8002914:	d007      	beq.n	8002926 <HAL_DMA_IRQHandler+0x1ea>
        {
          hdma->Instance->CR  &= ~(DMA_IT_HT);
 8002916:	687b      	ldr	r3, [r7, #4]
 8002918:	681b      	ldr	r3, [r3, #0]
 800291a:	681a      	ldr	r2, [r3, #0]
 800291c:	687b      	ldr	r3, [r7, #4]
 800291e:	681b      	ldr	r3, [r3, #0]
 8002920:	f022 0208 	bic.w	r2, r2, #8
 8002924:	601a      	str	r2, [r3, #0]
        }

        /* Clear all interrupt flags at correct offset within the register */
        regs->IFCR = 0x3FU << hdma->StreamIndex;
 8002926:	687b      	ldr	r3, [r7, #4]
 8002928:	6ddb      	ldr	r3, [r3, #92]	; 0x5c
 800292a:	223f      	movs	r2, #63	; 0x3f
 800292c:	409a      	lsls	r2, r3
 800292e:	693b      	ldr	r3, [r7, #16]
 8002930:	609a      	str	r2, [r3, #8]

        /* Process Unlocked */
        __HAL_UNLOCK(hdma);
 8002932:	687b      	ldr	r3, [r7, #4]
 8002934:	2200      	movs	r2, #0
 8002936:	f883 2034 	strb.w	r2, [r3, #52]	; 0x34

        /* Change the DMA state */
        hdma->State = HAL_DMA_STATE_READY;
 800293a:	687b      	ldr	r3, [r7, #4]
 800293c:	2201      	movs	r2, #1
 800293e:	f883 2035 	strb.w	r2, [r3, #53]	; 0x35

        if(hdma->XferAbortCallback != NULL)
 8002942:	687b      	ldr	r3, [r7, #4]
 8002944:	6d1b      	ldr	r3, [r3, #80]	; 0x50
 8002946:	2b00      	cmp	r3, #0
 8002948:	d07d      	beq.n	8002a46 <HAL_DMA_IRQHandler+0x30a>
        {
          hdma->XferAbortCallback(hdma);
 800294a:	687b      	ldr	r3, [r7, #4]
 800294c:	6d1b      	ldr	r3, [r3, #80]	; 0x50
 800294e:	6878      	ldr	r0, [r7, #4]
 8002950:	4798      	blx	r3
        }
        return;
 8002952:	e078      	b.n	8002a46 <HAL_DMA_IRQHandler+0x30a>
      }

      if(((hdma->Instance->CR) & (uint32_t)(DMA_SxCR_DBM)) != RESET)
 8002954:	687b      	ldr	r3, [r7, #4]
 8002956:	681b      	ldr	r3, [r3, #0]
 8002958:	681b      	ldr	r3, [r3, #0]
 800295a:	f403 2380 	and.w	r3, r3, #262144	; 0x40000
 800295e:	2b00      	cmp	r3, #0
 8002960:	d01c      	beq.n	800299c <HAL_DMA_IRQHandler+0x260>
      {
        /* Current memory buffer used is Memory 0 */
        if((hdma->Instance->CR & DMA_SxCR_CT) == RESET)
 8002962:	687b      	ldr	r3, [r7, #4]
 8002964:	681b      	ldr	r3, [r3, #0]
 8002966:	681b      	ldr	r3, [r3, #0]
 8002968:	f403 2300 	and.w	r3, r3, #524288	; 0x80000
 800296c:	2b00      	cmp	r3, #0
 800296e:	d108      	bne.n	8002982 <HAL_DMA_IRQHandler+0x246>
        {
          if(hdma->XferM1CpltCallback != NULL)
 8002970:	687b      	ldr	r3, [r7, #4]
 8002972:	6c5b      	ldr	r3, [r3, #68]	; 0x44
 8002974:	2b00      	cmp	r3, #0
 8002976:	d030      	beq.n	80029da <HAL_DMA_IRQHandler+0x29e>
          {
            /* Transfer complete Callback for memory1 */
            hdma->XferM1CpltCallback(hdma);
 8002978:	687b      	ldr	r3, [r7, #4]
 800297a:	6c5b      	ldr	r3, [r3, #68]	; 0x44
 800297c:	6878      	ldr	r0, [r7, #4]
 800297e:	4798      	blx	r3
 8002980:	e02b      	b.n	80029da <HAL_DMA_IRQHandler+0x29e>
          }
        }
        /* Current memory buffer used is Memory 1 */
        else
        {
          if(hdma->XferCpltCallback != NULL)
 8002982:	687b      	ldr	r3, [r7, #4]
 8002984:	6bdb      	ldr	r3, [r3, #60]	; 0x3c
 8002986:	2b00      	cmp	r3, #0
 8002988:	d027      	beq.n	80029da <HAL_DMA_IRQHandler+0x29e>
          {
            /* Transfer complete Callback for memory0 */
            hdma->XferCpltCallback(hdma);
 800298a:	687b      	ldr	r3, [r7, #4]
 800298c:	6bdb      	ldr	r3, [r3, #60]	; 0x3c
 800298e:	6878      	ldr	r0, [r7, #4]
 8002990:	4798      	blx	r3
 8002992:	e022      	b.n	80029da <HAL_DMA_IRQHandler+0x29e>
 8002994:	20000004 	.word	0x20000004
 8002998:	1b4e81b5 	.word	0x1b4e81b5
        }
      }
      /* Disable the transfer complete interrupt if the DMA mode is not CIRCULAR */
      else
      {
        if((hdma->Instance->CR & DMA_SxCR_CIRC) == RESET)
 800299c:	687b      	ldr	r3, [r7, #4]
 800299e:	681b      	ldr	r3, [r3, #0]
 80029a0:	681b      	ldr	r3, [r3, #0]
 80029a2:	f403 7380 	and.w	r3, r3, #256	; 0x100
 80029a6:	2b00      	cmp	r3, #0
 80029a8:	d10f      	bne.n	80029ca <HAL_DMA_IRQHandler+0x28e>
        {
          /* Disable the transfer complete interrupt */
          hdma->Instance->CR  &= ~(DMA_IT_TC);
 80029aa:	687b      	ldr	r3, [r7, #4]
 80029ac:	681b      	ldr	r3, [r3, #0]
 80029ae:	681a      	ldr	r2, [r3, #0]
 80029b0:	687b      	ldr	r3, [r7, #4]
 80029b2:	681b      	ldr	r3, [r3, #0]
 80029b4:	f022 0210 	bic.w	r2, r2, #16
 80029b8:	601a      	str	r2, [r3, #0]

          /* Process Unlocked */
          __HAL_UNLOCK(hdma);
 80029ba:	687b      	ldr	r3, [r7, #4]
 80029bc:	2200      	movs	r2, #0
 80029be:	f883 2034 	strb.w	r2, [r3, #52]	; 0x34

          /* Change the DMA state */
          hdma->State = HAL_DMA_STATE_READY;
 80029c2:	687b      	ldr	r3, [r7, #4]
 80029c4:	2201      	movs	r2, #1
 80029c6:	f883 2035 	strb.w	r2, [r3, #53]	; 0x35
        }

        if(hdma->XferCpltCallback != NULL)
 80029ca:	687b      	ldr	r3, [r7, #4]
 80029cc:	6bdb      	ldr	r3, [r3, #60]	; 0x3c
 80029ce:	2b00      	cmp	r3, #0
 80029d0:	d003      	beq.n	80029da <HAL_DMA_IRQHandler+0x29e>
        {
          /* Transfer complete callback */
          hdma->XferCpltCallback(hdma);
 80029d2:	687b      	ldr	r3, [r7, #4]
 80029d4:	6bdb      	ldr	r3, [r3, #60]	; 0x3c
 80029d6:	6878      	ldr	r0, [r7, #4]
 80029d8:	4798      	blx	r3
      }
    }
  }
  
  /* manage error case */
  if(hdma->ErrorCode != HAL_DMA_ERROR_NONE)
 80029da:	687b      	ldr	r3, [r7, #4]
 80029dc:	6d5b      	ldr	r3, [r3, #84]	; 0x54
 80029de:	2b00      	cmp	r3, #0
 80029e0:	d032      	beq.n	8002a48 <HAL_DMA_IRQHandler+0x30c>
  {
    if((hdma->ErrorCode & HAL_DMA_ERROR_TE) != RESET)
 80029e2:	687b      	ldr	r3, [r7, #4]
 80029e4:	6d5b      	ldr	r3, [r3, #84]	; 0x54
 80029e6:	f003 0301 	and.w	r3, r3, #1
 80029ea:	2b00      	cmp	r3, #0
 80029ec:	d022      	beq.n	8002a34 <HAL_DMA_IRQHandler+0x2f8>
    {
      hdma->State = HAL_DMA_STATE_ABORT;
 80029ee:	687b      	ldr	r3, [r7, #4]
 80029f0:	2205      	movs	r2, #5
 80029f2:	f883 2035 	strb.w	r2, [r3, #53]	; 0x35

      /* Disable the stream */
      __HAL_DMA_DISABLE(hdma);
 80029f6:	687b      	ldr	r3, [r7, #4]
 80029f8:	681b      	ldr	r3, [r3, #0]
 80029fa:	681a      	ldr	r2, [r3, #0]
 80029fc:	687b      	ldr	r3, [r7, #4]
 80029fe:	681b      	ldr	r3, [r3, #0]
 8002a00:	f022 0201 	bic.w	r2, r2, #1
 8002a04:	601a      	str	r2, [r3, #0]

      do
      {
        if (++count > timeout)
 8002a06:	68bb      	ldr	r3, [r7, #8]
 8002a08:	3301      	adds	r3, #1
 8002a0a:	60bb      	str	r3, [r7, #8]
 8002a0c:	697a      	ldr	r2, [r7, #20]
 8002a0e:	429a      	cmp	r2, r3
 8002a10:	d307      	bcc.n	8002a22 <HAL_DMA_IRQHandler+0x2e6>
        {
          break;
        }
      }
      while((hdma->Instance->CR & DMA_SxCR_EN) != RESET);
 8002a12:	687b      	ldr	r3, [r7, #4]
 8002a14:	681b      	ldr	r3, [r3, #0]
 8002a16:	681b      	ldr	r3, [r3, #0]
 8002a18:	f003 0301 	and.w	r3, r3, #1
 8002a1c:	2b00      	cmp	r3, #0
 8002a1e:	d1f2      	bne.n	8002a06 <HAL_DMA_IRQHandler+0x2ca>
 8002a20:	e000      	b.n	8002a24 <HAL_DMA_IRQHandler+0x2e8>
          break;
 8002a22:	bf00      	nop

      /* Process Unlocked */
      __HAL_UNLOCK(hdma);
 8002a24:	687b      	ldr	r3, [r7, #4]
 8002a26:	2200      	movs	r2, #0
 8002a28:	f883 2034 	strb.w	r2, [r3, #52]	; 0x34

      /* Change the DMA state */
      hdma->State = HAL_DMA_STATE_READY;
 8002a2c:	687b      	ldr	r3, [r7, #4]
 8002a2e:	2201      	movs	r2, #1
 8002a30:	f883 2035 	strb.w	r2, [r3, #53]	; 0x35
    }

    if(hdma->XferErrorCallback != NULL)
 8002a34:	687b      	ldr	r3, [r7, #4]
 8002a36:	6cdb      	ldr	r3, [r3, #76]	; 0x4c
 8002a38:	2b00      	cmp	r3, #0
 8002a3a:	d005      	beq.n	8002a48 <HAL_DMA_IRQHandler+0x30c>
    {
      /* Transfer error callback */
      hdma->XferErrorCallback(hdma);
 8002a3c:	687b      	ldr	r3, [r7, #4]
 8002a3e:	6cdb      	ldr	r3, [r3, #76]	; 0x4c
 8002a40:	6878      	ldr	r0, [r7, #4]
 8002a42:	4798      	blx	r3
 8002a44:	e000      	b.n	8002a48 <HAL_DMA_IRQHandler+0x30c>
        return;
 8002a46:	bf00      	nop
    }
  }
}
 8002a48:	3718      	adds	r7, #24
 8002a4a:	46bd      	mov	sp, r7
 8002a4c:	bd80      	pop	{r7, pc}
 8002a4e:	bf00      	nop

08002a50 <DMA_SetConfig>:
  * @param  DstAddress The destination memory Buffer address
  * @param  DataLength The length of data to be transferred from source to destination
  * @retval HAL status
  */
static void DMA_SetConfig(DMA_HandleTypeDef *hdma, uint32_t SrcAddress, uint32_t DstAddress, uint32_t DataLength)
{
 8002a50:	b480      	push	{r7}
 8002a52:	b085      	sub	sp, #20
 8002a54:	af00      	add	r7, sp, #0
 8002a56:	60f8      	str	r0, [r7, #12]
 8002a58:	60b9      	str	r1, [r7, #8]
 8002a5a:	607a      	str	r2, [r7, #4]
 8002a5c:	603b      	str	r3, [r7, #0]
  /* Clear DBM bit */
  hdma->Instance->CR &= (uint32_t)(~DMA_SxCR_DBM);
 8002a5e:	68fb      	ldr	r3, [r7, #12]
 8002a60:	681b      	ldr	r3, [r3, #0]
 8002a62:	681a      	ldr	r2, [r3, #0]
 8002a64:	68fb      	ldr	r3, [r7, #12]
 8002a66:	681b      	ldr	r3, [r3, #0]
 8002a68:	f422 2280 	bic.w	r2, r2, #262144	; 0x40000
 8002a6c:	601a      	str	r2, [r3, #0]

  /* Configure DMA Stream data length */
  hdma->Instance->NDTR = DataLength;
 8002a6e:	68fb      	ldr	r3, [r7, #12]
 8002a70:	681b      	ldr	r3, [r3, #0]
 8002a72:	683a      	ldr	r2, [r7, #0]
 8002a74:	605a      	str	r2, [r3, #4]

  /* Memory to Peripheral */
  if((hdma->Init.Direction) == DMA_MEMORY_TO_PERIPH)
 8002a76:	68fb      	ldr	r3, [r7, #12]
 8002a78:	689b      	ldr	r3, [r3, #8]
 8002a7a:	2b40      	cmp	r3, #64	; 0x40
 8002a7c:	d108      	bne.n	8002a90 <DMA_SetConfig+0x40>
  {
    /* Configure DMA Stream destination address */
    hdma->Instance->PAR = DstAddress;
 8002a7e:	68fb      	ldr	r3, [r7, #12]
 8002a80:	681b      	ldr	r3, [r3, #0]
 8002a82:	687a      	ldr	r2, [r7, #4]
 8002a84:	609a      	str	r2, [r3, #8]

    /* Configure DMA Stream source address */
    hdma->Instance->M0AR = SrcAddress;
 8002a86:	68fb      	ldr	r3, [r7, #12]
 8002a88:	681b      	ldr	r3, [r3, #0]
 8002a8a:	68ba      	ldr	r2, [r7, #8]
 8002a8c:	60da      	str	r2, [r3, #12]
    hdma->Instance->PAR = SrcAddress;

    /* Configure DMA Stream destination address */
    hdma->Instance->M0AR = DstAddress;
  }
}
 8002a8e:	e007      	b.n	8002aa0 <DMA_SetConfig+0x50>
    hdma->Instance->PAR = SrcAddress;
 8002a90:	68fb      	ldr	r3, [r7, #12]
 8002a92:	681b      	ldr	r3, [r3, #0]
 8002a94:	68ba      	ldr	r2, [r7, #8]
 8002a96:	609a      	str	r2, [r3, #8]
    hdma->Instance->M0AR = DstAddress;
 8002a98:	68fb      	ldr	r3, [r7, #12]
 8002a9a:	681b      	ldr	r3, [r3, #0]
 8002a9c:	687a      	ldr	r2, [r7, #4]
 8002a9e:	60da      	str	r2, [r3, #12]
}
 8002aa0:	bf00      	nop
 8002aa2:	3714      	adds	r7, #20
 8002aa4:	46bd      	mov	sp, r7
 8002aa6:	f85d 7b04 	ldr.w	r7, [sp], #4
 8002aaa:	4770      	bx	lr

08002aac <DMA_CalcBaseAndBitshift>:
  * @param  hdma       pointer to a DMA_HandleTypeDef structure that contains
  *                     the configuration information for the specified DMA Stream. 
  * @retval Stream base address
  */
static uint32_t DMA_CalcBaseAndBitshift(DMA_HandleTypeDef *hdma)
{
 8002aac:	b480      	push	{r7}
 8002aae:	b085      	sub	sp, #20
 8002ab0:	af00      	add	r7, sp, #0
 8002ab2:	6078      	str	r0, [r7, #4]
  uint32_t stream_number = (((uint32_t)hdma->Instance & 0xFFU) - 16U) / 24U;
 8002ab4:	687b      	ldr	r3, [r7, #4]
 8002ab6:	681b      	ldr	r3, [r3, #0]
 8002ab8:	b2db      	uxtb	r3, r3
 8002aba:	3b10      	subs	r3, #16
 8002abc:	4a14      	ldr	r2, [pc, #80]	; (8002b10 <DMA_CalcBaseAndBitshift+0x64>)
 8002abe:	fba2 2303 	umull	r2, r3, r2, r3
 8002ac2:	091b      	lsrs	r3, r3, #4
 8002ac4:	60fb      	str	r3, [r7, #12]
  
  /* lookup table for necessary bitshift of flags within status registers */
  static const uint8_t flagBitshiftOffset[8U] = {0U, 6U, 16U, 22U, 0U, 6U, 16U, 22U};
  hdma->StreamIndex = flagBitshiftOffset[stream_number];
 8002ac6:	4a13      	ldr	r2, [pc, #76]	; (8002b14 <DMA_CalcBaseAndBitshift+0x68>)
 8002ac8:	68fb      	ldr	r3, [r7, #12]
 8002aca:	4413      	add	r3, r2
 8002acc:	781b      	ldrb	r3, [r3, #0]
 8002ace:	461a      	mov	r2, r3
 8002ad0:	687b      	ldr	r3, [r7, #4]
 8002ad2:	65da      	str	r2, [r3, #92]	; 0x5c
  
  if (stream_number > 3U)
 8002ad4:	68fb      	ldr	r3, [r7, #12]
 8002ad6:	2b03      	cmp	r3, #3
 8002ad8:	d909      	bls.n	8002aee <DMA_CalcBaseAndBitshift+0x42>
  {
    /* return pointer to HISR and HIFCR */
    hdma->StreamBaseAddress = (((uint32_t)hdma->Instance & (uint32_t)(~0x3FFU)) + 4U);
 8002ada:	687b      	ldr	r3, [r7, #4]
 8002adc:	681b      	ldr	r3, [r3, #0]
 8002ade:	f423 737f 	bic.w	r3, r3, #1020	; 0x3fc
 8002ae2:	f023 0303 	bic.w	r3, r3, #3
 8002ae6:	1d1a      	adds	r2, r3, #4
 8002ae8:	687b      	ldr	r3, [r7, #4]
 8002aea:	659a      	str	r2, [r3, #88]	; 0x58
 8002aec:	e007      	b.n	8002afe <DMA_CalcBaseAndBitshift+0x52>
  }
  else
  {
    /* return pointer to LISR and LIFCR */
    hdma->StreamBaseAddress = ((uint32_t)hdma->Instance & (uint32_t)(~0x3FFU));
 8002aee:	687b      	ldr	r3, [r7, #4]
 8002af0:	681b      	ldr	r3, [r3, #0]
 8002af2:	f423 737f 	bic.w	r3, r3, #1020	; 0x3fc
 8002af6:	f023 0303 	bic.w	r3, r3, #3
 8002afa:	687a      	ldr	r2, [r7, #4]
 8002afc:	6593      	str	r3, [r2, #88]	; 0x58
  }
  
  return hdma->StreamBaseAddress;
 8002afe:	687b      	ldr	r3, [r7, #4]
 8002b00:	6d9b      	ldr	r3, [r3, #88]	; 0x58
}
 8002b02:	4618      	mov	r0, r3
 8002b04:	3714      	adds	r7, #20
 8002b06:	46bd      	mov	sp, r7
 8002b08:	f85d 7b04 	ldr.w	r7, [sp], #4
 8002b0c:	4770      	bx	lr
 8002b0e:	bf00      	nop
 8002b10:	aaaaaaab 	.word	0xaaaaaaab
 8002b14:	080078e8 	.word	0x080078e8

08002b18 <DMA_CheckFifoParam>:
  * @param  hdma       pointer to a DMA_HandleTypeDef structure that contains
  *                     the configuration information for the specified DMA Stream. 
  * @retval HAL status
  */
static HAL_StatusTypeDef DMA_CheckFifoParam(DMA_HandleTypeDef *hdma)
{
 8002b18:	b480      	push	{r7}
 8002b1a:	b085      	sub	sp, #20
 8002b1c:	af00      	add	r7, sp, #0
 8002b1e:	6078      	str	r0, [r7, #4]
  HAL_StatusTypeDef status = HAL_OK;
 8002b20:	2300      	movs	r3, #0
 8002b22:	73fb      	strb	r3, [r7, #15]
  uint32_t tmp = hdma->Init.FIFOThreshold;
 8002b24:	687b      	ldr	r3, [r7, #4]
 8002b26:	6a9b      	ldr	r3, [r3, #40]	; 0x28
 8002b28:	60bb      	str	r3, [r7, #8]
  
  /* Memory Data size equal to Byte */
  if(hdma->Init.MemDataAlignment == DMA_MDATAALIGN_BYTE)
 8002b2a:	687b      	ldr	r3, [r7, #4]
 8002b2c:	699b      	ldr	r3, [r3, #24]
 8002b2e:	2b00      	cmp	r3, #0
 8002b30:	d11f      	bne.n	8002b72 <DMA_CheckFifoParam+0x5a>
 8002b32:	68bb      	ldr	r3, [r7, #8]
 8002b34:	2b03      	cmp	r3, #3
 8002b36:	d856      	bhi.n	8002be6 <DMA_CheckFifoParam+0xce>
 8002b38:	a201      	add	r2, pc, #4	; (adr r2, 8002b40 <DMA_CheckFifoParam+0x28>)
 8002b3a:	f852 f023 	ldr.w	pc, [r2, r3, lsl #2]
 8002b3e:	bf00      	nop
 8002b40:	08002b51 	.word	0x08002b51
 8002b44:	08002b63 	.word	0x08002b63
 8002b48:	08002b51 	.word	0x08002b51
 8002b4c:	08002be7 	.word	0x08002be7
  {
    switch (tmp)
    {
    case DMA_FIFO_THRESHOLD_1QUARTERFULL:
    case DMA_FIFO_THRESHOLD_3QUARTERSFULL:
      if ((hdma->Init.MemBurst & DMA_SxCR_MBURST_1) == DMA_SxCR_MBURST_1)
 8002b50:	687b      	ldr	r3, [r7, #4]
 8002b52:	6adb      	ldr	r3, [r3, #44]	; 0x2c
 8002b54:	f003 7380 	and.w	r3, r3, #16777216	; 0x1000000
 8002b58:	2b00      	cmp	r3, #0
 8002b5a:	d046      	beq.n	8002bea <DMA_CheckFifoParam+0xd2>
      {
        status = HAL_ERROR;
 8002b5c:	2301      	movs	r3, #1
 8002b5e:	73fb      	strb	r3, [r7, #15]
      }
      break;
 8002b60:	e043      	b.n	8002bea <DMA_CheckFifoParam+0xd2>
    case DMA_FIFO_THRESHOLD_HALFFULL:
      if (hdma->Init.MemBurst == DMA_MBURST_INC16)
 8002b62:	687b      	ldr	r3, [r7, #4]
 8002b64:	6adb      	ldr	r3, [r3, #44]	; 0x2c
 8002b66:	f1b3 7fc0 	cmp.w	r3, #25165824	; 0x1800000
 8002b6a:	d140      	bne.n	8002bee <DMA_CheckFifoParam+0xd6>
      {
        status = HAL_ERROR;
 8002b6c:	2301      	movs	r3, #1
 8002b6e:	73fb      	strb	r3, [r7, #15]
      }
      break;
 8002b70:	e03d      	b.n	8002bee <DMA_CheckFifoParam+0xd6>
      break;
    }
  }
  
  /* Memory Data size equal to Half-Word */
  else if (hdma->Init.MemDataAlignment == DMA_MDATAALIGN_HALFWORD)
 8002b72:	687b      	ldr	r3, [r7, #4]
 8002b74:	699b      	ldr	r3, [r3, #24]
 8002b76:	f5b3 5f00 	cmp.w	r3, #8192	; 0x2000
 8002b7a:	d121      	bne.n	8002bc0 <DMA_CheckFifoParam+0xa8>
 8002b7c:	68bb      	ldr	r3, [r7, #8]
 8002b7e:	2b03      	cmp	r3, #3
 8002b80:	d837      	bhi.n	8002bf2 <DMA_CheckFifoParam+0xda>
 8002b82:	a201      	add	r2, pc, #4	; (adr r2, 8002b88 <DMA_CheckFifoParam+0x70>)
 8002b84:	f852 f023 	ldr.w	pc, [r2, r3, lsl #2]
 8002b88:	08002b99 	.word	0x08002b99
 8002b8c:	08002b9f 	.word	0x08002b9f
 8002b90:	08002b99 	.word	0x08002b99
 8002b94:	08002bb1 	.word	0x08002bb1
  {
    switch (tmp)
    {
    case DMA_FIFO_THRESHOLD_1QUARTERFULL:
    case DMA_FIFO_THRESHOLD_3QUARTERSFULL:
      status = HAL_ERROR;
 8002b98:	2301      	movs	r3, #1
 8002b9a:	73fb      	strb	r3, [r7, #15]
      break;
 8002b9c:	e030      	b.n	8002c00 <DMA_CheckFifoParam+0xe8>
    case DMA_FIFO_THRESHOLD_HALFFULL:
      if ((hdma->Init.MemBurst & DMA_SxCR_MBURST_1) == DMA_SxCR_MBURST_1)
 8002b9e:	687b      	ldr	r3, [r7, #4]
 8002ba0:	6adb      	ldr	r3, [r3, #44]	; 0x2c
 8002ba2:	f003 7380 	and.w	r3, r3, #16777216	; 0x1000000
 8002ba6:	2b00      	cmp	r3, #0
 8002ba8:	d025      	beq.n	8002bf6 <DMA_CheckFifoParam+0xde>
      {
        status = HAL_ERROR;
 8002baa:	2301      	movs	r3, #1
 8002bac:	73fb      	strb	r3, [r7, #15]
      }
      break;
 8002bae:	e022      	b.n	8002bf6 <DMA_CheckFifoParam+0xde>
    case DMA_FIFO_THRESHOLD_FULL:
      if (hdma->Init.MemBurst == DMA_MBURST_INC16)
 8002bb0:	687b      	ldr	r3, [r7, #4]
 8002bb2:	6adb      	ldr	r3, [r3, #44]	; 0x2c
 8002bb4:	f1b3 7fc0 	cmp.w	r3, #25165824	; 0x1800000
 8002bb8:	d11f      	bne.n	8002bfa <DMA_CheckFifoParam+0xe2>
      {
        status = HAL_ERROR;
 8002bba:	2301      	movs	r3, #1
 8002bbc:	73fb      	strb	r3, [r7, #15]
      }
      break;   
 8002bbe:	e01c      	b.n	8002bfa <DMA_CheckFifoParam+0xe2>
  }
  
  /* Memory Data size equal to Word */
  else
  {
    switch (tmp)
 8002bc0:	68bb      	ldr	r3, [r7, #8]
 8002bc2:	2b02      	cmp	r3, #2
 8002bc4:	d903      	bls.n	8002bce <DMA_CheckFifoParam+0xb6>
 8002bc6:	68bb      	ldr	r3, [r7, #8]
 8002bc8:	2b03      	cmp	r3, #3
 8002bca:	d003      	beq.n	8002bd4 <DMA_CheckFifoParam+0xbc>
      {
        status = HAL_ERROR;
      }
      break;
    default:
      break;
 8002bcc:	e018      	b.n	8002c00 <DMA_CheckFifoParam+0xe8>
      status = HAL_ERROR;
 8002bce:	2301      	movs	r3, #1
 8002bd0:	73fb      	strb	r3, [r7, #15]
      break;
 8002bd2:	e015      	b.n	8002c00 <DMA_CheckFifoParam+0xe8>
      if ((hdma->Init.MemBurst & DMA_SxCR_MBURST_1) == DMA_SxCR_MBURST_1)
 8002bd4:	687b      	ldr	r3, [r7, #4]
 8002bd6:	6adb      	ldr	r3, [r3, #44]	; 0x2c
 8002bd8:	f003 7380 	and.w	r3, r3, #16777216	; 0x1000000
 8002bdc:	2b00      	cmp	r3, #0
 8002bde:	d00e      	beq.n	8002bfe <DMA_CheckFifoParam+0xe6>
        status = HAL_ERROR;
 8002be0:	2301      	movs	r3, #1
 8002be2:	73fb      	strb	r3, [r7, #15]
      break;
 8002be4:	e00b      	b.n	8002bfe <DMA_CheckFifoParam+0xe6>
      break;
 8002be6:	bf00      	nop
 8002be8:	e00a      	b.n	8002c00 <DMA_CheckFifoParam+0xe8>
      break;
 8002bea:	bf00      	nop
 8002bec:	e008      	b.n	8002c00 <DMA_CheckFifoParam+0xe8>
      break;
 8002bee:	bf00      	nop
 8002bf0:	e006      	b.n	8002c00 <DMA_CheckFifoParam+0xe8>
      break;
 8002bf2:	bf00      	nop
 8002bf4:	e004      	b.n	8002c00 <DMA_CheckFifoParam+0xe8>
      break;
 8002bf6:	bf00      	nop
 8002bf8:	e002      	b.n	8002c00 <DMA_CheckFifoParam+0xe8>
      break;   
 8002bfa:	bf00      	nop
 8002bfc:	e000      	b.n	8002c00 <DMA_CheckFifoParam+0xe8>
      break;
 8002bfe:	bf00      	nop
    }
  } 
  
  return status; 
 8002c00:	7bfb      	ldrb	r3, [r7, #15]
}
 8002c02:	4618      	mov	r0, r3
 8002c04:	3714      	adds	r7, #20
 8002c06:	46bd      	mov	sp, r7
 8002c08:	f85d 7b04 	ldr.w	r7, [sp], #4
 8002c0c:	4770      	bx	lr
 8002c0e:	bf00      	nop

08002c10 <HAL_GPIO_Init>:
  * @param  GPIO_Init pointer to a GPIO_InitTypeDef structure that contains
  *         the configuration information for the specified GPIO peripheral.
  * @retval None
  */
void HAL_GPIO_Init(GPIO_TypeDef  *GPIOx, GPIO_InitTypeDef *GPIO_Init)
{
 8002c10:	b480      	push	{r7}
 8002c12:	b089      	sub	sp, #36	; 0x24
 8002c14:	af00      	add	r7, sp, #0
 8002c16:	6078      	str	r0, [r7, #4]
 8002c18:	6039      	str	r1, [r7, #0]
  uint32_t position;
  uint32_t ioposition = 0x00U;
 8002c1a:	2300      	movs	r3, #0
 8002c1c:	617b      	str	r3, [r7, #20]
  uint32_t iocurrent = 0x00U;
 8002c1e:	2300      	movs	r3, #0
 8002c20:	613b      	str	r3, [r7, #16]
  uint32_t temp = 0x00U;
 8002c22:	2300      	movs	r3, #0
 8002c24:	61bb      	str	r3, [r7, #24]
  assert_param(IS_GPIO_PIN(GPIO_Init->Pin));
  assert_param(IS_GPIO_MODE(GPIO_Init->Mode));
  assert_param(IS_GPIO_PULL(GPIO_Init->Pull));

  /* Configure the port pins */
  for(position = 0U; position < GPIO_NUMBER; position++)
 8002c26:	2300      	movs	r3, #0
 8002c28:	61fb      	str	r3, [r7, #28]
 8002c2a:	e165      	b.n	8002ef8 <HAL_GPIO_Init+0x2e8>
  {
    /* Get the IO position */
    ioposition = 0x01U << position;
 8002c2c:	2201      	movs	r2, #1
 8002c2e:	69fb      	ldr	r3, [r7, #28]
 8002c30:	fa02 f303 	lsl.w	r3, r2, r3
 8002c34:	617b      	str	r3, [r7, #20]
    /* Get the current IO position */
    iocurrent = (uint32_t)(GPIO_Init->Pin) & ioposition;
 8002c36:	683b      	ldr	r3, [r7, #0]
 8002c38:	681b      	ldr	r3, [r3, #0]
 8002c3a:	697a      	ldr	r2, [r7, #20]
 8002c3c:	4013      	ands	r3, r2
 8002c3e:	613b      	str	r3, [r7, #16]

    if(iocurrent == ioposition)
 8002c40:	693a      	ldr	r2, [r7, #16]
 8002c42:	697b      	ldr	r3, [r7, #20]
 8002c44:	429a      	cmp	r2, r3
 8002c46:	f040 8154 	bne.w	8002ef2 <HAL_GPIO_Init+0x2e2>
    {
      /*--------------------- GPIO Mode Configuration ------------------------*/
      /* In case of Output or Alternate function mode selection */
      if(((GPIO_Init->Mode & GPIO_MODE) == MODE_OUTPUT) || \
 8002c4a:	683b      	ldr	r3, [r7, #0]
 8002c4c:	685b      	ldr	r3, [r3, #4]
 8002c4e:	f003 0303 	and.w	r3, r3, #3
 8002c52:	2b01      	cmp	r3, #1
 8002c54:	d005      	beq.n	8002c62 <HAL_GPIO_Init+0x52>
          (GPIO_Init->Mode & GPIO_MODE) == MODE_AF)
 8002c56:	683b      	ldr	r3, [r7, #0]
 8002c58:	685b      	ldr	r3, [r3, #4]
 8002c5a:	f003 0303 	and.w	r3, r3, #3
      if(((GPIO_Init->Mode & GPIO_MODE) == MODE_OUTPUT) || \
 8002c5e:	2b02      	cmp	r3, #2
 8002c60:	d130      	bne.n	8002cc4 <HAL_GPIO_Init+0xb4>
      {
        /* Check the Speed parameter */
        assert_param(IS_GPIO_SPEED(GPIO_Init->Speed));
        /* Configure the IO Speed */
        temp = GPIOx->OSPEEDR; 
 8002c62:	687b      	ldr	r3, [r7, #4]
 8002c64:	689b      	ldr	r3, [r3, #8]
 8002c66:	61bb      	str	r3, [r7, #24]
        temp &= ~(GPIO_OSPEEDER_OSPEEDR0 << (position * 2U));
 8002c68:	69fb      	ldr	r3, [r7, #28]
 8002c6a:	005b      	lsls	r3, r3, #1
 8002c6c:	2203      	movs	r2, #3
 8002c6e:	fa02 f303 	lsl.w	r3, r2, r3
 8002c72:	43db      	mvns	r3, r3
 8002c74:	69ba      	ldr	r2, [r7, #24]
 8002c76:	4013      	ands	r3, r2
 8002c78:	61bb      	str	r3, [r7, #24]
        temp |= (GPIO_Init->Speed << (position * 2U));
 8002c7a:	683b      	ldr	r3, [r7, #0]
 8002c7c:	68da      	ldr	r2, [r3, #12]
 8002c7e:	69fb      	ldr	r3, [r7, #28]
 8002c80:	005b      	lsls	r3, r3, #1
 8002c82:	fa02 f303 	lsl.w	r3, r2, r3
 8002c86:	69ba      	ldr	r2, [r7, #24]
 8002c88:	4313      	orrs	r3, r2
 8002c8a:	61bb      	str	r3, [r7, #24]
        GPIOx->OSPEEDR = temp;
 8002c8c:	687b      	ldr	r3, [r7, #4]
 8002c8e:	69ba      	ldr	r2, [r7, #24]
 8002c90:	609a      	str	r2, [r3, #8]

        /* Configure the IO Output Type */
        temp = GPIOx->OTYPER;
 8002c92:	687b      	ldr	r3, [r7, #4]
 8002c94:	685b      	ldr	r3, [r3, #4]
 8002c96:	61bb      	str	r3, [r7, #24]
        temp &= ~(GPIO_OTYPER_OT_0 << position) ;
 8002c98:	2201      	movs	r2, #1
 8002c9a:	69fb      	ldr	r3, [r7, #28]
 8002c9c:	fa02 f303 	lsl.w	r3, r2, r3
 8002ca0:	43db      	mvns	r3, r3
 8002ca2:	69ba      	ldr	r2, [r7, #24]
 8002ca4:	4013      	ands	r3, r2
 8002ca6:	61bb      	str	r3, [r7, #24]
        temp |= (((GPIO_Init->Mode & GPIO_OUTPUT_TYPE) >> 4U) << position);
 8002ca8:	683b      	ldr	r3, [r7, #0]
 8002caa:	685b      	ldr	r3, [r3, #4]
 8002cac:	091b      	lsrs	r3, r3, #4
 8002cae:	f003 0201 	and.w	r2, r3, #1
 8002cb2:	69fb      	ldr	r3, [r7, #28]
 8002cb4:	fa02 f303 	lsl.w	r3, r2, r3
 8002cb8:	69ba      	ldr	r2, [r7, #24]
 8002cba:	4313      	orrs	r3, r2
 8002cbc:	61bb      	str	r3, [r7, #24]
        GPIOx->OTYPER = temp;
 8002cbe:	687b      	ldr	r3, [r7, #4]
 8002cc0:	69ba      	ldr	r2, [r7, #24]
 8002cc2:	605a      	str	r2, [r3, #4]
       }

      if((GPIO_Init->Mode & GPIO_MODE) != MODE_ANALOG)
 8002cc4:	683b      	ldr	r3, [r7, #0]
 8002cc6:	685b      	ldr	r3, [r3, #4]
 8002cc8:	f003 0303 	and.w	r3, r3, #3
 8002ccc:	2b03      	cmp	r3, #3
 8002cce:	d017      	beq.n	8002d00 <HAL_GPIO_Init+0xf0>
      {
        /* Activate the Pull-up or Pull down resistor for the current IO */
        temp = GPIOx->PUPDR;
 8002cd0:	687b      	ldr	r3, [r7, #4]
 8002cd2:	68db      	ldr	r3, [r3, #12]
 8002cd4:	61bb      	str	r3, [r7, #24]
        temp &= ~(GPIO_PUPDR_PUPDR0 << (position * 2U));
 8002cd6:	69fb      	ldr	r3, [r7, #28]
 8002cd8:	005b      	lsls	r3, r3, #1
 8002cda:	2203      	movs	r2, #3
 8002cdc:	fa02 f303 	lsl.w	r3, r2, r3
 8002ce0:	43db      	mvns	r3, r3
 8002ce2:	69ba      	ldr	r2, [r7, #24]
 8002ce4:	4013      	ands	r3, r2
 8002ce6:	61bb      	str	r3, [r7, #24]
        temp |= ((GPIO_Init->Pull) << (position * 2U));
 8002ce8:	683b      	ldr	r3, [r7, #0]
 8002cea:	689a      	ldr	r2, [r3, #8]
 8002cec:	69fb      	ldr	r3, [r7, #28]
 8002cee:	005b      	lsls	r3, r3, #1
 8002cf0:	fa02 f303 	lsl.w	r3, r2, r3
 8002cf4:	69ba      	ldr	r2, [r7, #24]
 8002cf6:	4313      	orrs	r3, r2
 8002cf8:	61bb      	str	r3, [r7, #24]
        GPIOx->PUPDR = temp;
 8002cfa:	687b      	ldr	r3, [r7, #4]
 8002cfc:	69ba      	ldr	r2, [r7, #24]
 8002cfe:	60da      	str	r2, [r3, #12]
      }

      /* In case of Alternate function mode selection */
      if((GPIO_Init->Mode & GPIO_MODE) == MODE_AF)
 8002d00:	683b      	ldr	r3, [r7, #0]
 8002d02:	685b      	ldr	r3, [r3, #4]
 8002d04:	f003 0303 	and.w	r3, r3, #3
 8002d08:	2b02      	cmp	r3, #2
 8002d0a:	d123      	bne.n	8002d54 <HAL_GPIO_Init+0x144>
      {
        /* Check the Alternate function parameter */
        assert_param(IS_GPIO_AF(GPIO_Init->Alternate));
        /* Configure Alternate function mapped with the current IO */
        temp = GPIOx->AFR[position >> 3U];
 8002d0c:	69fb      	ldr	r3, [r7, #28]
 8002d0e:	08da      	lsrs	r2, r3, #3
 8002d10:	687b      	ldr	r3, [r7, #4]
 8002d12:	3208      	adds	r2, #8
 8002d14:	f853 3022 	ldr.w	r3, [r3, r2, lsl #2]
 8002d18:	61bb      	str	r3, [r7, #24]
        temp &= ~(0xFU << ((uint32_t)(position & 0x07U) * 4U)) ;
 8002d1a:	69fb      	ldr	r3, [r7, #28]
 8002d1c:	f003 0307 	and.w	r3, r3, #7
 8002d20:	009b      	lsls	r3, r3, #2
 8002d22:	220f      	movs	r2, #15
 8002d24:	fa02 f303 	lsl.w	r3, r2, r3
 8002d28:	43db      	mvns	r3, r3
 8002d2a:	69ba      	ldr	r2, [r7, #24]
 8002d2c:	4013      	ands	r3, r2
 8002d2e:	61bb      	str	r3, [r7, #24]
        temp |= ((uint32_t)(GPIO_Init->Alternate) << (((uint32_t)position & 0x07U) * 4U));
 8002d30:	683b      	ldr	r3, [r7, #0]
 8002d32:	691a      	ldr	r2, [r3, #16]
 8002d34:	69fb      	ldr	r3, [r7, #28]
 8002d36:	f003 0307 	and.w	r3, r3, #7
 8002d3a:	009b      	lsls	r3, r3, #2
 8002d3c:	fa02 f303 	lsl.w	r3, r2, r3
 8002d40:	69ba      	ldr	r2, [r7, #24]
 8002d42:	4313      	orrs	r3, r2
 8002d44:	61bb      	str	r3, [r7, #24]
        GPIOx->AFR[position >> 3U] = temp;
 8002d46:	69fb      	ldr	r3, [r7, #28]
 8002d48:	08da      	lsrs	r2, r3, #3
 8002d4a:	687b      	ldr	r3, [r7, #4]
 8002d4c:	3208      	adds	r2, #8
 8002d4e:	69b9      	ldr	r1, [r7, #24]
 8002d50:	f843 1022 	str.w	r1, [r3, r2, lsl #2]
      }

      /* Configure IO Direction mode (Input, Output, Alternate or Analog) */
      temp = GPIOx->MODER;
 8002d54:	687b      	ldr	r3, [r7, #4]
 8002d56:	681b      	ldr	r3, [r3, #0]
 8002d58:	61bb      	str	r3, [r7, #24]
      temp &= ~(GPIO_MODER_MODER0 << (position * 2U));
 8002d5a:	69fb      	ldr	r3, [r7, #28]
 8002d5c:	005b      	lsls	r3, r3, #1
 8002d5e:	2203      	movs	r2, #3
 8002d60:	fa02 f303 	lsl.w	r3, r2, r3
 8002d64:	43db      	mvns	r3, r3
 8002d66:	69ba      	ldr	r2, [r7, #24]
 8002d68:	4013      	ands	r3, r2
 8002d6a:	61bb      	str	r3, [r7, #24]
      temp |= ((GPIO_Init->Mode & GPIO_MODE) << (position * 2U));
 8002d6c:	683b      	ldr	r3, [r7, #0]
 8002d6e:	685b      	ldr	r3, [r3, #4]
 8002d70:	f003 0203 	and.w	r2, r3, #3
 8002d74:	69fb      	ldr	r3, [r7, #28]
 8002d76:	005b      	lsls	r3, r3, #1
 8002d78:	fa02 f303 	lsl.w	r3, r2, r3
 8002d7c:	69ba      	ldr	r2, [r7, #24]
 8002d7e:	4313      	orrs	r3, r2
 8002d80:	61bb      	str	r3, [r7, #24]
      GPIOx->MODER = temp;
 8002d82:	687b      	ldr	r3, [r7, #4]
 8002d84:	69ba      	ldr	r2, [r7, #24]
 8002d86:	601a      	str	r2, [r3, #0]

      /*--------------------- EXTI Mode Configuration ------------------------*/
      /* Configure the External Interrupt or event for the current IO */
      if((GPIO_Init->Mode & EXTI_MODE) == EXTI_MODE)
 8002d88:	683b      	ldr	r3, [r7, #0]
 8002d8a:	685b      	ldr	r3, [r3, #4]
 8002d8c:	f003 5380 	and.w	r3, r3, #268435456	; 0x10000000
 8002d90:	2b00      	cmp	r3, #0
 8002d92:	f000 80ae 	beq.w	8002ef2 <HAL_GPIO_Init+0x2e2>
      {
        /* Enable SYSCFG Clock */
        __HAL_RCC_SYSCFG_CLK_ENABLE();
 8002d96:	2300      	movs	r3, #0
 8002d98:	60fb      	str	r3, [r7, #12]
 8002d9a:	4b5d      	ldr	r3, [pc, #372]	; (8002f10 <HAL_GPIO_Init+0x300>)
 8002d9c:	6c5b      	ldr	r3, [r3, #68]	; 0x44
 8002d9e:	4a5c      	ldr	r2, [pc, #368]	; (8002f10 <HAL_GPIO_Init+0x300>)
 8002da0:	f443 4380 	orr.w	r3, r3, #16384	; 0x4000
 8002da4:	6453      	str	r3, [r2, #68]	; 0x44
 8002da6:	4b5a      	ldr	r3, [pc, #360]	; (8002f10 <HAL_GPIO_Init+0x300>)
 8002da8:	6c5b      	ldr	r3, [r3, #68]	; 0x44
 8002daa:	f403 4380 	and.w	r3, r3, #16384	; 0x4000
 8002dae:	60fb      	str	r3, [r7, #12]
 8002db0:	68fb      	ldr	r3, [r7, #12]

        temp = SYSCFG->EXTICR[position >> 2U];
 8002db2:	4a58      	ldr	r2, [pc, #352]	; (8002f14 <HAL_GPIO_Init+0x304>)
 8002db4:	69fb      	ldr	r3, [r7, #28]
 8002db6:	089b      	lsrs	r3, r3, #2
 8002db8:	3302      	adds	r3, #2
 8002dba:	f852 3023 	ldr.w	r3, [r2, r3, lsl #2]
 8002dbe:	61bb      	str	r3, [r7, #24]
        temp &= ~(0x0FU << (4U * (position & 0x03U)));
 8002dc0:	69fb      	ldr	r3, [r7, #28]
 8002dc2:	f003 0303 	and.w	r3, r3, #3
 8002dc6:	009b      	lsls	r3, r3, #2
 8002dc8:	220f      	movs	r2, #15
 8002dca:	fa02 f303 	lsl.w	r3, r2, r3
 8002dce:	43db      	mvns	r3, r3
 8002dd0:	69ba      	ldr	r2, [r7, #24]
 8002dd2:	4013      	ands	r3, r2
 8002dd4:	61bb      	str	r3, [r7, #24]
        temp |= ((uint32_t)(GPIO_GET_INDEX(GPIOx)) << (4U * (position & 0x03U)));
 8002dd6:	687b      	ldr	r3, [r7, #4]
 8002dd8:	4a4f      	ldr	r2, [pc, #316]	; (8002f18 <HAL_GPIO_Init+0x308>)
 8002dda:	4293      	cmp	r3, r2
 8002ddc:	d025      	beq.n	8002e2a <HAL_GPIO_Init+0x21a>
 8002dde:	687b      	ldr	r3, [r7, #4]
 8002de0:	4a4e      	ldr	r2, [pc, #312]	; (8002f1c <HAL_GPIO_Init+0x30c>)
 8002de2:	4293      	cmp	r3, r2
 8002de4:	d01f      	beq.n	8002e26 <HAL_GPIO_Init+0x216>
 8002de6:	687b      	ldr	r3, [r7, #4]
 8002de8:	4a4d      	ldr	r2, [pc, #308]	; (8002f20 <HAL_GPIO_Init+0x310>)
 8002dea:	4293      	cmp	r3, r2
 8002dec:	d019      	beq.n	8002e22 <HAL_GPIO_Init+0x212>
 8002dee:	687b      	ldr	r3, [r7, #4]
 8002df0:	4a4c      	ldr	r2, [pc, #304]	; (8002f24 <HAL_GPIO_Init+0x314>)
 8002df2:	4293      	cmp	r3, r2
 8002df4:	d013      	beq.n	8002e1e <HAL_GPIO_Init+0x20e>
 8002df6:	687b      	ldr	r3, [r7, #4]
 8002df8:	4a4b      	ldr	r2, [pc, #300]	; (8002f28 <HAL_GPIO_Init+0x318>)
 8002dfa:	4293      	cmp	r3, r2
 8002dfc:	d00d      	beq.n	8002e1a <HAL_GPIO_Init+0x20a>
 8002dfe:	687b      	ldr	r3, [r7, #4]
 8002e00:	4a4a      	ldr	r2, [pc, #296]	; (8002f2c <HAL_GPIO_Init+0x31c>)
 8002e02:	4293      	cmp	r3, r2
 8002e04:	d007      	beq.n	8002e16 <HAL_GPIO_Init+0x206>
 8002e06:	687b      	ldr	r3, [r7, #4]
 8002e08:	4a49      	ldr	r2, [pc, #292]	; (8002f30 <HAL_GPIO_Init+0x320>)
 8002e0a:	4293      	cmp	r3, r2
 8002e0c:	d101      	bne.n	8002e12 <HAL_GPIO_Init+0x202>
 8002e0e:	2306      	movs	r3, #6
 8002e10:	e00c      	b.n	8002e2c <HAL_GPIO_Init+0x21c>
 8002e12:	2307      	movs	r3, #7
 8002e14:	e00a      	b.n	8002e2c <HAL_GPIO_Init+0x21c>
 8002e16:	2305      	movs	r3, #5
 8002e18:	e008      	b.n	8002e2c <HAL_GPIO_Init+0x21c>
 8002e1a:	2304      	movs	r3, #4
 8002e1c:	e006      	b.n	8002e2c <HAL_GPIO_Init+0x21c>
 8002e1e:	2303      	movs	r3, #3
 8002e20:	e004      	b.n	8002e2c <HAL_GPIO_Init+0x21c>
 8002e22:	2302      	movs	r3, #2
 8002e24:	e002      	b.n	8002e2c <HAL_GPIO_Init+0x21c>
 8002e26:	2301      	movs	r3, #1
 8002e28:	e000      	b.n	8002e2c <HAL_GPIO_Init+0x21c>
 8002e2a:	2300      	movs	r3, #0
 8002e2c:	69fa      	ldr	r2, [r7, #28]
 8002e2e:	f002 0203 	and.w	r2, r2, #3
 8002e32:	0092      	lsls	r2, r2, #2
 8002e34:	4093      	lsls	r3, r2
 8002e36:	69ba      	ldr	r2, [r7, #24]
 8002e38:	4313      	orrs	r3, r2
 8002e3a:	61bb      	str	r3, [r7, #24]
        SYSCFG->EXTICR[position >> 2U] = temp;
 8002e3c:	4935      	ldr	r1, [pc, #212]	; (8002f14 <HAL_GPIO_Init+0x304>)
 8002e3e:	69fb      	ldr	r3, [r7, #28]
 8002e40:	089b      	lsrs	r3, r3, #2
 8002e42:	3302      	adds	r3, #2
 8002e44:	69ba      	ldr	r2, [r7, #24]
 8002e46:	f841 2023 	str.w	r2, [r1, r3, lsl #2]

        /* Clear EXTI line configuration */
        temp = EXTI->IMR;
 8002e4a:	4b3a      	ldr	r3, [pc, #232]	; (8002f34 <HAL_GPIO_Init+0x324>)
 8002e4c:	681b      	ldr	r3, [r3, #0]
 8002e4e:	61bb      	str	r3, [r7, #24]
        temp &= ~((uint32_t)iocurrent);
 8002e50:	693b      	ldr	r3, [r7, #16]
 8002e52:	43db      	mvns	r3, r3
 8002e54:	69ba      	ldr	r2, [r7, #24]
 8002e56:	4013      	ands	r3, r2
 8002e58:	61bb      	str	r3, [r7, #24]
        if((GPIO_Init->Mode & GPIO_MODE_IT) == GPIO_MODE_IT)
 8002e5a:	683b      	ldr	r3, [r7, #0]
 8002e5c:	685b      	ldr	r3, [r3, #4]
 8002e5e:	f403 3380 	and.w	r3, r3, #65536	; 0x10000
 8002e62:	2b00      	cmp	r3, #0
 8002e64:	d003      	beq.n	8002e6e <HAL_GPIO_Init+0x25e>
        {
          temp |= iocurrent;
 8002e66:	69ba      	ldr	r2, [r7, #24]
 8002e68:	693b      	ldr	r3, [r7, #16]
 8002e6a:	4313      	orrs	r3, r2
 8002e6c:	61bb      	str	r3, [r7, #24]
        }
        EXTI->IMR = temp;
 8002e6e:	4a31      	ldr	r2, [pc, #196]	; (8002f34 <HAL_GPIO_Init+0x324>)
 8002e70:	69bb      	ldr	r3, [r7, #24]
 8002e72:	6013      	str	r3, [r2, #0]

        temp = EXTI->EMR;
 8002e74:	4b2f      	ldr	r3, [pc, #188]	; (8002f34 <HAL_GPIO_Init+0x324>)
 8002e76:	685b      	ldr	r3, [r3, #4]
 8002e78:	61bb      	str	r3, [r7, #24]
        temp &= ~((uint32_t)iocurrent);
 8002e7a:	693b      	ldr	r3, [r7, #16]
 8002e7c:	43db      	mvns	r3, r3
 8002e7e:	69ba      	ldr	r2, [r7, #24]
 8002e80:	4013      	ands	r3, r2
 8002e82:	61bb      	str	r3, [r7, #24]
        if((GPIO_Init->Mode & GPIO_MODE_EVT) == GPIO_MODE_EVT)
 8002e84:	683b      	ldr	r3, [r7, #0]
 8002e86:	685b      	ldr	r3, [r3, #4]
 8002e88:	f403 3300 	and.w	r3, r3, #131072	; 0x20000
 8002e8c:	2b00      	cmp	r3, #0
 8002e8e:	d003      	beq.n	8002e98 <HAL_GPIO_Init+0x288>
        {
          temp |= iocurrent;
 8002e90:	69ba      	ldr	r2, [r7, #24]
 8002e92:	693b      	ldr	r3, [r7, #16]
 8002e94:	4313      	orrs	r3, r2
 8002e96:	61bb      	str	r3, [r7, #24]
        }
        EXTI->EMR = temp;
 8002e98:	4a26      	ldr	r2, [pc, #152]	; (8002f34 <HAL_GPIO_Init+0x324>)
 8002e9a:	69bb      	ldr	r3, [r7, #24]
 8002e9c:	6053      	str	r3, [r2, #4]

        /* Clear Rising Falling edge configuration */
        temp = EXTI->RTSR;
 8002e9e:	4b25      	ldr	r3, [pc, #148]	; (8002f34 <HAL_GPIO_Init+0x324>)
 8002ea0:	689b      	ldr	r3, [r3, #8]
 8002ea2:	61bb      	str	r3, [r7, #24]
        temp &= ~((uint32_t)iocurrent);
 8002ea4:	693b      	ldr	r3, [r7, #16]
 8002ea6:	43db      	mvns	r3, r3
 8002ea8:	69ba      	ldr	r2, [r7, #24]
 8002eaa:	4013      	ands	r3, r2
 8002eac:	61bb      	str	r3, [r7, #24]
        if((GPIO_Init->Mode & RISING_EDGE) == RISING_EDGE)
 8002eae:	683b      	ldr	r3, [r7, #0]
 8002eb0:	685b      	ldr	r3, [r3, #4]
 8002eb2:	f403 1380 	and.w	r3, r3, #1048576	; 0x100000
 8002eb6:	2b00      	cmp	r3, #0
 8002eb8:	d003      	beq.n	8002ec2 <HAL_GPIO_Init+0x2b2>
        {
          temp |= iocurrent;
 8002eba:	69ba      	ldr	r2, [r7, #24]
 8002ebc:	693b      	ldr	r3, [r7, #16]
 8002ebe:	4313      	orrs	r3, r2
 8002ec0:	61bb      	str	r3, [r7, #24]
        }
        EXTI->RTSR = temp;
 8002ec2:	4a1c      	ldr	r2, [pc, #112]	; (8002f34 <HAL_GPIO_Init+0x324>)
 8002ec4:	69bb      	ldr	r3, [r7, #24]
 8002ec6:	6093      	str	r3, [r2, #8]

        temp = EXTI->FTSR;
 8002ec8:	4b1a      	ldr	r3, [pc, #104]	; (8002f34 <HAL_GPIO_Init+0x324>)
 8002eca:	68db      	ldr	r3, [r3, #12]
 8002ecc:	61bb      	str	r3, [r7, #24]
        temp &= ~((uint32_t)iocurrent);
 8002ece:	693b      	ldr	r3, [r7, #16]
 8002ed0:	43db      	mvns	r3, r3
 8002ed2:	69ba      	ldr	r2, [r7, #24]
 8002ed4:	4013      	ands	r3, r2
 8002ed6:	61bb      	str	r3, [r7, #24]
        if((GPIO_Init->Mode & FALLING_EDGE) == FALLING_EDGE)
 8002ed8:	683b      	ldr	r3, [r7, #0]
 8002eda:	685b      	ldr	r3, [r3, #4]
 8002edc:	f403 1300 	and.w	r3, r3, #2097152	; 0x200000
 8002ee0:	2b00      	cmp	r3, #0
 8002ee2:	d003      	beq.n	8002eec <HAL_GPIO_Init+0x2dc>
        {
          temp |= iocurrent;
 8002ee4:	69ba      	ldr	r2, [r7, #24]
 8002ee6:	693b      	ldr	r3, [r7, #16]
 8002ee8:	4313      	orrs	r3, r2
 8002eea:	61bb      	str	r3, [r7, #24]
        }
        EXTI->FTSR = temp;
 8002eec:	4a11      	ldr	r2, [pc, #68]	; (8002f34 <HAL_GPIO_Init+0x324>)
 8002eee:	69bb      	ldr	r3, [r7, #24]
 8002ef0:	60d3      	str	r3, [r2, #12]
  for(position = 0U; position < GPIO_NUMBER; position++)
 8002ef2:	69fb      	ldr	r3, [r7, #28]
 8002ef4:	3301      	adds	r3, #1
 8002ef6:	61fb      	str	r3, [r7, #28]
 8002ef8:	69fb      	ldr	r3, [r7, #28]
 8002efa:	2b0f      	cmp	r3, #15
 8002efc:	f67f ae96 	bls.w	8002c2c <HAL_GPIO_Init+0x1c>
      }
    }
  }
}
 8002f00:	bf00      	nop
 8002f02:	bf00      	nop
 8002f04:	3724      	adds	r7, #36	; 0x24
 8002f06:	46bd      	mov	sp, r7
 8002f08:	f85d 7b04 	ldr.w	r7, [sp], #4
 8002f0c:	4770      	bx	lr
 8002f0e:	bf00      	nop
 8002f10:	40023800 	.word	0x40023800
 8002f14:	40013800 	.word	0x40013800
 8002f18:	40020000 	.word	0x40020000
 8002f1c:	40020400 	.word	0x40020400
 8002f20:	40020800 	.word	0x40020800
 8002f24:	40020c00 	.word	0x40020c00
 8002f28:	40021000 	.word	0x40021000
 8002f2c:	40021400 	.word	0x40021400
 8002f30:	40021800 	.word	0x40021800
 8002f34:	40013c00 	.word	0x40013c00

08002f38 <HAL_GPIO_WritePin>:
  *            @arg GPIO_PIN_RESET: to clear the port pin
  *            @arg GPIO_PIN_SET: to set the port pin
  * @retval None
  */
void HAL_GPIO_WritePin(GPIO_TypeDef* GPIOx, uint16_t GPIO_Pin, GPIO_PinState PinState)
{
 8002f38:	b480      	push	{r7}
 8002f3a:	b083      	sub	sp, #12
 8002f3c:	af00      	add	r7, sp, #0
 8002f3e:	6078      	str	r0, [r7, #4]
 8002f40:	460b      	mov	r3, r1
 8002f42:	807b      	strh	r3, [r7, #2]
 8002f44:	4613      	mov	r3, r2
 8002f46:	707b      	strb	r3, [r7, #1]
  /* Check the parameters */
  assert_param(IS_GPIO_PIN(GPIO_Pin));
  assert_param(IS_GPIO_PIN_ACTION(PinState));

  if(PinState != GPIO_PIN_RESET)
 8002f48:	787b      	ldrb	r3, [r7, #1]
 8002f4a:	2b00      	cmp	r3, #0
 8002f4c:	d003      	beq.n	8002f56 <HAL_GPIO_WritePin+0x1e>
  {
    GPIOx->BSRR = GPIO_Pin;
 8002f4e:	887a      	ldrh	r2, [r7, #2]
 8002f50:	687b      	ldr	r3, [r7, #4]
 8002f52:	619a      	str	r2, [r3, #24]
  }
  else
  {
    GPIOx->BSRR = (uint32_t)GPIO_Pin << 16U;
  }
}
 8002f54:	e003      	b.n	8002f5e <HAL_GPIO_WritePin+0x26>
    GPIOx->BSRR = (uint32_t)GPIO_Pin << 16U;
 8002f56:	887b      	ldrh	r3, [r7, #2]
 8002f58:	041a      	lsls	r2, r3, #16
 8002f5a:	687b      	ldr	r3, [r7, #4]
 8002f5c:	619a      	str	r2, [r3, #24]
}
 8002f5e:	bf00      	nop
 8002f60:	370c      	adds	r7, #12
 8002f62:	46bd      	mov	sp, r7
 8002f64:	f85d 7b04 	ldr.w	r7, [sp], #4
 8002f68:	4770      	bx	lr

08002f6a <HAL_GPIO_TogglePin>:
  *                      x can be (A..I) to select the GPIO peripheral for STM32F40XX and STM32F427X devices.
  * @param  GPIO_Pin Specifies the pins to be toggled.
  * @retval None
  */
void HAL_GPIO_TogglePin(GPIO_TypeDef* GPIOx, uint16_t GPIO_Pin)
{
 8002f6a:	b480      	push	{r7}
 8002f6c:	b085      	sub	sp, #20
 8002f6e:	af00      	add	r7, sp, #0
 8002f70:	6078      	str	r0, [r7, #4]
 8002f72:	460b      	mov	r3, r1
 8002f74:	807b      	strh	r3, [r7, #2]

  /* Check the parameters */
  assert_param(IS_GPIO_PIN(GPIO_Pin));

  /* get current Ouput Data Register value */
  odr = GPIOx->ODR;
 8002f76:	687b      	ldr	r3, [r7, #4]
 8002f78:	695b      	ldr	r3, [r3, #20]
 8002f7a:	60fb      	str	r3, [r7, #12]

  /* Set selected pins that were at low level, and reset ones that were high */
  GPIOx->BSRR = ((odr & GPIO_Pin) << GPIO_NUMBER) | (~odr & GPIO_Pin);
 8002f7c:	887a      	ldrh	r2, [r7, #2]
 8002f7e:	68fb      	ldr	r3, [r7, #12]
 8002f80:	4013      	ands	r3, r2
 8002f82:	041a      	lsls	r2, r3, #16
 8002f84:	68fb      	ldr	r3, [r7, #12]
 8002f86:	43d9      	mvns	r1, r3
 8002f88:	887b      	ldrh	r3, [r7, #2]
 8002f8a:	400b      	ands	r3, r1
 8002f8c:	431a      	orrs	r2, r3
 8002f8e:	687b      	ldr	r3, [r7, #4]
 8002f90:	619a      	str	r2, [r3, #24]
}
 8002f92:	bf00      	nop
 8002f94:	3714      	adds	r7, #20
 8002f96:	46bd      	mov	sp, r7
 8002f98:	f85d 7b04 	ldr.w	r7, [sp], #4
 8002f9c:	4770      	bx	lr
	...

08002fa0 <HAL_RCC_ClockConfig>:
  *         HPRE[3:0] bits to ensure that HCLK not exceed the maximum allowed frequency
  *         (for more details refer to section above "Initialization/de-initialization functions")
  * @retval None
  */
HAL_StatusTypeDef HAL_RCC_ClockConfig(RCC_ClkInitTypeDef  *RCC_ClkInitStruct, uint32_t FLatency)
{
 8002fa0:	b580      	push	{r7, lr}
 8002fa2:	b084      	sub	sp, #16
 8002fa4:	af00      	add	r7, sp, #0
 8002fa6:	6078      	str	r0, [r7, #4]
 8002fa8:	6039      	str	r1, [r7, #0]
  uint32_t tickstart;

  /* Check Null pointer */
  if(RCC_ClkInitStruct == NULL)
 8002faa:	687b      	ldr	r3, [r7, #4]
 8002fac:	2b00      	cmp	r3, #0
 8002fae:	d101      	bne.n	8002fb4 <HAL_RCC_ClockConfig+0x14>
  {
    return HAL_ERROR;
 8002fb0:	2301      	movs	r3, #1
 8002fb2:	e0cc      	b.n	800314e <HAL_RCC_ClockConfig+0x1ae>
  /* To correctly read data from FLASH memory, the number of wait states (LATENCY)
    must be correctly programmed according to the frequency of the CPU clock
    (HCLK) and the supply voltage of the device. */

  /* Increasing the number of wait states because of higher CPU frequency */
  if(FLatency > __HAL_FLASH_GET_LATENCY())
 8002fb4:	4b68      	ldr	r3, [pc, #416]	; (8003158 <HAL_RCC_ClockConfig+0x1b8>)
 8002fb6:	681b      	ldr	r3, [r3, #0]
 8002fb8:	f003 030f 	and.w	r3, r3, #15
 8002fbc:	683a      	ldr	r2, [r7, #0]
 8002fbe:	429a      	cmp	r2, r3
 8002fc0:	d90c      	bls.n	8002fdc <HAL_RCC_ClockConfig+0x3c>
  {
    /* Program the new number of wait states to the LATENCY bits in the FLASH_ACR register */
    __HAL_FLASH_SET_LATENCY(FLatency);
 8002fc2:	4b65      	ldr	r3, [pc, #404]	; (8003158 <HAL_RCC_ClockConfig+0x1b8>)
 8002fc4:	683a      	ldr	r2, [r7, #0]
 8002fc6:	b2d2      	uxtb	r2, r2
 8002fc8:	701a      	strb	r2, [r3, #0]

    /* Check that the new number of wait states is taken into account to access the Flash
    memory by reading the FLASH_ACR register */
    if(__HAL_FLASH_GET_LATENCY() != FLatency)
 8002fca:	4b63      	ldr	r3, [pc, #396]	; (8003158 <HAL_RCC_ClockConfig+0x1b8>)
 8002fcc:	681b      	ldr	r3, [r3, #0]
 8002fce:	f003 030f 	and.w	r3, r3, #15
 8002fd2:	683a      	ldr	r2, [r7, #0]
 8002fd4:	429a      	cmp	r2, r3
 8002fd6:	d001      	beq.n	8002fdc <HAL_RCC_ClockConfig+0x3c>
    {
      return HAL_ERROR;
 8002fd8:	2301      	movs	r3, #1
 8002fda:	e0b8      	b.n	800314e <HAL_RCC_ClockConfig+0x1ae>
    }
  }

  /*-------------------------- HCLK Configuration --------------------------*/
  if(((RCC_ClkInitStruct->ClockType) & RCC_CLOCKTYPE_HCLK) == RCC_CLOCKTYPE_HCLK)
 8002fdc:	687b      	ldr	r3, [r7, #4]
 8002fde:	681b      	ldr	r3, [r3, #0]
 8002fe0:	f003 0302 	and.w	r3, r3, #2
 8002fe4:	2b00      	cmp	r3, #0
 8002fe6:	d020      	beq.n	800302a <HAL_RCC_ClockConfig+0x8a>
  {
    /* Set the highest APBx dividers in order to ensure that we do not go through
       a non-spec phase whatever we decrease or increase HCLK. */
    if(((RCC_ClkInitStruct->ClockType) & RCC_CLOCKTYPE_PCLK1) == RCC_CLOCKTYPE_PCLK1)
 8002fe8:	687b      	ldr	r3, [r7, #4]
 8002fea:	681b      	ldr	r3, [r3, #0]
 8002fec:	f003 0304 	and.w	r3, r3, #4
 8002ff0:	2b00      	cmp	r3, #0
 8002ff2:	d005      	beq.n	8003000 <HAL_RCC_ClockConfig+0x60>
    {
      MODIFY_REG(RCC->CFGR, RCC_CFGR_PPRE1, RCC_HCLK_DIV16);
 8002ff4:	4b59      	ldr	r3, [pc, #356]	; (800315c <HAL_RCC_ClockConfig+0x1bc>)
 8002ff6:	689b      	ldr	r3, [r3, #8]
 8002ff8:	4a58      	ldr	r2, [pc, #352]	; (800315c <HAL_RCC_ClockConfig+0x1bc>)
 8002ffa:	f443 53e0 	orr.w	r3, r3, #7168	; 0x1c00
 8002ffe:	6093      	str	r3, [r2, #8]
    }

    if(((RCC_ClkInitStruct->ClockType) & RCC_CLOCKTYPE_PCLK2) == RCC_CLOCKTYPE_PCLK2)
 8003000:	687b      	ldr	r3, [r7, #4]
 8003002:	681b      	ldr	r3, [r3, #0]
 8003004:	f003 0308 	and.w	r3, r3, #8
 8003008:	2b00      	cmp	r3, #0
 800300a:	d005      	beq.n	8003018 <HAL_RCC_ClockConfig+0x78>
    {
      MODIFY_REG(RCC->CFGR, RCC_CFGR_PPRE2, (RCC_HCLK_DIV16 << 3));
 800300c:	4b53      	ldr	r3, [pc, #332]	; (800315c <HAL_RCC_ClockConfig+0x1bc>)
 800300e:	689b      	ldr	r3, [r3, #8]
 8003010:	4a52      	ldr	r2, [pc, #328]	; (800315c <HAL_RCC_ClockConfig+0x1bc>)
 8003012:	f443 4360 	orr.w	r3, r3, #57344	; 0xe000
 8003016:	6093      	str	r3, [r2, #8]
    }

    assert_param(IS_RCC_HCLK(RCC_ClkInitStruct->AHBCLKDivider));
    MODIFY_REG(RCC->CFGR, RCC_CFGR_HPRE, RCC_ClkInitStruct->AHBCLKDivider);
 8003018:	4b50      	ldr	r3, [pc, #320]	; (800315c <HAL_RCC_ClockConfig+0x1bc>)
 800301a:	689b      	ldr	r3, [r3, #8]
 800301c:	f023 02f0 	bic.w	r2, r3, #240	; 0xf0
 8003020:	687b      	ldr	r3, [r7, #4]
 8003022:	689b      	ldr	r3, [r3, #8]
 8003024:	494d      	ldr	r1, [pc, #308]	; (800315c <HAL_RCC_ClockConfig+0x1bc>)
 8003026:	4313      	orrs	r3, r2
 8003028:	608b      	str	r3, [r1, #8]
  }

  /*------------------------- SYSCLK Configuration ---------------------------*/
  if(((RCC_ClkInitStruct->ClockType) & RCC_CLOCKTYPE_SYSCLK) == RCC_CLOCKTYPE_SYSCLK)
 800302a:	687b      	ldr	r3, [r7, #4]
 800302c:	681b      	ldr	r3, [r3, #0]
 800302e:	f003 0301 	and.w	r3, r3, #1
 8003032:	2b00      	cmp	r3, #0
 8003034:	d044      	beq.n	80030c0 <HAL_RCC_ClockConfig+0x120>
  {
    assert_param(IS_RCC_SYSCLKSOURCE(RCC_ClkInitStruct->SYSCLKSource));

    /* HSE is selected as System Clock Source */
    if(RCC_ClkInitStruct->SYSCLKSource == RCC_SYSCLKSOURCE_HSE)
 8003036:	687b      	ldr	r3, [r7, #4]
 8003038:	685b      	ldr	r3, [r3, #4]
 800303a:	2b01      	cmp	r3, #1
 800303c:	d107      	bne.n	800304e <HAL_RCC_ClockConfig+0xae>
    {
      /* Check the HSE ready flag */
      if(__HAL_RCC_GET_FLAG(RCC_FLAG_HSERDY) == RESET)
 800303e:	4b47      	ldr	r3, [pc, #284]	; (800315c <HAL_RCC_ClockConfig+0x1bc>)
 8003040:	681b      	ldr	r3, [r3, #0]
 8003042:	f403 3300 	and.w	r3, r3, #131072	; 0x20000
 8003046:	2b00      	cmp	r3, #0
 8003048:	d119      	bne.n	800307e <HAL_RCC_ClockConfig+0xde>
      {
        return HAL_ERROR;
 800304a:	2301      	movs	r3, #1
 800304c:	e07f      	b.n	800314e <HAL_RCC_ClockConfig+0x1ae>
      }
    }
    /* PLL is selected as System Clock Source */
    else if((RCC_ClkInitStruct->SYSCLKSource == RCC_SYSCLKSOURCE_PLLCLK)   ||
 800304e:	687b      	ldr	r3, [r7, #4]
 8003050:	685b      	ldr	r3, [r3, #4]
 8003052:	2b02      	cmp	r3, #2
 8003054:	d003      	beq.n	800305e <HAL_RCC_ClockConfig+0xbe>
            (RCC_ClkInitStruct->SYSCLKSource == RCC_SYSCLKSOURCE_PLLRCLK))
 8003056:	687b      	ldr	r3, [r7, #4]
 8003058:	685b      	ldr	r3, [r3, #4]
    else if((RCC_ClkInitStruct->SYSCLKSource == RCC_SYSCLKSOURCE_PLLCLK)   ||
 800305a:	2b03      	cmp	r3, #3
 800305c:	d107      	bne.n	800306e <HAL_RCC_ClockConfig+0xce>
    {
      /* Check the PLL ready flag */
      if(__HAL_RCC_GET_FLAG(RCC_FLAG_PLLRDY) == RESET)
 800305e:	4b3f      	ldr	r3, [pc, #252]	; (800315c <HAL_RCC_ClockConfig+0x1bc>)
 8003060:	681b      	ldr	r3, [r3, #0]
 8003062:	f003 7300 	and.w	r3, r3, #33554432	; 0x2000000
 8003066:	2b00      	cmp	r3, #0
 8003068:	d109      	bne.n	800307e <HAL_RCC_ClockConfig+0xde>
      {
        return HAL_ERROR;
 800306a:	2301      	movs	r3, #1
 800306c:	e06f      	b.n	800314e <HAL_RCC_ClockConfig+0x1ae>
    }
    /* HSI is selected as System Clock Source */
    else
    {
      /* Check the HSI ready flag */
      if(__HAL_RCC_GET_FLAG(RCC_FLAG_HSIRDY) == RESET)
 800306e:	4b3b      	ldr	r3, [pc, #236]	; (800315c <HAL_RCC_ClockConfig+0x1bc>)
 8003070:	681b      	ldr	r3, [r3, #0]
 8003072:	f003 0302 	and.w	r3, r3, #2
 8003076:	2b00      	cmp	r3, #0
 8003078:	d101      	bne.n	800307e <HAL_RCC_ClockConfig+0xde>
      {
        return HAL_ERROR;
 800307a:	2301      	movs	r3, #1
 800307c:	e067      	b.n	800314e <HAL_RCC_ClockConfig+0x1ae>
      }
    }

    __HAL_RCC_SYSCLK_CONFIG(RCC_ClkInitStruct->SYSCLKSource);
 800307e:	4b37      	ldr	r3, [pc, #220]	; (800315c <HAL_RCC_ClockConfig+0x1bc>)
 8003080:	689b      	ldr	r3, [r3, #8]
 8003082:	f023 0203 	bic.w	r2, r3, #3
 8003086:	687b      	ldr	r3, [r7, #4]
 8003088:	685b      	ldr	r3, [r3, #4]
 800308a:	4934      	ldr	r1, [pc, #208]	; (800315c <HAL_RCC_ClockConfig+0x1bc>)
 800308c:	4313      	orrs	r3, r2
 800308e:	608b      	str	r3, [r1, #8]

    /* Get Start Tick */
    tickstart = HAL_GetTick();
 8003090:	f7fe fc6a 	bl	8001968 <HAL_GetTick>
 8003094:	60f8      	str	r0, [r7, #12]

    while (__HAL_RCC_GET_SYSCLK_SOURCE() != (RCC_ClkInitStruct->SYSCLKSource << RCC_CFGR_SWS_Pos))
 8003096:	e00a      	b.n	80030ae <HAL_RCC_ClockConfig+0x10e>
    {
      if ((HAL_GetTick() - tickstart) > CLOCKSWITCH_TIMEOUT_VALUE)
 8003098:	f7fe fc66 	bl	8001968 <HAL_GetTick>
 800309c:	4602      	mov	r2, r0
 800309e:	68fb      	ldr	r3, [r7, #12]
 80030a0:	1ad3      	subs	r3, r2, r3
 80030a2:	f241 3288 	movw	r2, #5000	; 0x1388
 80030a6:	4293      	cmp	r3, r2
 80030a8:	d901      	bls.n	80030ae <HAL_RCC_ClockConfig+0x10e>
      {
        return HAL_TIMEOUT;
 80030aa:	2303      	movs	r3, #3
 80030ac:	e04f      	b.n	800314e <HAL_RCC_ClockConfig+0x1ae>
    while (__HAL_RCC_GET_SYSCLK_SOURCE() != (RCC_ClkInitStruct->SYSCLKSource << RCC_CFGR_SWS_Pos))
 80030ae:	4b2b      	ldr	r3, [pc, #172]	; (800315c <HAL_RCC_ClockConfig+0x1bc>)
 80030b0:	689b      	ldr	r3, [r3, #8]
 80030b2:	f003 020c 	and.w	r2, r3, #12
 80030b6:	687b      	ldr	r3, [r7, #4]
 80030b8:	685b      	ldr	r3, [r3, #4]
 80030ba:	009b      	lsls	r3, r3, #2
 80030bc:	429a      	cmp	r2, r3
 80030be:	d1eb      	bne.n	8003098 <HAL_RCC_ClockConfig+0xf8>
      }
    }
  }

  /* Decreasing the number of wait states because of lower CPU frequency */
  if(FLatency < __HAL_FLASH_GET_LATENCY())
 80030c0:	4b25      	ldr	r3, [pc, #148]	; (8003158 <HAL_RCC_ClockConfig+0x1b8>)
 80030c2:	681b      	ldr	r3, [r3, #0]
 80030c4:	f003 030f 	and.w	r3, r3, #15
 80030c8:	683a      	ldr	r2, [r7, #0]
 80030ca:	429a      	cmp	r2, r3
 80030cc:	d20c      	bcs.n	80030e8 <HAL_RCC_ClockConfig+0x148>
  {
     /* Program the new number of wait states to the LATENCY bits in the FLASH_ACR register */
    __HAL_FLASH_SET_LATENCY(FLatency);
 80030ce:	4b22      	ldr	r3, [pc, #136]	; (8003158 <HAL_RCC_ClockConfig+0x1b8>)
 80030d0:	683a      	ldr	r2, [r7, #0]
 80030d2:	b2d2      	uxtb	r2, r2
 80030d4:	701a      	strb	r2, [r3, #0]

    /* Check that the new number of wait states is taken into account to access the Flash
    memory by reading the FLASH_ACR register */
    if(__HAL_FLASH_GET_LATENCY() != FLatency)
 80030d6:	4b20      	ldr	r3, [pc, #128]	; (8003158 <HAL_RCC_ClockConfig+0x1b8>)
 80030d8:	681b      	ldr	r3, [r3, #0]
 80030da:	f003 030f 	and.w	r3, r3, #15
 80030de:	683a      	ldr	r2, [r7, #0]
 80030e0:	429a      	cmp	r2, r3
 80030e2:	d001      	beq.n	80030e8 <HAL_RCC_ClockConfig+0x148>
    {
      return HAL_ERROR;
 80030e4:	2301      	movs	r3, #1
 80030e6:	e032      	b.n	800314e <HAL_RCC_ClockConfig+0x1ae>
    }
  }

  /*-------------------------- PCLK1 Configuration ---------------------------*/
  if(((RCC_ClkInitStruct->ClockType) & RCC_CLOCKTYPE_PCLK1) == RCC_CLOCKTYPE_PCLK1)
 80030e8:	687b      	ldr	r3, [r7, #4]
 80030ea:	681b      	ldr	r3, [r3, #0]
 80030ec:	f003 0304 	and.w	r3, r3, #4
 80030f0:	2b00      	cmp	r3, #0
 80030f2:	d008      	beq.n	8003106 <HAL_RCC_ClockConfig+0x166>
  {
    assert_param(IS_RCC_PCLK(RCC_ClkInitStruct->APB1CLKDivider));
    MODIFY_REG(RCC->CFGR, RCC_CFGR_PPRE1, RCC_ClkInitStruct->APB1CLKDivider);
 80030f4:	4b19      	ldr	r3, [pc, #100]	; (800315c <HAL_RCC_ClockConfig+0x1bc>)
 80030f6:	689b      	ldr	r3, [r3, #8]
 80030f8:	f423 52e0 	bic.w	r2, r3, #7168	; 0x1c00
 80030fc:	687b      	ldr	r3, [r7, #4]
 80030fe:	68db      	ldr	r3, [r3, #12]
 8003100:	4916      	ldr	r1, [pc, #88]	; (800315c <HAL_RCC_ClockConfig+0x1bc>)
 8003102:	4313      	orrs	r3, r2
 8003104:	608b      	str	r3, [r1, #8]
  }

  /*-------------------------- PCLK2 Configuration ---------------------------*/
  if(((RCC_ClkInitStruct->ClockType) & RCC_CLOCKTYPE_PCLK2) == RCC_CLOCKTYPE_PCLK2)
 8003106:	687b      	ldr	r3, [r7, #4]
 8003108:	681b      	ldr	r3, [r3, #0]
 800310a:	f003 0308 	and.w	r3, r3, #8
 800310e:	2b00      	cmp	r3, #0
 8003110:	d009      	beq.n	8003126 <HAL_RCC_ClockConfig+0x186>
  {
    assert_param(IS_RCC_PCLK(RCC_ClkInitStruct->APB2CLKDivider));
    MODIFY_REG(RCC->CFGR, RCC_CFGR_PPRE2, ((RCC_ClkInitStruct->APB2CLKDivider) << 3U));
 8003112:	4b12      	ldr	r3, [pc, #72]	; (800315c <HAL_RCC_ClockConfig+0x1bc>)
 8003114:	689b      	ldr	r3, [r3, #8]
 8003116:	f423 4260 	bic.w	r2, r3, #57344	; 0xe000
 800311a:	687b      	ldr	r3, [r7, #4]
 800311c:	691b      	ldr	r3, [r3, #16]
 800311e:	00db      	lsls	r3, r3, #3
 8003120:	490e      	ldr	r1, [pc, #56]	; (800315c <HAL_RCC_ClockConfig+0x1bc>)
 8003122:	4313      	orrs	r3, r2
 8003124:	608b      	str	r3, [r1, #8]
  }

  /* Update the SystemCoreClock global variable */
  SystemCoreClock = HAL_RCC_GetSysClockFreq() >> AHBPrescTable[(RCC->CFGR & RCC_CFGR_HPRE)>> RCC_CFGR_HPRE_Pos];
 8003126:	f000 f855 	bl	80031d4 <HAL_RCC_GetSysClockFreq>
 800312a:	4602      	mov	r2, r0
 800312c:	4b0b      	ldr	r3, [pc, #44]	; (800315c <HAL_RCC_ClockConfig+0x1bc>)
 800312e:	689b      	ldr	r3, [r3, #8]
 8003130:	091b      	lsrs	r3, r3, #4
 8003132:	f003 030f 	and.w	r3, r3, #15
 8003136:	490a      	ldr	r1, [pc, #40]	; (8003160 <HAL_RCC_ClockConfig+0x1c0>)
 8003138:	5ccb      	ldrb	r3, [r1, r3]
 800313a:	fa22 f303 	lsr.w	r3, r2, r3
 800313e:	4a09      	ldr	r2, [pc, #36]	; (8003164 <HAL_RCC_ClockConfig+0x1c4>)
 8003140:	6013      	str	r3, [r2, #0]

  /* Configure the source of time base considering new system clocks settings */
  HAL_InitTick (uwTickPrio);
 8003142:	4b09      	ldr	r3, [pc, #36]	; (8003168 <HAL_RCC_ClockConfig+0x1c8>)
 8003144:	681b      	ldr	r3, [r3, #0]
 8003146:	4618      	mov	r0, r3
 8003148:	f7fe fbca 	bl	80018e0 <HAL_InitTick>

  return HAL_OK;
 800314c:	2300      	movs	r3, #0
}
 800314e:	4618      	mov	r0, r3
 8003150:	3710      	adds	r7, #16
 8003152:	46bd      	mov	sp, r7
 8003154:	bd80      	pop	{r7, pc}
 8003156:	bf00      	nop
 8003158:	40023c00 	.word	0x40023c00
 800315c:	40023800 	.word	0x40023800
 8003160:	080078d0 	.word	0x080078d0
 8003164:	20000004 	.word	0x20000004
 8003168:	20000008 	.word	0x20000008

0800316c <HAL_RCC_GetHCLKFreq>:
  * @note   The SystemCoreClock CMSIS variable is used to store System Clock Frequency
  *         and updated within this function
  * @retval HCLK frequency
  */
uint32_t HAL_RCC_GetHCLKFreq(void)
{
 800316c:	b480      	push	{r7}
 800316e:	af00      	add	r7, sp, #0
  return SystemCoreClock;
 8003170:	4b03      	ldr	r3, [pc, #12]	; (8003180 <HAL_RCC_GetHCLKFreq+0x14>)
 8003172:	681b      	ldr	r3, [r3, #0]
}
 8003174:	4618      	mov	r0, r3
 8003176:	46bd      	mov	sp, r7
 8003178:	f85d 7b04 	ldr.w	r7, [sp], #4
 800317c:	4770      	bx	lr
 800317e:	bf00      	nop
 8003180:	20000004 	.word	0x20000004

08003184 <HAL_RCC_GetPCLK1Freq>:
  * @note   Each time PCLK1 changes, this function must be called to update the
  *         right PCLK1 value. Otherwise, any configuration based on this function will be incorrect.
  * @retval PCLK1 frequency
  */
uint32_t HAL_RCC_GetPCLK1Freq(void)
{
 8003184:	b580      	push	{r7, lr}
 8003186:	af00      	add	r7, sp, #0
  /* Get HCLK source and Compute PCLK1 frequency ---------------------------*/
  return (HAL_RCC_GetHCLKFreq() >> APBPrescTable[(RCC->CFGR & RCC_CFGR_PPRE1)>> RCC_CFGR_PPRE1_Pos]);
 8003188:	f7ff fff0 	bl	800316c <HAL_RCC_GetHCLKFreq>
 800318c:	4602      	mov	r2, r0
 800318e:	4b05      	ldr	r3, [pc, #20]	; (80031a4 <HAL_RCC_GetPCLK1Freq+0x20>)
 8003190:	689b      	ldr	r3, [r3, #8]
 8003192:	0a9b      	lsrs	r3, r3, #10
 8003194:	f003 0307 	and.w	r3, r3, #7
 8003198:	4903      	ldr	r1, [pc, #12]	; (80031a8 <HAL_RCC_GetPCLK1Freq+0x24>)
 800319a:	5ccb      	ldrb	r3, [r1, r3]
 800319c:	fa22 f303 	lsr.w	r3, r2, r3
}
 80031a0:	4618      	mov	r0, r3
 80031a2:	bd80      	pop	{r7, pc}
 80031a4:	40023800 	.word	0x40023800
 80031a8:	080078e0 	.word	0x080078e0

080031ac <HAL_RCC_GetPCLK2Freq>:
  * @note   Each time PCLK2 changes, this function must be called to update the
  *         right PCLK2 value. Otherwise, any configuration based on this function will be incorrect.
  * @retval PCLK2 frequency
  */
uint32_t HAL_RCC_GetPCLK2Freq(void)
{
 80031ac:	b580      	push	{r7, lr}
 80031ae:	af00      	add	r7, sp, #0
  /* Get HCLK source and Compute PCLK2 frequency ---------------------------*/
  return (HAL_RCC_GetHCLKFreq()>> APBPrescTable[(RCC->CFGR & RCC_CFGR_PPRE2)>> RCC_CFGR_PPRE2_Pos]);
 80031b0:	f7ff ffdc 	bl	800316c <HAL_RCC_GetHCLKFreq>
 80031b4:	4602      	mov	r2, r0
 80031b6:	4b05      	ldr	r3, [pc, #20]	; (80031cc <HAL_RCC_GetPCLK2Freq+0x20>)
 80031b8:	689b      	ldr	r3, [r3, #8]
 80031ba:	0b5b      	lsrs	r3, r3, #13
 80031bc:	f003 0307 	and.w	r3, r3, #7
 80031c0:	4903      	ldr	r1, [pc, #12]	; (80031d0 <HAL_RCC_GetPCLK2Freq+0x24>)
 80031c2:	5ccb      	ldrb	r3, [r1, r3]
 80031c4:	fa22 f303 	lsr.w	r3, r2, r3
}
 80031c8:	4618      	mov	r0, r3
 80031ca:	bd80      	pop	{r7, pc}
 80031cc:	40023800 	.word	0x40023800
 80031d0:	080078e0 	.word	0x080078e0

080031d4 <HAL_RCC_GetSysClockFreq>:
  *
  *
  * @retval SYSCLK frequency
  */
uint32_t HAL_RCC_GetSysClockFreq(void)
{
 80031d4:	e92d 4fb0 	stmdb	sp!, {r4, r5, r7, r8, r9, sl, fp, lr}
 80031d8:	b088      	sub	sp, #32
 80031da:	af00      	add	r7, sp, #0
  uint32_t pllm = 0U;
 80031dc:	2300      	movs	r3, #0
 80031de:	617b      	str	r3, [r7, #20]
  uint32_t pllvco = 0U;
 80031e0:	2300      	movs	r3, #0
 80031e2:	61fb      	str	r3, [r7, #28]
  uint32_t pllp = 0U;
 80031e4:	2300      	movs	r3, #0
 80031e6:	613b      	str	r3, [r7, #16]
  uint32_t pllr = 0U;
 80031e8:	2300      	movs	r3, #0
 80031ea:	60fb      	str	r3, [r7, #12]
  uint32_t sysclockfreq = 0U;
 80031ec:	2300      	movs	r3, #0
 80031ee:	61bb      	str	r3, [r7, #24]

  /* Get SYSCLK source -------------------------------------------------------*/
  switch (RCC->CFGR & RCC_CFGR_SWS)
 80031f0:	4bce      	ldr	r3, [pc, #824]	; (800352c <HAL_RCC_GetSysClockFreq+0x358>)
 80031f2:	689b      	ldr	r3, [r3, #8]
 80031f4:	f003 030c 	and.w	r3, r3, #12
 80031f8:	2b0c      	cmp	r3, #12
 80031fa:	f200 818d 	bhi.w	8003518 <HAL_RCC_GetSysClockFreq+0x344>
 80031fe:	a201      	add	r2, pc, #4	; (adr r2, 8003204 <HAL_RCC_GetSysClockFreq+0x30>)
 8003200:	f852 f023 	ldr.w	pc, [r2, r3, lsl #2]
 8003204:	08003239 	.word	0x08003239
 8003208:	08003519 	.word	0x08003519
 800320c:	08003519 	.word	0x08003519
 8003210:	08003519 	.word	0x08003519
 8003214:	0800323f 	.word	0x0800323f
 8003218:	08003519 	.word	0x08003519
 800321c:	08003519 	.word	0x08003519
 8003220:	08003519 	.word	0x08003519
 8003224:	08003245 	.word	0x08003245
 8003228:	08003519 	.word	0x08003519
 800322c:	08003519 	.word	0x08003519
 8003230:	08003519 	.word	0x08003519
 8003234:	080033b9 	.word	0x080033b9
  {
    case RCC_CFGR_SWS_HSI:  /* HSI used as system clock source */
    {
      sysclockfreq = HSI_VALUE;
 8003238:	4bbd      	ldr	r3, [pc, #756]	; (8003530 <HAL_RCC_GetSysClockFreq+0x35c>)
 800323a:	61bb      	str	r3, [r7, #24]
       break;
 800323c:	e16f      	b.n	800351e <HAL_RCC_GetSysClockFreq+0x34a>
    }
    case RCC_CFGR_SWS_HSE:  /* HSE used as system clock  source */
    {
      sysclockfreq = HSE_VALUE;
 800323e:	4bbd      	ldr	r3, [pc, #756]	; (8003534 <HAL_RCC_GetSysClockFreq+0x360>)
 8003240:	61bb      	str	r3, [r7, #24]
      break;
 8003242:	e16c      	b.n	800351e <HAL_RCC_GetSysClockFreq+0x34a>
    }
    case RCC_CFGR_SWS_PLL:  /* PLL/PLLP used as system clock  source */
    {
      /* PLL_VCO = (HSE_VALUE or HSI_VALUE / PLLM) * PLLN
      SYSCLK = PLL_VCO / PLLP */
      pllm = RCC->PLLCFGR & RCC_PLLCFGR_PLLM;
 8003244:	4bb9      	ldr	r3, [pc, #740]	; (800352c <HAL_RCC_GetSysClockFreq+0x358>)
 8003246:	685b      	ldr	r3, [r3, #4]
 8003248:	f003 033f 	and.w	r3, r3, #63	; 0x3f
 800324c:	617b      	str	r3, [r7, #20]
      if(__HAL_RCC_GET_PLL_OSCSOURCE() != RCC_PLLSOURCE_HSI)
 800324e:	4bb7      	ldr	r3, [pc, #732]	; (800352c <HAL_RCC_GetSysClockFreq+0x358>)
 8003250:	685b      	ldr	r3, [r3, #4]
 8003252:	f403 0380 	and.w	r3, r3, #4194304	; 0x400000
 8003256:	2b00      	cmp	r3, #0
 8003258:	d053      	beq.n	8003302 <HAL_RCC_GetSysClockFreq+0x12e>
      {
        /* HSE used as PLL clock source */
        pllvco = (uint32_t) ((((uint64_t) HSE_VALUE * ((uint64_t) ((RCC->PLLCFGR & RCC_PLLCFGR_PLLN) >> RCC_PLLCFGR_PLLN_Pos)))) / (uint64_t)pllm);
 800325a:	4bb4      	ldr	r3, [pc, #720]	; (800352c <HAL_RCC_GetSysClockFreq+0x358>)
 800325c:	685b      	ldr	r3, [r3, #4]
 800325e:	099b      	lsrs	r3, r3, #6
 8003260:	461a      	mov	r2, r3
 8003262:	f04f 0300 	mov.w	r3, #0
 8003266:	f240 10ff 	movw	r0, #511	; 0x1ff
 800326a:	f04f 0100 	mov.w	r1, #0
 800326e:	ea02 0400 	and.w	r4, r2, r0
 8003272:	603c      	str	r4, [r7, #0]
 8003274:	400b      	ands	r3, r1
 8003276:	607b      	str	r3, [r7, #4]
 8003278:	e9d7 4500 	ldrd	r4, r5, [r7]
 800327c:	4620      	mov	r0, r4
 800327e:	4629      	mov	r1, r5
 8003280:	f04f 0200 	mov.w	r2, #0
 8003284:	f04f 0300 	mov.w	r3, #0
 8003288:	014b      	lsls	r3, r1, #5
 800328a:	ea43 63d0 	orr.w	r3, r3, r0, lsr #27
 800328e:	0142      	lsls	r2, r0, #5
 8003290:	4610      	mov	r0, r2
 8003292:	4619      	mov	r1, r3
 8003294:	4623      	mov	r3, r4
 8003296:	1ac0      	subs	r0, r0, r3
 8003298:	462b      	mov	r3, r5
 800329a:	eb61 0103 	sbc.w	r1, r1, r3
 800329e:	f04f 0200 	mov.w	r2, #0
 80032a2:	f04f 0300 	mov.w	r3, #0
 80032a6:	018b      	lsls	r3, r1, #6
 80032a8:	ea43 6390 	orr.w	r3, r3, r0, lsr #26
 80032ac:	0182      	lsls	r2, r0, #6
 80032ae:	1a12      	subs	r2, r2, r0
 80032b0:	eb63 0301 	sbc.w	r3, r3, r1
 80032b4:	f04f 0000 	mov.w	r0, #0
 80032b8:	f04f 0100 	mov.w	r1, #0
 80032bc:	00d9      	lsls	r1, r3, #3
 80032be:	ea41 7152 	orr.w	r1, r1, r2, lsr #29
 80032c2:	00d0      	lsls	r0, r2, #3
 80032c4:	4602      	mov	r2, r0
 80032c6:	460b      	mov	r3, r1
 80032c8:	4621      	mov	r1, r4
 80032ca:	1852      	adds	r2, r2, r1
 80032cc:	4629      	mov	r1, r5
 80032ce:	eb43 0101 	adc.w	r1, r3, r1
 80032d2:	460b      	mov	r3, r1
 80032d4:	f04f 0000 	mov.w	r0, #0
 80032d8:	f04f 0100 	mov.w	r1, #0
 80032dc:	0259      	lsls	r1, r3, #9
 80032de:	ea41 51d2 	orr.w	r1, r1, r2, lsr #23
 80032e2:	0250      	lsls	r0, r2, #9
 80032e4:	4602      	mov	r2, r0
 80032e6:	460b      	mov	r3, r1
 80032e8:	4610      	mov	r0, r2
 80032ea:	4619      	mov	r1, r3
 80032ec:	697b      	ldr	r3, [r7, #20]
 80032ee:	461a      	mov	r2, r3
 80032f0:	f04f 0300 	mov.w	r3, #0
 80032f4:	f7fd fc78 	bl	8000be8 <__aeabi_uldivmod>
 80032f8:	4602      	mov	r2, r0
 80032fa:	460b      	mov	r3, r1
 80032fc:	4613      	mov	r3, r2
 80032fe:	61fb      	str	r3, [r7, #28]
 8003300:	e04c      	b.n	800339c <HAL_RCC_GetSysClockFreq+0x1c8>
      }
      else
      {
        /* HSI used as PLL clock source */
        pllvco = (uint32_t) ((((uint64_t) HSI_VALUE * ((uint64_t) ((RCC->PLLCFGR & RCC_PLLCFGR_PLLN) >> RCC_PLLCFGR_PLLN_Pos)))) / (uint64_t)pllm);
 8003302:	4b8a      	ldr	r3, [pc, #552]	; (800352c <HAL_RCC_GetSysClockFreq+0x358>)
 8003304:	685b      	ldr	r3, [r3, #4]
 8003306:	099b      	lsrs	r3, r3, #6
 8003308:	461a      	mov	r2, r3
 800330a:	f04f 0300 	mov.w	r3, #0
 800330e:	f240 10ff 	movw	r0, #511	; 0x1ff
 8003312:	f04f 0100 	mov.w	r1, #0
 8003316:	ea02 0a00 	and.w	sl, r2, r0
 800331a:	ea03 0b01 	and.w	fp, r3, r1
 800331e:	4650      	mov	r0, sl
 8003320:	4659      	mov	r1, fp
 8003322:	f04f 0200 	mov.w	r2, #0
 8003326:	f04f 0300 	mov.w	r3, #0
 800332a:	014b      	lsls	r3, r1, #5
 800332c:	ea43 63d0 	orr.w	r3, r3, r0, lsr #27
 8003330:	0142      	lsls	r2, r0, #5
 8003332:	4610      	mov	r0, r2
 8003334:	4619      	mov	r1, r3
 8003336:	ebb0 000a 	subs.w	r0, r0, sl
 800333a:	eb61 010b 	sbc.w	r1, r1, fp
 800333e:	f04f 0200 	mov.w	r2, #0
 8003342:	f04f 0300 	mov.w	r3, #0
 8003346:	018b      	lsls	r3, r1, #6
 8003348:	ea43 6390 	orr.w	r3, r3, r0, lsr #26
 800334c:	0182      	lsls	r2, r0, #6
 800334e:	1a12      	subs	r2, r2, r0
 8003350:	eb63 0301 	sbc.w	r3, r3, r1
 8003354:	f04f 0000 	mov.w	r0, #0
 8003358:	f04f 0100 	mov.w	r1, #0
 800335c:	00d9      	lsls	r1, r3, #3
 800335e:	ea41 7152 	orr.w	r1, r1, r2, lsr #29
 8003362:	00d0      	lsls	r0, r2, #3
 8003364:	4602      	mov	r2, r0
 8003366:	460b      	mov	r3, r1
 8003368:	eb12 020a 	adds.w	r2, r2, sl
 800336c:	eb43 030b 	adc.w	r3, r3, fp
 8003370:	f04f 0000 	mov.w	r0, #0
 8003374:	f04f 0100 	mov.w	r1, #0
 8003378:	0299      	lsls	r1, r3, #10
 800337a:	ea41 5192 	orr.w	r1, r1, r2, lsr #22
 800337e:	0290      	lsls	r0, r2, #10
 8003380:	4602      	mov	r2, r0
 8003382:	460b      	mov	r3, r1
 8003384:	4610      	mov	r0, r2
 8003386:	4619      	mov	r1, r3
 8003388:	697b      	ldr	r3, [r7, #20]
 800338a:	461a      	mov	r2, r3
 800338c:	f04f 0300 	mov.w	r3, #0
 8003390:	f7fd fc2a 	bl	8000be8 <__aeabi_uldivmod>
 8003394:	4602      	mov	r2, r0
 8003396:	460b      	mov	r3, r1
 8003398:	4613      	mov	r3, r2
 800339a:	61fb      	str	r3, [r7, #28]
      }
      pllp = ((((RCC->PLLCFGR & RCC_PLLCFGR_PLLP) >> RCC_PLLCFGR_PLLP_Pos) + 1U) *2U);
 800339c:	4b63      	ldr	r3, [pc, #396]	; (800352c <HAL_RCC_GetSysClockFreq+0x358>)
 800339e:	685b      	ldr	r3, [r3, #4]
 80033a0:	0c1b      	lsrs	r3, r3, #16
 80033a2:	f003 0303 	and.w	r3, r3, #3
 80033a6:	3301      	adds	r3, #1
 80033a8:	005b      	lsls	r3, r3, #1
 80033aa:	613b      	str	r3, [r7, #16]

      sysclockfreq = pllvco/pllp;
 80033ac:	69fa      	ldr	r2, [r7, #28]
 80033ae:	693b      	ldr	r3, [r7, #16]
 80033b0:	fbb2 f3f3 	udiv	r3, r2, r3
 80033b4:	61bb      	str	r3, [r7, #24]
      break;
 80033b6:	e0b2      	b.n	800351e <HAL_RCC_GetSysClockFreq+0x34a>
    }
    case RCC_CFGR_SWS_PLLR:  /* PLL/PLLR used as system clock  source */
    {
      /* PLL_VCO = (HSE_VALUE or HSI_VALUE / PLLM) * PLLN
      SYSCLK = PLL_VCO / PLLR */
      pllm = RCC->PLLCFGR & RCC_PLLCFGR_PLLM;
 80033b8:	4b5c      	ldr	r3, [pc, #368]	; (800352c <HAL_RCC_GetSysClockFreq+0x358>)
 80033ba:	685b      	ldr	r3, [r3, #4]
 80033bc:	f003 033f 	and.w	r3, r3, #63	; 0x3f
 80033c0:	617b      	str	r3, [r7, #20]
      if(__HAL_RCC_GET_PLL_OSCSOURCE() != RCC_PLLSOURCE_HSI)
 80033c2:	4b5a      	ldr	r3, [pc, #360]	; (800352c <HAL_RCC_GetSysClockFreq+0x358>)
 80033c4:	685b      	ldr	r3, [r3, #4]
 80033c6:	f403 0380 	and.w	r3, r3, #4194304	; 0x400000
 80033ca:	2b00      	cmp	r3, #0
 80033cc:	d04d      	beq.n	800346a <HAL_RCC_GetSysClockFreq+0x296>
      {
        /* HSE used as PLL clock source */
        pllvco = (uint32_t) ((((uint64_t) HSE_VALUE * ((uint64_t) ((RCC->PLLCFGR & RCC_PLLCFGR_PLLN) >> RCC_PLLCFGR_PLLN_Pos)))) / (uint64_t)pllm);
 80033ce:	4b57      	ldr	r3, [pc, #348]	; (800352c <HAL_RCC_GetSysClockFreq+0x358>)
 80033d0:	685b      	ldr	r3, [r3, #4]
 80033d2:	099b      	lsrs	r3, r3, #6
 80033d4:	461a      	mov	r2, r3
 80033d6:	f04f 0300 	mov.w	r3, #0
 80033da:	f240 10ff 	movw	r0, #511	; 0x1ff
 80033de:	f04f 0100 	mov.w	r1, #0
 80033e2:	ea02 0800 	and.w	r8, r2, r0
 80033e6:	ea03 0901 	and.w	r9, r3, r1
 80033ea:	4640      	mov	r0, r8
 80033ec:	4649      	mov	r1, r9
 80033ee:	f04f 0200 	mov.w	r2, #0
 80033f2:	f04f 0300 	mov.w	r3, #0
 80033f6:	014b      	lsls	r3, r1, #5
 80033f8:	ea43 63d0 	orr.w	r3, r3, r0, lsr #27
 80033fc:	0142      	lsls	r2, r0, #5
 80033fe:	4610      	mov	r0, r2
 8003400:	4619      	mov	r1, r3
 8003402:	ebb0 0008 	subs.w	r0, r0, r8
 8003406:	eb61 0109 	sbc.w	r1, r1, r9
 800340a:	f04f 0200 	mov.w	r2, #0
 800340e:	f04f 0300 	mov.w	r3, #0
 8003412:	018b      	lsls	r3, r1, #6
 8003414:	ea43 6390 	orr.w	r3, r3, r0, lsr #26
 8003418:	0182      	lsls	r2, r0, #6
 800341a:	1a12      	subs	r2, r2, r0
 800341c:	eb63 0301 	sbc.w	r3, r3, r1
 8003420:	f04f 0000 	mov.w	r0, #0
 8003424:	f04f 0100 	mov.w	r1, #0
 8003428:	00d9      	lsls	r1, r3, #3
 800342a:	ea41 7152 	orr.w	r1, r1, r2, lsr #29
 800342e:	00d0      	lsls	r0, r2, #3
 8003430:	4602      	mov	r2, r0
 8003432:	460b      	mov	r3, r1
 8003434:	eb12 0208 	adds.w	r2, r2, r8
 8003438:	eb43 0309 	adc.w	r3, r3, r9
 800343c:	f04f 0000 	mov.w	r0, #0
 8003440:	f04f 0100 	mov.w	r1, #0
 8003444:	0259      	lsls	r1, r3, #9
 8003446:	ea41 51d2 	orr.w	r1, r1, r2, lsr #23
 800344a:	0250      	lsls	r0, r2, #9
 800344c:	4602      	mov	r2, r0
 800344e:	460b      	mov	r3, r1
 8003450:	4610      	mov	r0, r2
 8003452:	4619      	mov	r1, r3
 8003454:	697b      	ldr	r3, [r7, #20]
 8003456:	461a      	mov	r2, r3
 8003458:	f04f 0300 	mov.w	r3, #0
 800345c:	f7fd fbc4 	bl	8000be8 <__aeabi_uldivmod>
 8003460:	4602      	mov	r2, r0
 8003462:	460b      	mov	r3, r1
 8003464:	4613      	mov	r3, r2
 8003466:	61fb      	str	r3, [r7, #28]
 8003468:	e04a      	b.n	8003500 <HAL_RCC_GetSysClockFreq+0x32c>
      }
      else
      {
        /* HSI used as PLL clock source */
        pllvco = (uint32_t) ((((uint64_t) HSI_VALUE * ((uint64_t) ((RCC->PLLCFGR & RCC_PLLCFGR_PLLN) >> RCC_PLLCFGR_PLLN_Pos)))) / (uint64_t)pllm);
 800346a:	4b30      	ldr	r3, [pc, #192]	; (800352c <HAL_RCC_GetSysClockFreq+0x358>)
 800346c:	685b      	ldr	r3, [r3, #4]
 800346e:	099b      	lsrs	r3, r3, #6
 8003470:	461a      	mov	r2, r3
 8003472:	f04f 0300 	mov.w	r3, #0
 8003476:	f240 10ff 	movw	r0, #511	; 0x1ff
 800347a:	f04f 0100 	mov.w	r1, #0
 800347e:	ea02 0400 	and.w	r4, r2, r0
 8003482:	ea03 0501 	and.w	r5, r3, r1
 8003486:	4620      	mov	r0, r4
 8003488:	4629      	mov	r1, r5
 800348a:	f04f 0200 	mov.w	r2, #0
 800348e:	f04f 0300 	mov.w	r3, #0
 8003492:	014b      	lsls	r3, r1, #5
 8003494:	ea43 63d0 	orr.w	r3, r3, r0, lsr #27
 8003498:	0142      	lsls	r2, r0, #5
 800349a:	4610      	mov	r0, r2
 800349c:	4619      	mov	r1, r3
 800349e:	1b00      	subs	r0, r0, r4
 80034a0:	eb61 0105 	sbc.w	r1, r1, r5
 80034a4:	f04f 0200 	mov.w	r2, #0
 80034a8:	f04f 0300 	mov.w	r3, #0
 80034ac:	018b      	lsls	r3, r1, #6
 80034ae:	ea43 6390 	orr.w	r3, r3, r0, lsr #26
 80034b2:	0182      	lsls	r2, r0, #6
 80034b4:	1a12      	subs	r2, r2, r0
 80034b6:	eb63 0301 	sbc.w	r3, r3, r1
 80034ba:	f04f 0000 	mov.w	r0, #0
 80034be:	f04f 0100 	mov.w	r1, #0
 80034c2:	00d9      	lsls	r1, r3, #3
 80034c4:	ea41 7152 	orr.w	r1, r1, r2, lsr #29
 80034c8:	00d0      	lsls	r0, r2, #3
 80034ca:	4602      	mov	r2, r0
 80034cc:	460b      	mov	r3, r1
 80034ce:	1912      	adds	r2, r2, r4
 80034d0:	eb45 0303 	adc.w	r3, r5, r3
 80034d4:	f04f 0000 	mov.w	r0, #0
 80034d8:	f04f 0100 	mov.w	r1, #0
 80034dc:	0299      	lsls	r1, r3, #10
 80034de:	ea41 5192 	orr.w	r1, r1, r2, lsr #22
 80034e2:	0290      	lsls	r0, r2, #10
 80034e4:	4602      	mov	r2, r0
 80034e6:	460b      	mov	r3, r1
 80034e8:	4610      	mov	r0, r2
 80034ea:	4619      	mov	r1, r3
 80034ec:	697b      	ldr	r3, [r7, #20]
 80034ee:	461a      	mov	r2, r3
 80034f0:	f04f 0300 	mov.w	r3, #0
 80034f4:	f7fd fb78 	bl	8000be8 <__aeabi_uldivmod>
 80034f8:	4602      	mov	r2, r0
 80034fa:	460b      	mov	r3, r1
 80034fc:	4613      	mov	r3, r2
 80034fe:	61fb      	str	r3, [r7, #28]
      }
      pllr = ((RCC->PLLCFGR & RCC_PLLCFGR_PLLR) >> RCC_PLLCFGR_PLLR_Pos);
 8003500:	4b0a      	ldr	r3, [pc, #40]	; (800352c <HAL_RCC_GetSysClockFreq+0x358>)
 8003502:	685b      	ldr	r3, [r3, #4]
 8003504:	0f1b      	lsrs	r3, r3, #28
 8003506:	f003 0307 	and.w	r3, r3, #7
 800350a:	60fb      	str	r3, [r7, #12]

      sysclockfreq = pllvco/pllr;
 800350c:	69fa      	ldr	r2, [r7, #28]
 800350e:	68fb      	ldr	r3, [r7, #12]
 8003510:	fbb2 f3f3 	udiv	r3, r2, r3
 8003514:	61bb      	str	r3, [r7, #24]
      break;
 8003516:	e002      	b.n	800351e <HAL_RCC_GetSysClockFreq+0x34a>
    }
    default:
    {
      sysclockfreq = HSI_VALUE;
 8003518:	4b05      	ldr	r3, [pc, #20]	; (8003530 <HAL_RCC_GetSysClockFreq+0x35c>)
 800351a:	61bb      	str	r3, [r7, #24]
      break;
 800351c:	bf00      	nop
    }
  }
  return sysclockfreq;
 800351e:	69bb      	ldr	r3, [r7, #24]
}
 8003520:	4618      	mov	r0, r3
 8003522:	3720      	adds	r7, #32
 8003524:	46bd      	mov	sp, r7
 8003526:	e8bd 8fb0 	ldmia.w	sp!, {r4, r5, r7, r8, r9, sl, fp, pc}
 800352a:	bf00      	nop
 800352c:	40023800 	.word	0x40023800
 8003530:	00f42400 	.word	0x00f42400
 8003534:	007a1200 	.word	0x007a1200

08003538 <HAL_RCC_OscConfig>:
  * @note   This function add the PLL/PLLR factor management during PLL configuration this feature
  *         is only available in STM32F410xx/STM32F446xx/STM32F469xx/STM32F479xx/STM32F412Zx/STM32F412Vx/STM32F412Rx/STM32F412Cx devices
  * @retval HAL status
  */
HAL_StatusTypeDef HAL_RCC_OscConfig(RCC_OscInitTypeDef  *RCC_OscInitStruct)
{
 8003538:	b580      	push	{r7, lr}
 800353a:	b086      	sub	sp, #24
 800353c:	af00      	add	r7, sp, #0
 800353e:	6078      	str	r0, [r7, #4]
  uint32_t tickstart, pll_config;

  /* Check Null pointer */
  if(RCC_OscInitStruct == NULL)
 8003540:	687b      	ldr	r3, [r7, #4]
 8003542:	2b00      	cmp	r3, #0
 8003544:	d101      	bne.n	800354a <HAL_RCC_OscConfig+0x12>
  {
    return HAL_ERROR;
 8003546:	2301      	movs	r3, #1
 8003548:	e28d      	b.n	8003a66 <HAL_RCC_OscConfig+0x52e>
  }

  /* Check the parameters */
  assert_param(IS_RCC_OSCILLATORTYPE(RCC_OscInitStruct->OscillatorType));
  /*------------------------------- HSE Configuration ------------------------*/
  if(((RCC_OscInitStruct->OscillatorType) & RCC_OSCILLATORTYPE_HSE) == RCC_OSCILLATORTYPE_HSE)
 800354a:	687b      	ldr	r3, [r7, #4]
 800354c:	681b      	ldr	r3, [r3, #0]
 800354e:	f003 0301 	and.w	r3, r3, #1
 8003552:	2b00      	cmp	r3, #0
 8003554:	f000 8083 	beq.w	800365e <HAL_RCC_OscConfig+0x126>
  {
    /* Check the parameters */
    assert_param(IS_RCC_HSE(RCC_OscInitStruct->HSEState));
    /* When the HSE is used as system clock or clock source for PLL in these cases HSE will not disabled */
#if defined(STM32F446xx)
    if((__HAL_RCC_GET_SYSCLK_SOURCE() == RCC_CFGR_SWS_HSE)                                                                     ||\
 8003558:	4b94      	ldr	r3, [pc, #592]	; (80037ac <HAL_RCC_OscConfig+0x274>)
 800355a:	689b      	ldr	r3, [r3, #8]
 800355c:	f003 030c 	and.w	r3, r3, #12
 8003560:	2b04      	cmp	r3, #4
 8003562:	d019      	beq.n	8003598 <HAL_RCC_OscConfig+0x60>
      ((__HAL_RCC_GET_SYSCLK_SOURCE() == RCC_CFGR_SWS_PLL) && ((RCC->PLLCFGR & RCC_PLLCFGR_PLLSRC) == RCC_PLLCFGR_PLLSRC_HSE)) ||\
 8003564:	4b91      	ldr	r3, [pc, #580]	; (80037ac <HAL_RCC_OscConfig+0x274>)
 8003566:	689b      	ldr	r3, [r3, #8]
 8003568:	f003 030c 	and.w	r3, r3, #12
    if((__HAL_RCC_GET_SYSCLK_SOURCE() == RCC_CFGR_SWS_HSE)                                                                     ||\
 800356c:	2b08      	cmp	r3, #8
 800356e:	d106      	bne.n	800357e <HAL_RCC_OscConfig+0x46>
      ((__HAL_RCC_GET_SYSCLK_SOURCE() == RCC_CFGR_SWS_PLL) && ((RCC->PLLCFGR & RCC_PLLCFGR_PLLSRC) == RCC_PLLCFGR_PLLSRC_HSE)) ||\
 8003570:	4b8e      	ldr	r3, [pc, #568]	; (80037ac <HAL_RCC_OscConfig+0x274>)
 8003572:	685b      	ldr	r3, [r3, #4]
 8003574:	f403 0380 	and.w	r3, r3, #4194304	; 0x400000
 8003578:	f5b3 0f80 	cmp.w	r3, #4194304	; 0x400000
 800357c:	d00c      	beq.n	8003598 <HAL_RCC_OscConfig+0x60>
      ((__HAL_RCC_GET_SYSCLK_SOURCE() == RCC_CFGR_SWS_PLLR) && ((RCC->PLLCFGR & RCC_PLLCFGR_PLLSRC) == RCC_PLLCFGR_PLLSRC_HSE)))
 800357e:	4b8b      	ldr	r3, [pc, #556]	; (80037ac <HAL_RCC_OscConfig+0x274>)
 8003580:	689b      	ldr	r3, [r3, #8]
 8003582:	f003 030c 	and.w	r3, r3, #12
      ((__HAL_RCC_GET_SYSCLK_SOURCE() == RCC_CFGR_SWS_PLL) && ((RCC->PLLCFGR & RCC_PLLCFGR_PLLSRC) == RCC_PLLCFGR_PLLSRC_HSE)) ||\
 8003586:	2b0c      	cmp	r3, #12
 8003588:	d112      	bne.n	80035b0 <HAL_RCC_OscConfig+0x78>
      ((__HAL_RCC_GET_SYSCLK_SOURCE() == RCC_CFGR_SWS_PLLR) && ((RCC->PLLCFGR & RCC_PLLCFGR_PLLSRC) == RCC_PLLCFGR_PLLSRC_HSE)))
 800358a:	4b88      	ldr	r3, [pc, #544]	; (80037ac <HAL_RCC_OscConfig+0x274>)
 800358c:	685b      	ldr	r3, [r3, #4]
 800358e:	f403 0380 	and.w	r3, r3, #4194304	; 0x400000
 8003592:	f5b3 0f80 	cmp.w	r3, #4194304	; 0x400000
 8003596:	d10b      	bne.n	80035b0 <HAL_RCC_OscConfig+0x78>
#else
    if((__HAL_RCC_GET_SYSCLK_SOURCE() == RCC_CFGR_SWS_HSE)                                                                     ||\
      ((__HAL_RCC_GET_SYSCLK_SOURCE() == RCC_CFGR_SWS_PLL) && ((RCC->PLLCFGR & RCC_PLLCFGR_PLLSRC) == RCC_PLLCFGR_PLLSRC_HSE)))
#endif /* STM32F446xx */
    {
      if((__HAL_RCC_GET_FLAG(RCC_FLAG_HSERDY) != RESET) && (RCC_OscInitStruct->HSEState == RCC_HSE_OFF))
 8003598:	4b84      	ldr	r3, [pc, #528]	; (80037ac <HAL_RCC_OscConfig+0x274>)
 800359a:	681b      	ldr	r3, [r3, #0]
 800359c:	f403 3300 	and.w	r3, r3, #131072	; 0x20000
 80035a0:	2b00      	cmp	r3, #0
 80035a2:	d05b      	beq.n	800365c <HAL_RCC_OscConfig+0x124>
 80035a4:	687b      	ldr	r3, [r7, #4]
 80035a6:	685b      	ldr	r3, [r3, #4]
 80035a8:	2b00      	cmp	r3, #0
 80035aa:	d157      	bne.n	800365c <HAL_RCC_OscConfig+0x124>
      {
        return HAL_ERROR;
 80035ac:	2301      	movs	r3, #1
 80035ae:	e25a      	b.n	8003a66 <HAL_RCC_OscConfig+0x52e>
      }
    }
    else
    {
      /* Set the new HSE configuration ---------------------------------------*/
      __HAL_RCC_HSE_CONFIG(RCC_OscInitStruct->HSEState);
 80035b0:	687b      	ldr	r3, [r7, #4]
 80035b2:	685b      	ldr	r3, [r3, #4]
 80035b4:	f5b3 3f80 	cmp.w	r3, #65536	; 0x10000
 80035b8:	d106      	bne.n	80035c8 <HAL_RCC_OscConfig+0x90>
 80035ba:	4b7c      	ldr	r3, [pc, #496]	; (80037ac <HAL_RCC_OscConfig+0x274>)
 80035bc:	681b      	ldr	r3, [r3, #0]
 80035be:	4a7b      	ldr	r2, [pc, #492]	; (80037ac <HAL_RCC_OscConfig+0x274>)
 80035c0:	f443 3380 	orr.w	r3, r3, #65536	; 0x10000
 80035c4:	6013      	str	r3, [r2, #0]
 80035c6:	e01d      	b.n	8003604 <HAL_RCC_OscConfig+0xcc>
 80035c8:	687b      	ldr	r3, [r7, #4]
 80035ca:	685b      	ldr	r3, [r3, #4]
 80035cc:	f5b3 2fa0 	cmp.w	r3, #327680	; 0x50000
 80035d0:	d10c      	bne.n	80035ec <HAL_RCC_OscConfig+0xb4>
 80035d2:	4b76      	ldr	r3, [pc, #472]	; (80037ac <HAL_RCC_OscConfig+0x274>)
 80035d4:	681b      	ldr	r3, [r3, #0]
 80035d6:	4a75      	ldr	r2, [pc, #468]	; (80037ac <HAL_RCC_OscConfig+0x274>)
 80035d8:	f443 2380 	orr.w	r3, r3, #262144	; 0x40000
 80035dc:	6013      	str	r3, [r2, #0]
 80035de:	4b73      	ldr	r3, [pc, #460]	; (80037ac <HAL_RCC_OscConfig+0x274>)
 80035e0:	681b      	ldr	r3, [r3, #0]
 80035e2:	4a72      	ldr	r2, [pc, #456]	; (80037ac <HAL_RCC_OscConfig+0x274>)
 80035e4:	f443 3380 	orr.w	r3, r3, #65536	; 0x10000
 80035e8:	6013      	str	r3, [r2, #0]
 80035ea:	e00b      	b.n	8003604 <HAL_RCC_OscConfig+0xcc>
 80035ec:	4b6f      	ldr	r3, [pc, #444]	; (80037ac <HAL_RCC_OscConfig+0x274>)
 80035ee:	681b      	ldr	r3, [r3, #0]
 80035f0:	4a6e      	ldr	r2, [pc, #440]	; (80037ac <HAL_RCC_OscConfig+0x274>)
 80035f2:	f423 3380 	bic.w	r3, r3, #65536	; 0x10000
 80035f6:	6013      	str	r3, [r2, #0]
 80035f8:	4b6c      	ldr	r3, [pc, #432]	; (80037ac <HAL_RCC_OscConfig+0x274>)
 80035fa:	681b      	ldr	r3, [r3, #0]
 80035fc:	4a6b      	ldr	r2, [pc, #428]	; (80037ac <HAL_RCC_OscConfig+0x274>)
 80035fe:	f423 2380 	bic.w	r3, r3, #262144	; 0x40000
 8003602:	6013      	str	r3, [r2, #0]

      /* Check the HSE State */
      if((RCC_OscInitStruct->HSEState) != RCC_HSE_OFF)
 8003604:	687b      	ldr	r3, [r7, #4]
 8003606:	685b      	ldr	r3, [r3, #4]
 8003608:	2b00      	cmp	r3, #0
 800360a:	d013      	beq.n	8003634 <HAL_RCC_OscConfig+0xfc>
      {
        /* Get Start Tick*/
        tickstart = HAL_GetTick();
 800360c:	f7fe f9ac 	bl	8001968 <HAL_GetTick>
 8003610:	6138      	str	r0, [r7, #16]

        /* Wait till HSE is ready */
        while(__HAL_RCC_GET_FLAG(RCC_FLAG_HSERDY) == RESET)
 8003612:	e008      	b.n	8003626 <HAL_RCC_OscConfig+0xee>
        {
          if((HAL_GetTick() - tickstart ) > HSE_TIMEOUT_VALUE)
 8003614:	f7fe f9a8 	bl	8001968 <HAL_GetTick>
 8003618:	4602      	mov	r2, r0
 800361a:	693b      	ldr	r3, [r7, #16]
 800361c:	1ad3      	subs	r3, r2, r3
 800361e:	2b64      	cmp	r3, #100	; 0x64
 8003620:	d901      	bls.n	8003626 <HAL_RCC_OscConfig+0xee>
          {
            return HAL_TIMEOUT;
 8003622:	2303      	movs	r3, #3
 8003624:	e21f      	b.n	8003a66 <HAL_RCC_OscConfig+0x52e>
        while(__HAL_RCC_GET_FLAG(RCC_FLAG_HSERDY) == RESET)
 8003626:	4b61      	ldr	r3, [pc, #388]	; (80037ac <HAL_RCC_OscConfig+0x274>)
 8003628:	681b      	ldr	r3, [r3, #0]
 800362a:	f403 3300 	and.w	r3, r3, #131072	; 0x20000
 800362e:	2b00      	cmp	r3, #0
 8003630:	d0f0      	beq.n	8003614 <HAL_RCC_OscConfig+0xdc>
 8003632:	e014      	b.n	800365e <HAL_RCC_OscConfig+0x126>
        }
      }
      else
      {
        /* Get Start Tick*/
        tickstart = HAL_GetTick();
 8003634:	f7fe f998 	bl	8001968 <HAL_GetTick>
 8003638:	6138      	str	r0, [r7, #16]

        /* Wait till HSE is bypassed or disabled */
        while(__HAL_RCC_GET_FLAG(RCC_FLAG_HSERDY) != RESET)
 800363a:	e008      	b.n	800364e <HAL_RCC_OscConfig+0x116>
        {
          if((HAL_GetTick() - tickstart ) > HSE_TIMEOUT_VALUE)
 800363c:	f7fe f994 	bl	8001968 <HAL_GetTick>
 8003640:	4602      	mov	r2, r0
 8003642:	693b      	ldr	r3, [r7, #16]
 8003644:	1ad3      	subs	r3, r2, r3
 8003646:	2b64      	cmp	r3, #100	; 0x64
 8003648:	d901      	bls.n	800364e <HAL_RCC_OscConfig+0x116>
          {
            return HAL_TIMEOUT;
 800364a:	2303      	movs	r3, #3
 800364c:	e20b      	b.n	8003a66 <HAL_RCC_OscConfig+0x52e>
        while(__HAL_RCC_GET_FLAG(RCC_FLAG_HSERDY) != RESET)
 800364e:	4b57      	ldr	r3, [pc, #348]	; (80037ac <HAL_RCC_OscConfig+0x274>)
 8003650:	681b      	ldr	r3, [r3, #0]
 8003652:	f403 3300 	and.w	r3, r3, #131072	; 0x20000
 8003656:	2b00      	cmp	r3, #0
 8003658:	d1f0      	bne.n	800363c <HAL_RCC_OscConfig+0x104>
 800365a:	e000      	b.n	800365e <HAL_RCC_OscConfig+0x126>
      if((__HAL_RCC_GET_FLAG(RCC_FLAG_HSERDY) != RESET) && (RCC_OscInitStruct->HSEState == RCC_HSE_OFF))
 800365c:	bf00      	nop
        }
      }
    }
  }
  /*----------------------------- HSI Configuration --------------------------*/
  if(((RCC_OscInitStruct->OscillatorType) & RCC_OSCILLATORTYPE_HSI) == RCC_OSCILLATORTYPE_HSI)
 800365e:	687b      	ldr	r3, [r7, #4]
 8003660:	681b      	ldr	r3, [r3, #0]
 8003662:	f003 0302 	and.w	r3, r3, #2
 8003666:	2b00      	cmp	r3, #0
 8003668:	d06f      	beq.n	800374a <HAL_RCC_OscConfig+0x212>
    assert_param(IS_RCC_HSI(RCC_OscInitStruct->HSIState));
    assert_param(IS_RCC_CALIBRATION_VALUE(RCC_OscInitStruct->HSICalibrationValue));

    /* Check if HSI is used as system clock or as PLL source when PLL is selected as system clock */
#if defined(STM32F446xx)
    if((__HAL_RCC_GET_SYSCLK_SOURCE() == RCC_CFGR_SWS_HSI)                                                                     ||\
 800366a:	4b50      	ldr	r3, [pc, #320]	; (80037ac <HAL_RCC_OscConfig+0x274>)
 800366c:	689b      	ldr	r3, [r3, #8]
 800366e:	f003 030c 	and.w	r3, r3, #12
 8003672:	2b00      	cmp	r3, #0
 8003674:	d017      	beq.n	80036a6 <HAL_RCC_OscConfig+0x16e>
      ((__HAL_RCC_GET_SYSCLK_SOURCE() == RCC_CFGR_SWS_PLL) && ((RCC->PLLCFGR & RCC_PLLCFGR_PLLSRC) == RCC_PLLCFGR_PLLSRC_HSI)) ||\
 8003676:	4b4d      	ldr	r3, [pc, #308]	; (80037ac <HAL_RCC_OscConfig+0x274>)
 8003678:	689b      	ldr	r3, [r3, #8]
 800367a:	f003 030c 	and.w	r3, r3, #12
    if((__HAL_RCC_GET_SYSCLK_SOURCE() == RCC_CFGR_SWS_HSI)                                                                     ||\
 800367e:	2b08      	cmp	r3, #8
 8003680:	d105      	bne.n	800368e <HAL_RCC_OscConfig+0x156>
      ((__HAL_RCC_GET_SYSCLK_SOURCE() == RCC_CFGR_SWS_PLL) && ((RCC->PLLCFGR & RCC_PLLCFGR_PLLSRC) == RCC_PLLCFGR_PLLSRC_HSI)) ||\
 8003682:	4b4a      	ldr	r3, [pc, #296]	; (80037ac <HAL_RCC_OscConfig+0x274>)
 8003684:	685b      	ldr	r3, [r3, #4]
 8003686:	f403 0380 	and.w	r3, r3, #4194304	; 0x400000
 800368a:	2b00      	cmp	r3, #0
 800368c:	d00b      	beq.n	80036a6 <HAL_RCC_OscConfig+0x16e>
      ((__HAL_RCC_GET_SYSCLK_SOURCE() == RCC_CFGR_SWS_PLLR) && ((RCC->PLLCFGR & RCC_PLLCFGR_PLLSRC) == RCC_PLLCFGR_PLLSRC_HSI)))
 800368e:	4b47      	ldr	r3, [pc, #284]	; (80037ac <HAL_RCC_OscConfig+0x274>)
 8003690:	689b      	ldr	r3, [r3, #8]
 8003692:	f003 030c 	and.w	r3, r3, #12
      ((__HAL_RCC_GET_SYSCLK_SOURCE() == RCC_CFGR_SWS_PLL) && ((RCC->PLLCFGR & RCC_PLLCFGR_PLLSRC) == RCC_PLLCFGR_PLLSRC_HSI)) ||\
 8003696:	2b0c      	cmp	r3, #12
 8003698:	d11c      	bne.n	80036d4 <HAL_RCC_OscConfig+0x19c>
      ((__HAL_RCC_GET_SYSCLK_SOURCE() == RCC_CFGR_SWS_PLLR) && ((RCC->PLLCFGR & RCC_PLLCFGR_PLLSRC) == RCC_PLLCFGR_PLLSRC_HSI)))
 800369a:	4b44      	ldr	r3, [pc, #272]	; (80037ac <HAL_RCC_OscConfig+0x274>)
 800369c:	685b      	ldr	r3, [r3, #4]
 800369e:	f403 0380 	and.w	r3, r3, #4194304	; 0x400000
 80036a2:	2b00      	cmp	r3, #0
 80036a4:	d116      	bne.n	80036d4 <HAL_RCC_OscConfig+0x19c>
    if((__HAL_RCC_GET_SYSCLK_SOURCE() == RCC_CFGR_SWS_HSI)                                                                     ||\
      ((__HAL_RCC_GET_SYSCLK_SOURCE() == RCC_CFGR_SWS_PLL) && ((RCC->PLLCFGR & RCC_PLLCFGR_PLLSRC) == RCC_PLLCFGR_PLLSRC_HSI)))
#endif /* STM32F446xx */
    {
      /* When HSI is used as system clock it will not disabled */
      if((__HAL_RCC_GET_FLAG(RCC_FLAG_HSIRDY) != RESET) && (RCC_OscInitStruct->HSIState != RCC_HSI_ON))
 80036a6:	4b41      	ldr	r3, [pc, #260]	; (80037ac <HAL_RCC_OscConfig+0x274>)
 80036a8:	681b      	ldr	r3, [r3, #0]
 80036aa:	f003 0302 	and.w	r3, r3, #2
 80036ae:	2b00      	cmp	r3, #0
 80036b0:	d005      	beq.n	80036be <HAL_RCC_OscConfig+0x186>
 80036b2:	687b      	ldr	r3, [r7, #4]
 80036b4:	68db      	ldr	r3, [r3, #12]
 80036b6:	2b01      	cmp	r3, #1
 80036b8:	d001      	beq.n	80036be <HAL_RCC_OscConfig+0x186>
      {
        return HAL_ERROR;
 80036ba:	2301      	movs	r3, #1
 80036bc:	e1d3      	b.n	8003a66 <HAL_RCC_OscConfig+0x52e>
      }
      /* Otherwise, just the calibration is allowed */
      else
      {
        /* Adjusts the Internal High Speed oscillator (HSI) calibration value.*/
        __HAL_RCC_HSI_CALIBRATIONVALUE_ADJUST(RCC_OscInitStruct->HSICalibrationValue);
 80036be:	4b3b      	ldr	r3, [pc, #236]	; (80037ac <HAL_RCC_OscConfig+0x274>)
 80036c0:	681b      	ldr	r3, [r3, #0]
 80036c2:	f023 02f8 	bic.w	r2, r3, #248	; 0xf8
 80036c6:	687b      	ldr	r3, [r7, #4]
 80036c8:	691b      	ldr	r3, [r3, #16]
 80036ca:	00db      	lsls	r3, r3, #3
 80036cc:	4937      	ldr	r1, [pc, #220]	; (80037ac <HAL_RCC_OscConfig+0x274>)
 80036ce:	4313      	orrs	r3, r2
 80036d0:	600b      	str	r3, [r1, #0]
      if((__HAL_RCC_GET_FLAG(RCC_FLAG_HSIRDY) != RESET) && (RCC_OscInitStruct->HSIState != RCC_HSI_ON))
 80036d2:	e03a      	b.n	800374a <HAL_RCC_OscConfig+0x212>
      }
    }
    else
    {
      /* Check the HSI State */
      if((RCC_OscInitStruct->HSIState)!= RCC_HSI_OFF)
 80036d4:	687b      	ldr	r3, [r7, #4]
 80036d6:	68db      	ldr	r3, [r3, #12]
 80036d8:	2b00      	cmp	r3, #0
 80036da:	d020      	beq.n	800371e <HAL_RCC_OscConfig+0x1e6>
      {
        /* Enable the Internal High Speed oscillator (HSI). */
        __HAL_RCC_HSI_ENABLE();
 80036dc:	4b34      	ldr	r3, [pc, #208]	; (80037b0 <HAL_RCC_OscConfig+0x278>)
 80036de:	2201      	movs	r2, #1
 80036e0:	601a      	str	r2, [r3, #0]

        /* Get Start Tick*/
        tickstart = HAL_GetTick();
 80036e2:	f7fe f941 	bl	8001968 <HAL_GetTick>
 80036e6:	6138      	str	r0, [r7, #16]

        /* Wait till HSI is ready */
        while(__HAL_RCC_GET_FLAG(RCC_FLAG_HSIRDY) == RESET)
 80036e8:	e008      	b.n	80036fc <HAL_RCC_OscConfig+0x1c4>
        {
          if((HAL_GetTick() - tickstart ) > HSI_TIMEOUT_VALUE)
 80036ea:	f7fe f93d 	bl	8001968 <HAL_GetTick>
 80036ee:	4602      	mov	r2, r0
 80036f0:	693b      	ldr	r3, [r7, #16]
 80036f2:	1ad3      	subs	r3, r2, r3
 80036f4:	2b02      	cmp	r3, #2
 80036f6:	d901      	bls.n	80036fc <HAL_RCC_OscConfig+0x1c4>
          {
            return HAL_TIMEOUT;
 80036f8:	2303      	movs	r3, #3
 80036fa:	e1b4      	b.n	8003a66 <HAL_RCC_OscConfig+0x52e>
        while(__HAL_RCC_GET_FLAG(RCC_FLAG_HSIRDY) == RESET)
 80036fc:	4b2b      	ldr	r3, [pc, #172]	; (80037ac <HAL_RCC_OscConfig+0x274>)
 80036fe:	681b      	ldr	r3, [r3, #0]
 8003700:	f003 0302 	and.w	r3, r3, #2
 8003704:	2b00      	cmp	r3, #0
 8003706:	d0f0      	beq.n	80036ea <HAL_RCC_OscConfig+0x1b2>
          }
        }

        /* Adjusts the Internal High Speed oscillator (HSI) calibration value.*/
        __HAL_RCC_HSI_CALIBRATIONVALUE_ADJUST(RCC_OscInitStruct->HSICalibrationValue);
 8003708:	4b28      	ldr	r3, [pc, #160]	; (80037ac <HAL_RCC_OscConfig+0x274>)
 800370a:	681b      	ldr	r3, [r3, #0]
 800370c:	f023 02f8 	bic.w	r2, r3, #248	; 0xf8
 8003710:	687b      	ldr	r3, [r7, #4]
 8003712:	691b      	ldr	r3, [r3, #16]
 8003714:	00db      	lsls	r3, r3, #3
 8003716:	4925      	ldr	r1, [pc, #148]	; (80037ac <HAL_RCC_OscConfig+0x274>)
 8003718:	4313      	orrs	r3, r2
 800371a:	600b      	str	r3, [r1, #0]
 800371c:	e015      	b.n	800374a <HAL_RCC_OscConfig+0x212>
      }
      else
      {
        /* Disable the Internal High Speed oscillator (HSI). */
        __HAL_RCC_HSI_DISABLE();
 800371e:	4b24      	ldr	r3, [pc, #144]	; (80037b0 <HAL_RCC_OscConfig+0x278>)
 8003720:	2200      	movs	r2, #0
 8003722:	601a      	str	r2, [r3, #0]

        /* Get Start Tick*/
        tickstart = HAL_GetTick();
 8003724:	f7fe f920 	bl	8001968 <HAL_GetTick>
 8003728:	6138      	str	r0, [r7, #16]

        /* Wait till HSI is ready */
        while(__HAL_RCC_GET_FLAG(RCC_FLAG_HSIRDY) != RESET)
 800372a:	e008      	b.n	800373e <HAL_RCC_OscConfig+0x206>
        {
          if((HAL_GetTick() - tickstart ) > HSI_TIMEOUT_VALUE)
 800372c:	f7fe f91c 	bl	8001968 <HAL_GetTick>
 8003730:	4602      	mov	r2, r0
 8003732:	693b      	ldr	r3, [r7, #16]
 8003734:	1ad3      	subs	r3, r2, r3
 8003736:	2b02      	cmp	r3, #2
 8003738:	d901      	bls.n	800373e <HAL_RCC_OscConfig+0x206>
          {
            return HAL_TIMEOUT;
 800373a:	2303      	movs	r3, #3
 800373c:	e193      	b.n	8003a66 <HAL_RCC_OscConfig+0x52e>
        while(__HAL_RCC_GET_FLAG(RCC_FLAG_HSIRDY) != RESET)
 800373e:	4b1b      	ldr	r3, [pc, #108]	; (80037ac <HAL_RCC_OscConfig+0x274>)
 8003740:	681b      	ldr	r3, [r3, #0]
 8003742:	f003 0302 	and.w	r3, r3, #2
 8003746:	2b00      	cmp	r3, #0
 8003748:	d1f0      	bne.n	800372c <HAL_RCC_OscConfig+0x1f4>
        }
      }
    }
  }
  /*------------------------------ LSI Configuration -------------------------*/
  if(((RCC_OscInitStruct->OscillatorType) & RCC_OSCILLATORTYPE_LSI) == RCC_OSCILLATORTYPE_LSI)
 800374a:	687b      	ldr	r3, [r7, #4]
 800374c:	681b      	ldr	r3, [r3, #0]
 800374e:	f003 0308 	and.w	r3, r3, #8
 8003752:	2b00      	cmp	r3, #0
 8003754:	d036      	beq.n	80037c4 <HAL_RCC_OscConfig+0x28c>
  {
    /* Check the parameters */
    assert_param(IS_RCC_LSI(RCC_OscInitStruct->LSIState));

    /* Check the LSI State */
    if((RCC_OscInitStruct->LSIState)!= RCC_LSI_OFF)
 8003756:	687b      	ldr	r3, [r7, #4]
 8003758:	695b      	ldr	r3, [r3, #20]
 800375a:	2b00      	cmp	r3, #0
 800375c:	d016      	beq.n	800378c <HAL_RCC_OscConfig+0x254>
    {
      /* Enable the Internal Low Speed oscillator (LSI). */
      __HAL_RCC_LSI_ENABLE();
 800375e:	4b15      	ldr	r3, [pc, #84]	; (80037b4 <HAL_RCC_OscConfig+0x27c>)
 8003760:	2201      	movs	r2, #1
 8003762:	601a      	str	r2, [r3, #0]

      /* Get Start Tick*/
      tickstart = HAL_GetTick();
 8003764:	f7fe f900 	bl	8001968 <HAL_GetTick>
 8003768:	6138      	str	r0, [r7, #16]

      /* Wait till LSI is ready */
      while(__HAL_RCC_GET_FLAG(RCC_FLAG_LSIRDY) == RESET)
 800376a:	e008      	b.n	800377e <HAL_RCC_OscConfig+0x246>
      {
        if((HAL_GetTick() - tickstart ) > LSI_TIMEOUT_VALUE)
 800376c:	f7fe f8fc 	bl	8001968 <HAL_GetTick>
 8003770:	4602      	mov	r2, r0
 8003772:	693b      	ldr	r3, [r7, #16]
 8003774:	1ad3      	subs	r3, r2, r3
 8003776:	2b02      	cmp	r3, #2
 8003778:	d901      	bls.n	800377e <HAL_RCC_OscConfig+0x246>
        {
          return HAL_TIMEOUT;
 800377a:	2303      	movs	r3, #3
 800377c:	e173      	b.n	8003a66 <HAL_RCC_OscConfig+0x52e>
      while(__HAL_RCC_GET_FLAG(RCC_FLAG_LSIRDY) == RESET)
 800377e:	4b0b      	ldr	r3, [pc, #44]	; (80037ac <HAL_RCC_OscConfig+0x274>)
 8003780:	6f5b      	ldr	r3, [r3, #116]	; 0x74
 8003782:	f003 0302 	and.w	r3, r3, #2
 8003786:	2b00      	cmp	r3, #0
 8003788:	d0f0      	beq.n	800376c <HAL_RCC_OscConfig+0x234>
 800378a:	e01b      	b.n	80037c4 <HAL_RCC_OscConfig+0x28c>
      }
    }
    else
    {
      /* Disable the Internal Low Speed oscillator (LSI). */
      __HAL_RCC_LSI_DISABLE();
 800378c:	4b09      	ldr	r3, [pc, #36]	; (80037b4 <HAL_RCC_OscConfig+0x27c>)
 800378e:	2200      	movs	r2, #0
 8003790:	601a      	str	r2, [r3, #0]

      /* Get Start Tick*/
      tickstart = HAL_GetTick();
 8003792:	f7fe f8e9 	bl	8001968 <HAL_GetTick>
 8003796:	6138      	str	r0, [r7, #16]

      /* Wait till LSI is ready */
      while(__HAL_RCC_GET_FLAG(RCC_FLAG_LSIRDY) != RESET)
 8003798:	e00e      	b.n	80037b8 <HAL_RCC_OscConfig+0x280>
      {
        if((HAL_GetTick() - tickstart ) > LSI_TIMEOUT_VALUE)
 800379a:	f7fe f8e5 	bl	8001968 <HAL_GetTick>
 800379e:	4602      	mov	r2, r0
 80037a0:	693b      	ldr	r3, [r7, #16]
 80037a2:	1ad3      	subs	r3, r2, r3
 80037a4:	2b02      	cmp	r3, #2
 80037a6:	d907      	bls.n	80037b8 <HAL_RCC_OscConfig+0x280>
        {
          return HAL_TIMEOUT;
 80037a8:	2303      	movs	r3, #3
 80037aa:	e15c      	b.n	8003a66 <HAL_RCC_OscConfig+0x52e>
 80037ac:	40023800 	.word	0x40023800
 80037b0:	42470000 	.word	0x42470000
 80037b4:	42470e80 	.word	0x42470e80
      while(__HAL_RCC_GET_FLAG(RCC_FLAG_LSIRDY) != RESET)
 80037b8:	4b8a      	ldr	r3, [pc, #552]	; (80039e4 <HAL_RCC_OscConfig+0x4ac>)
 80037ba:	6f5b      	ldr	r3, [r3, #116]	; 0x74
 80037bc:	f003 0302 	and.w	r3, r3, #2
 80037c0:	2b00      	cmp	r3, #0
 80037c2:	d1ea      	bne.n	800379a <HAL_RCC_OscConfig+0x262>
        }
      }
    }
  }
  /*------------------------------ LSE Configuration -------------------------*/
  if(((RCC_OscInitStruct->OscillatorType) & RCC_OSCILLATORTYPE_LSE) == RCC_OSCILLATORTYPE_LSE)
 80037c4:	687b      	ldr	r3, [r7, #4]
 80037c6:	681b      	ldr	r3, [r3, #0]
 80037c8:	f003 0304 	and.w	r3, r3, #4
 80037cc:	2b00      	cmp	r3, #0
 80037ce:	f000 8097 	beq.w	8003900 <HAL_RCC_OscConfig+0x3c8>
  {
    FlagStatus       pwrclkchanged = RESET;
 80037d2:	2300      	movs	r3, #0
 80037d4:	75fb      	strb	r3, [r7, #23]
    /* Check the parameters */
    assert_param(IS_RCC_LSE(RCC_OscInitStruct->LSEState));

    /* Update LSE configuration in Backup Domain control register    */
    /* Requires to enable write access to Backup Domain of necessary */
    if(__HAL_RCC_PWR_IS_CLK_DISABLED())
 80037d6:	4b83      	ldr	r3, [pc, #524]	; (80039e4 <HAL_RCC_OscConfig+0x4ac>)
 80037d8:	6c1b      	ldr	r3, [r3, #64]	; 0x40
 80037da:	f003 5380 	and.w	r3, r3, #268435456	; 0x10000000
 80037de:	2b00      	cmp	r3, #0
 80037e0:	d10f      	bne.n	8003802 <HAL_RCC_OscConfig+0x2ca>
    {
      __HAL_RCC_PWR_CLK_ENABLE();
 80037e2:	2300      	movs	r3, #0
 80037e4:	60bb      	str	r3, [r7, #8]
 80037e6:	4b7f      	ldr	r3, [pc, #508]	; (80039e4 <HAL_RCC_OscConfig+0x4ac>)
 80037e8:	6c1b      	ldr	r3, [r3, #64]	; 0x40
 80037ea:	4a7e      	ldr	r2, [pc, #504]	; (80039e4 <HAL_RCC_OscConfig+0x4ac>)
 80037ec:	f043 5380 	orr.w	r3, r3, #268435456	; 0x10000000
 80037f0:	6413      	str	r3, [r2, #64]	; 0x40
 80037f2:	4b7c      	ldr	r3, [pc, #496]	; (80039e4 <HAL_RCC_OscConfig+0x4ac>)
 80037f4:	6c1b      	ldr	r3, [r3, #64]	; 0x40
 80037f6:	f003 5380 	and.w	r3, r3, #268435456	; 0x10000000
 80037fa:	60bb      	str	r3, [r7, #8]
 80037fc:	68bb      	ldr	r3, [r7, #8]
      pwrclkchanged = SET;
 80037fe:	2301      	movs	r3, #1
 8003800:	75fb      	strb	r3, [r7, #23]
    }

    if(HAL_IS_BIT_CLR(PWR->CR, PWR_CR_DBP))
 8003802:	4b79      	ldr	r3, [pc, #484]	; (80039e8 <HAL_RCC_OscConfig+0x4b0>)
 8003804:	681b      	ldr	r3, [r3, #0]
 8003806:	f403 7380 	and.w	r3, r3, #256	; 0x100
 800380a:	2b00      	cmp	r3, #0
 800380c:	d118      	bne.n	8003840 <HAL_RCC_OscConfig+0x308>
    {
      /* Enable write access to Backup domain */
      SET_BIT(PWR->CR, PWR_CR_DBP);
 800380e:	4b76      	ldr	r3, [pc, #472]	; (80039e8 <HAL_RCC_OscConfig+0x4b0>)
 8003810:	681b      	ldr	r3, [r3, #0]
 8003812:	4a75      	ldr	r2, [pc, #468]	; (80039e8 <HAL_RCC_OscConfig+0x4b0>)
 8003814:	f443 7380 	orr.w	r3, r3, #256	; 0x100
 8003818:	6013      	str	r3, [r2, #0]

      /* Wait for Backup domain Write protection disable */
      tickstart = HAL_GetTick();
 800381a:	f7fe f8a5 	bl	8001968 <HAL_GetTick>
 800381e:	6138      	str	r0, [r7, #16]

      while(HAL_IS_BIT_CLR(PWR->CR, PWR_CR_DBP))
 8003820:	e008      	b.n	8003834 <HAL_RCC_OscConfig+0x2fc>
      {
        if((HAL_GetTick() - tickstart) > RCC_DBP_TIMEOUT_VALUE)
 8003822:	f7fe f8a1 	bl	8001968 <HAL_GetTick>
 8003826:	4602      	mov	r2, r0
 8003828:	693b      	ldr	r3, [r7, #16]
 800382a:	1ad3      	subs	r3, r2, r3
 800382c:	2b02      	cmp	r3, #2
 800382e:	d901      	bls.n	8003834 <HAL_RCC_OscConfig+0x2fc>
        {
          return HAL_TIMEOUT;
 8003830:	2303      	movs	r3, #3
 8003832:	e118      	b.n	8003a66 <HAL_RCC_OscConfig+0x52e>
      while(HAL_IS_BIT_CLR(PWR->CR, PWR_CR_DBP))
 8003834:	4b6c      	ldr	r3, [pc, #432]	; (80039e8 <HAL_RCC_OscConfig+0x4b0>)
 8003836:	681b      	ldr	r3, [r3, #0]
 8003838:	f403 7380 	and.w	r3, r3, #256	; 0x100
 800383c:	2b00      	cmp	r3, #0
 800383e:	d0f0      	beq.n	8003822 <HAL_RCC_OscConfig+0x2ea>
        }
      }
    }

    /* Set the new LSE configuration -----------------------------------------*/
    __HAL_RCC_LSE_CONFIG(RCC_OscInitStruct->LSEState);
 8003840:	687b      	ldr	r3, [r7, #4]
 8003842:	689b      	ldr	r3, [r3, #8]
 8003844:	2b01      	cmp	r3, #1
 8003846:	d106      	bne.n	8003856 <HAL_RCC_OscConfig+0x31e>
 8003848:	4b66      	ldr	r3, [pc, #408]	; (80039e4 <HAL_RCC_OscConfig+0x4ac>)
 800384a:	6f1b      	ldr	r3, [r3, #112]	; 0x70
 800384c:	4a65      	ldr	r2, [pc, #404]	; (80039e4 <HAL_RCC_OscConfig+0x4ac>)
 800384e:	f043 0301 	orr.w	r3, r3, #1
 8003852:	6713      	str	r3, [r2, #112]	; 0x70
 8003854:	e01c      	b.n	8003890 <HAL_RCC_OscConfig+0x358>
 8003856:	687b      	ldr	r3, [r7, #4]
 8003858:	689b      	ldr	r3, [r3, #8]
 800385a:	2b05      	cmp	r3, #5
 800385c:	d10c      	bne.n	8003878 <HAL_RCC_OscConfig+0x340>
 800385e:	4b61      	ldr	r3, [pc, #388]	; (80039e4 <HAL_RCC_OscConfig+0x4ac>)
 8003860:	6f1b      	ldr	r3, [r3, #112]	; 0x70
 8003862:	4a60      	ldr	r2, [pc, #384]	; (80039e4 <HAL_RCC_OscConfig+0x4ac>)
 8003864:	f043 0304 	orr.w	r3, r3, #4
 8003868:	6713      	str	r3, [r2, #112]	; 0x70
 800386a:	4b5e      	ldr	r3, [pc, #376]	; (80039e4 <HAL_RCC_OscConfig+0x4ac>)
 800386c:	6f1b      	ldr	r3, [r3, #112]	; 0x70
 800386e:	4a5d      	ldr	r2, [pc, #372]	; (80039e4 <HAL_RCC_OscConfig+0x4ac>)
 8003870:	f043 0301 	orr.w	r3, r3, #1
 8003874:	6713      	str	r3, [r2, #112]	; 0x70
 8003876:	e00b      	b.n	8003890 <HAL_RCC_OscConfig+0x358>
 8003878:	4b5a      	ldr	r3, [pc, #360]	; (80039e4 <HAL_RCC_OscConfig+0x4ac>)
 800387a:	6f1b      	ldr	r3, [r3, #112]	; 0x70
 800387c:	4a59      	ldr	r2, [pc, #356]	; (80039e4 <HAL_RCC_OscConfig+0x4ac>)
 800387e:	f023 0301 	bic.w	r3, r3, #1
 8003882:	6713      	str	r3, [r2, #112]	; 0x70
 8003884:	4b57      	ldr	r3, [pc, #348]	; (80039e4 <HAL_RCC_OscConfig+0x4ac>)
 8003886:	6f1b      	ldr	r3, [r3, #112]	; 0x70
 8003888:	4a56      	ldr	r2, [pc, #344]	; (80039e4 <HAL_RCC_OscConfig+0x4ac>)
 800388a:	f023 0304 	bic.w	r3, r3, #4
 800388e:	6713      	str	r3, [r2, #112]	; 0x70
    /* Check the LSE State */
    if((RCC_OscInitStruct->LSEState) != RCC_LSE_OFF)
 8003890:	687b      	ldr	r3, [r7, #4]
 8003892:	689b      	ldr	r3, [r3, #8]
 8003894:	2b00      	cmp	r3, #0
 8003896:	d015      	beq.n	80038c4 <HAL_RCC_OscConfig+0x38c>
    {
      /* Get Start Tick*/
      tickstart = HAL_GetTick();
 8003898:	f7fe f866 	bl	8001968 <HAL_GetTick>
 800389c:	6138      	str	r0, [r7, #16]

      /* Wait till LSE is ready */
      while(__HAL_RCC_GET_FLAG(RCC_FLAG_LSERDY) == RESET)
 800389e:	e00a      	b.n	80038b6 <HAL_RCC_OscConfig+0x37e>
      {
        if((HAL_GetTick() - tickstart ) > RCC_LSE_TIMEOUT_VALUE)
 80038a0:	f7fe f862 	bl	8001968 <HAL_GetTick>
 80038a4:	4602      	mov	r2, r0
 80038a6:	693b      	ldr	r3, [r7, #16]
 80038a8:	1ad3      	subs	r3, r2, r3
 80038aa:	f241 3288 	movw	r2, #5000	; 0x1388
 80038ae:	4293      	cmp	r3, r2
 80038b0:	d901      	bls.n	80038b6 <HAL_RCC_OscConfig+0x37e>
        {
          return HAL_TIMEOUT;
 80038b2:	2303      	movs	r3, #3
 80038b4:	e0d7      	b.n	8003a66 <HAL_RCC_OscConfig+0x52e>
      while(__HAL_RCC_GET_FLAG(RCC_FLAG_LSERDY) == RESET)
 80038b6:	4b4b      	ldr	r3, [pc, #300]	; (80039e4 <HAL_RCC_OscConfig+0x4ac>)
 80038b8:	6f1b      	ldr	r3, [r3, #112]	; 0x70
 80038ba:	f003 0302 	and.w	r3, r3, #2
 80038be:	2b00      	cmp	r3, #0
 80038c0:	d0ee      	beq.n	80038a0 <HAL_RCC_OscConfig+0x368>
 80038c2:	e014      	b.n	80038ee <HAL_RCC_OscConfig+0x3b6>
      }
    }
    else
    {
      /* Get Start Tick*/
      tickstart = HAL_GetTick();
 80038c4:	f7fe f850 	bl	8001968 <HAL_GetTick>
 80038c8:	6138      	str	r0, [r7, #16]

      /* Wait till LSE is ready */
      while(__HAL_RCC_GET_FLAG(RCC_FLAG_LSERDY) != RESET)
 80038ca:	e00a      	b.n	80038e2 <HAL_RCC_OscConfig+0x3aa>
      {
        if((HAL_GetTick() - tickstart ) > RCC_LSE_TIMEOUT_VALUE)
 80038cc:	f7fe f84c 	bl	8001968 <HAL_GetTick>
 80038d0:	4602      	mov	r2, r0
 80038d2:	693b      	ldr	r3, [r7, #16]
 80038d4:	1ad3      	subs	r3, r2, r3
 80038d6:	f241 3288 	movw	r2, #5000	; 0x1388
 80038da:	4293      	cmp	r3, r2
 80038dc:	d901      	bls.n	80038e2 <HAL_RCC_OscConfig+0x3aa>
        {
          return HAL_TIMEOUT;
 80038de:	2303      	movs	r3, #3
 80038e0:	e0c1      	b.n	8003a66 <HAL_RCC_OscConfig+0x52e>
      while(__HAL_RCC_GET_FLAG(RCC_FLAG_LSERDY) != RESET)
 80038e2:	4b40      	ldr	r3, [pc, #256]	; (80039e4 <HAL_RCC_OscConfig+0x4ac>)
 80038e4:	6f1b      	ldr	r3, [r3, #112]	; 0x70
 80038e6:	f003 0302 	and.w	r3, r3, #2
 80038ea:	2b00      	cmp	r3, #0
 80038ec:	d1ee      	bne.n	80038cc <HAL_RCC_OscConfig+0x394>
        }
      }
    }

    /* Restore clock configuration if changed */
    if(pwrclkchanged == SET)
 80038ee:	7dfb      	ldrb	r3, [r7, #23]
 80038f0:	2b01      	cmp	r3, #1
 80038f2:	d105      	bne.n	8003900 <HAL_RCC_OscConfig+0x3c8>
    {
      __HAL_RCC_PWR_CLK_DISABLE();
 80038f4:	4b3b      	ldr	r3, [pc, #236]	; (80039e4 <HAL_RCC_OscConfig+0x4ac>)
 80038f6:	6c1b      	ldr	r3, [r3, #64]	; 0x40
 80038f8:	4a3a      	ldr	r2, [pc, #232]	; (80039e4 <HAL_RCC_OscConfig+0x4ac>)
 80038fa:	f023 5380 	bic.w	r3, r3, #268435456	; 0x10000000
 80038fe:	6413      	str	r3, [r2, #64]	; 0x40
    }
  }
  /*-------------------------------- PLL Configuration -----------------------*/
  /* Check the parameters */
  assert_param(IS_RCC_PLL(RCC_OscInitStruct->PLL.PLLState));
  if ((RCC_OscInitStruct->PLL.PLLState) != RCC_PLL_NONE)
 8003900:	687b      	ldr	r3, [r7, #4]
 8003902:	699b      	ldr	r3, [r3, #24]
 8003904:	2b00      	cmp	r3, #0
 8003906:	f000 80ad 	beq.w	8003a64 <HAL_RCC_OscConfig+0x52c>
  {
    /* Check if the PLL is used as system clock or not */
    if(__HAL_RCC_GET_SYSCLK_SOURCE() != RCC_CFGR_SWS_PLL)
 800390a:	4b36      	ldr	r3, [pc, #216]	; (80039e4 <HAL_RCC_OscConfig+0x4ac>)
 800390c:	689b      	ldr	r3, [r3, #8]
 800390e:	f003 030c 	and.w	r3, r3, #12
 8003912:	2b08      	cmp	r3, #8
 8003914:	d060      	beq.n	80039d8 <HAL_RCC_OscConfig+0x4a0>
    {
      if((RCC_OscInitStruct->PLL.PLLState) == RCC_PLL_ON)
 8003916:	687b      	ldr	r3, [r7, #4]
 8003918:	699b      	ldr	r3, [r3, #24]
 800391a:	2b02      	cmp	r3, #2
 800391c:	d145      	bne.n	80039aa <HAL_RCC_OscConfig+0x472>
        assert_param(IS_RCC_PLLP_VALUE(RCC_OscInitStruct->PLL.PLLP));
        assert_param(IS_RCC_PLLQ_VALUE(RCC_OscInitStruct->PLL.PLLQ));
        assert_param(IS_RCC_PLLR_VALUE(RCC_OscInitStruct->PLL.PLLR));

        /* Disable the main PLL. */
        __HAL_RCC_PLL_DISABLE();
 800391e:	4b33      	ldr	r3, [pc, #204]	; (80039ec <HAL_RCC_OscConfig+0x4b4>)
 8003920:	2200      	movs	r2, #0
 8003922:	601a      	str	r2, [r3, #0]

        /* Get Start Tick*/
        tickstart = HAL_GetTick();
 8003924:	f7fe f820 	bl	8001968 <HAL_GetTick>
 8003928:	6138      	str	r0, [r7, #16]

        /* Wait till PLL is ready */
        while(__HAL_RCC_GET_FLAG(RCC_FLAG_PLLRDY) != RESET)
 800392a:	e008      	b.n	800393e <HAL_RCC_OscConfig+0x406>
        {
          if((HAL_GetTick() - tickstart ) > PLL_TIMEOUT_VALUE)
 800392c:	f7fe f81c 	bl	8001968 <HAL_GetTick>
 8003930:	4602      	mov	r2, r0
 8003932:	693b      	ldr	r3, [r7, #16]
 8003934:	1ad3      	subs	r3, r2, r3
 8003936:	2b02      	cmp	r3, #2
 8003938:	d901      	bls.n	800393e <HAL_RCC_OscConfig+0x406>
          {
            return HAL_TIMEOUT;
 800393a:	2303      	movs	r3, #3
 800393c:	e093      	b.n	8003a66 <HAL_RCC_OscConfig+0x52e>
        while(__HAL_RCC_GET_FLAG(RCC_FLAG_PLLRDY) != RESET)
 800393e:	4b29      	ldr	r3, [pc, #164]	; (80039e4 <HAL_RCC_OscConfig+0x4ac>)
 8003940:	681b      	ldr	r3, [r3, #0]
 8003942:	f003 7300 	and.w	r3, r3, #33554432	; 0x2000000
 8003946:	2b00      	cmp	r3, #0
 8003948:	d1f0      	bne.n	800392c <HAL_RCC_OscConfig+0x3f4>
          }
        }

        /* Configure the main PLL clock source, multiplication and division factors. */
        WRITE_REG(RCC->PLLCFGR, (RCC_OscInitStruct->PLL.PLLSource                                            | \
 800394a:	687b      	ldr	r3, [r7, #4]
 800394c:	69da      	ldr	r2, [r3, #28]
 800394e:	687b      	ldr	r3, [r7, #4]
 8003950:	6a1b      	ldr	r3, [r3, #32]
 8003952:	431a      	orrs	r2, r3
 8003954:	687b      	ldr	r3, [r7, #4]
 8003956:	6a5b      	ldr	r3, [r3, #36]	; 0x24
 8003958:	019b      	lsls	r3, r3, #6
 800395a:	431a      	orrs	r2, r3
 800395c:	687b      	ldr	r3, [r7, #4]
 800395e:	6a9b      	ldr	r3, [r3, #40]	; 0x28
 8003960:	085b      	lsrs	r3, r3, #1
 8003962:	3b01      	subs	r3, #1
 8003964:	041b      	lsls	r3, r3, #16
 8003966:	431a      	orrs	r2, r3
 8003968:	687b      	ldr	r3, [r7, #4]
 800396a:	6adb      	ldr	r3, [r3, #44]	; 0x2c
 800396c:	061b      	lsls	r3, r3, #24
 800396e:	431a      	orrs	r2, r3
 8003970:	687b      	ldr	r3, [r7, #4]
 8003972:	6b1b      	ldr	r3, [r3, #48]	; 0x30
 8003974:	071b      	lsls	r3, r3, #28
 8003976:	491b      	ldr	r1, [pc, #108]	; (80039e4 <HAL_RCC_OscConfig+0x4ac>)
 8003978:	4313      	orrs	r3, r2
 800397a:	604b      	str	r3, [r1, #4]
                                 (RCC_OscInitStruct->PLL.PLLN << RCC_PLLCFGR_PLLN_Pos)                       | \
                                 (((RCC_OscInitStruct->PLL.PLLP >> 1U) - 1U) << RCC_PLLCFGR_PLLP_Pos)        | \
                                 (RCC_OscInitStruct->PLL.PLLQ << RCC_PLLCFGR_PLLQ_Pos)                       | \
                                 (RCC_OscInitStruct->PLL.PLLR << RCC_PLLCFGR_PLLR_Pos)));
        /* Enable the main PLL. */
        __HAL_RCC_PLL_ENABLE();
 800397c:	4b1b      	ldr	r3, [pc, #108]	; (80039ec <HAL_RCC_OscConfig+0x4b4>)
 800397e:	2201      	movs	r2, #1
 8003980:	601a      	str	r2, [r3, #0]

        /* Get Start Tick*/
        tickstart = HAL_GetTick();
 8003982:	f7fd fff1 	bl	8001968 <HAL_GetTick>
 8003986:	6138      	str	r0, [r7, #16]

        /* Wait till PLL is ready */
        while(__HAL_RCC_GET_FLAG(RCC_FLAG_PLLRDY) == RESET)
 8003988:	e008      	b.n	800399c <HAL_RCC_OscConfig+0x464>
        {
          if((HAL_GetTick() - tickstart ) > PLL_TIMEOUT_VALUE)
 800398a:	f7fd ffed 	bl	8001968 <HAL_GetTick>
 800398e:	4602      	mov	r2, r0
 8003990:	693b      	ldr	r3, [r7, #16]
 8003992:	1ad3      	subs	r3, r2, r3
 8003994:	2b02      	cmp	r3, #2
 8003996:	d901      	bls.n	800399c <HAL_RCC_OscConfig+0x464>
          {
            return HAL_TIMEOUT;
 8003998:	2303      	movs	r3, #3
 800399a:	e064      	b.n	8003a66 <HAL_RCC_OscConfig+0x52e>
        while(__HAL_RCC_GET_FLAG(RCC_FLAG_PLLRDY) == RESET)
 800399c:	4b11      	ldr	r3, [pc, #68]	; (80039e4 <HAL_RCC_OscConfig+0x4ac>)
 800399e:	681b      	ldr	r3, [r3, #0]
 80039a0:	f003 7300 	and.w	r3, r3, #33554432	; 0x2000000
 80039a4:	2b00      	cmp	r3, #0
 80039a6:	d0f0      	beq.n	800398a <HAL_RCC_OscConfig+0x452>
 80039a8:	e05c      	b.n	8003a64 <HAL_RCC_OscConfig+0x52c>
        }
      }
      else
      {
        /* Disable the main PLL. */
        __HAL_RCC_PLL_DISABLE();
 80039aa:	4b10      	ldr	r3, [pc, #64]	; (80039ec <HAL_RCC_OscConfig+0x4b4>)
 80039ac:	2200      	movs	r2, #0
 80039ae:	601a      	str	r2, [r3, #0]

        /* Get Start Tick*/
        tickstart = HAL_GetTick();
 80039b0:	f7fd ffda 	bl	8001968 <HAL_GetTick>
 80039b4:	6138      	str	r0, [r7, #16]

        /* Wait till PLL is ready */
        while(__HAL_RCC_GET_FLAG(RCC_FLAG_PLLRDY) != RESET)
 80039b6:	e008      	b.n	80039ca <HAL_RCC_OscConfig+0x492>
        {
          if((HAL_GetTick() - tickstart ) > PLL_TIMEOUT_VALUE)
 80039b8:	f7fd ffd6 	bl	8001968 <HAL_GetTick>
 80039bc:	4602      	mov	r2, r0
 80039be:	693b      	ldr	r3, [r7, #16]
 80039c0:	1ad3      	subs	r3, r2, r3
 80039c2:	2b02      	cmp	r3, #2
 80039c4:	d901      	bls.n	80039ca <HAL_RCC_OscConfig+0x492>
          {
            return HAL_TIMEOUT;
 80039c6:	2303      	movs	r3, #3
 80039c8:	e04d      	b.n	8003a66 <HAL_RCC_OscConfig+0x52e>
        while(__HAL_RCC_GET_FLAG(RCC_FLAG_PLLRDY) != RESET)
 80039ca:	4b06      	ldr	r3, [pc, #24]	; (80039e4 <HAL_RCC_OscConfig+0x4ac>)
 80039cc:	681b      	ldr	r3, [r3, #0]
 80039ce:	f003 7300 	and.w	r3, r3, #33554432	; 0x2000000
 80039d2:	2b00      	cmp	r3, #0
 80039d4:	d1f0      	bne.n	80039b8 <HAL_RCC_OscConfig+0x480>
 80039d6:	e045      	b.n	8003a64 <HAL_RCC_OscConfig+0x52c>
      }
    }
    else
    {
      /* Check if there is a request to disable the PLL used as System clock source */
      if((RCC_OscInitStruct->PLL.PLLState) == RCC_PLL_OFF)
 80039d8:	687b      	ldr	r3, [r7, #4]
 80039da:	699b      	ldr	r3, [r3, #24]
 80039dc:	2b01      	cmp	r3, #1
 80039de:	d107      	bne.n	80039f0 <HAL_RCC_OscConfig+0x4b8>
      {
        return HAL_ERROR;
 80039e0:	2301      	movs	r3, #1
 80039e2:	e040      	b.n	8003a66 <HAL_RCC_OscConfig+0x52e>
 80039e4:	40023800 	.word	0x40023800
 80039e8:	40007000 	.word	0x40007000
 80039ec:	42470060 	.word	0x42470060
      }
      else
      {
        /* Do not return HAL_ERROR if request repeats the current configuration */
        pll_config = RCC->PLLCFGR;
 80039f0:	4b1f      	ldr	r3, [pc, #124]	; (8003a70 <HAL_RCC_OscConfig+0x538>)
 80039f2:	685b      	ldr	r3, [r3, #4]
 80039f4:	60fb      	str	r3, [r7, #12]
#if defined (RCC_PLLCFGR_PLLR)
        if (((RCC_OscInitStruct->PLL.PLLState) == RCC_PLL_OFF) ||
 80039f6:	687b      	ldr	r3, [r7, #4]
 80039f8:	699b      	ldr	r3, [r3, #24]
 80039fa:	2b01      	cmp	r3, #1
 80039fc:	d030      	beq.n	8003a60 <HAL_RCC_OscConfig+0x528>
            (READ_BIT(pll_config, RCC_PLLCFGR_PLLSRC) != RCC_OscInitStruct->PLL.PLLSource) ||
 80039fe:	68fb      	ldr	r3, [r7, #12]
 8003a00:	f403 0280 	and.w	r2, r3, #4194304	; 0x400000
 8003a04:	687b      	ldr	r3, [r7, #4]
 8003a06:	69db      	ldr	r3, [r3, #28]
        if (((RCC_OscInitStruct->PLL.PLLState) == RCC_PLL_OFF) ||
 8003a08:	429a      	cmp	r2, r3
 8003a0a:	d129      	bne.n	8003a60 <HAL_RCC_OscConfig+0x528>
            (READ_BIT(pll_config, RCC_PLLCFGR_PLLM) != (RCC_OscInitStruct->PLL.PLLM) << RCC_PLLCFGR_PLLM_Pos) ||
 8003a0c:	68fb      	ldr	r3, [r7, #12]
 8003a0e:	f003 023f 	and.w	r2, r3, #63	; 0x3f
 8003a12:	687b      	ldr	r3, [r7, #4]
 8003a14:	6a1b      	ldr	r3, [r3, #32]
            (READ_BIT(pll_config, RCC_PLLCFGR_PLLSRC) != RCC_OscInitStruct->PLL.PLLSource) ||
 8003a16:	429a      	cmp	r2, r3
 8003a18:	d122      	bne.n	8003a60 <HAL_RCC_OscConfig+0x528>
            (READ_BIT(pll_config, RCC_PLLCFGR_PLLN) != (RCC_OscInitStruct->PLL.PLLN) << RCC_PLLCFGR_PLLN_Pos) ||
 8003a1a:	68fa      	ldr	r2, [r7, #12]
 8003a1c:	f647 73c0 	movw	r3, #32704	; 0x7fc0
 8003a20:	4013      	ands	r3, r2
 8003a22:	687a      	ldr	r2, [r7, #4]
 8003a24:	6a52      	ldr	r2, [r2, #36]	; 0x24
 8003a26:	0192      	lsls	r2, r2, #6
            (READ_BIT(pll_config, RCC_PLLCFGR_PLLM) != (RCC_OscInitStruct->PLL.PLLM) << RCC_PLLCFGR_PLLM_Pos) ||
 8003a28:	4293      	cmp	r3, r2
 8003a2a:	d119      	bne.n	8003a60 <HAL_RCC_OscConfig+0x528>
            (READ_BIT(pll_config, RCC_PLLCFGR_PLLP) != (((RCC_OscInitStruct->PLL.PLLP >> 1U) - 1U)) << RCC_PLLCFGR_PLLP_Pos) ||
 8003a2c:	68fb      	ldr	r3, [r7, #12]
 8003a2e:	f403 3240 	and.w	r2, r3, #196608	; 0x30000
 8003a32:	687b      	ldr	r3, [r7, #4]
 8003a34:	6a9b      	ldr	r3, [r3, #40]	; 0x28
 8003a36:	085b      	lsrs	r3, r3, #1
 8003a38:	3b01      	subs	r3, #1
 8003a3a:	041b      	lsls	r3, r3, #16
            (READ_BIT(pll_config, RCC_PLLCFGR_PLLN) != (RCC_OscInitStruct->PLL.PLLN) << RCC_PLLCFGR_PLLN_Pos) ||
 8003a3c:	429a      	cmp	r2, r3
 8003a3e:	d10f      	bne.n	8003a60 <HAL_RCC_OscConfig+0x528>
            (READ_BIT(pll_config, RCC_PLLCFGR_PLLQ) != (RCC_OscInitStruct->PLL.PLLQ << RCC_PLLCFGR_PLLQ_Pos)) ||
 8003a40:	68fb      	ldr	r3, [r7, #12]
 8003a42:	f003 6270 	and.w	r2, r3, #251658240	; 0xf000000
 8003a46:	687b      	ldr	r3, [r7, #4]
 8003a48:	6adb      	ldr	r3, [r3, #44]	; 0x2c
 8003a4a:	061b      	lsls	r3, r3, #24
            (READ_BIT(pll_config, RCC_PLLCFGR_PLLP) != (((RCC_OscInitStruct->PLL.PLLP >> 1U) - 1U)) << RCC_PLLCFGR_PLLP_Pos) ||
 8003a4c:	429a      	cmp	r2, r3
 8003a4e:	d107      	bne.n	8003a60 <HAL_RCC_OscConfig+0x528>
            (READ_BIT(pll_config, RCC_PLLCFGR_PLLR) != (RCC_OscInitStruct->PLL.PLLR << RCC_PLLCFGR_PLLR_Pos)))
 8003a50:	68fb      	ldr	r3, [r7, #12]
 8003a52:	f003 42e0 	and.w	r2, r3, #1879048192	; 0x70000000
 8003a56:	687b      	ldr	r3, [r7, #4]
 8003a58:	6b1b      	ldr	r3, [r3, #48]	; 0x30
 8003a5a:	071b      	lsls	r3, r3, #28
            (READ_BIT(pll_config, RCC_PLLCFGR_PLLQ) != (RCC_OscInitStruct->PLL.PLLQ << RCC_PLLCFGR_PLLQ_Pos)) ||
 8003a5c:	429a      	cmp	r2, r3
 8003a5e:	d001      	beq.n	8003a64 <HAL_RCC_OscConfig+0x52c>
            (READ_BIT(pll_config, RCC_PLLCFGR_PLLN) != (RCC_OscInitStruct->PLL.PLLN) << RCC_PLLCFGR_PLLN_Pos) ||
            (READ_BIT(pll_config, RCC_PLLCFGR_PLLP) != (((RCC_OscInitStruct->PLL.PLLP >> 1U) - 1U)) << RCC_PLLCFGR_PLLP_Pos) ||
            (READ_BIT(pll_config, RCC_PLLCFGR_PLLQ) != (RCC_OscInitStruct->PLL.PLLQ << RCC_PLLCFGR_PLLQ_Pos)))
#endif
        {
          return HAL_ERROR;
 8003a60:	2301      	movs	r3, #1
 8003a62:	e000      	b.n	8003a66 <HAL_RCC_OscConfig+0x52e>
        }
      }
    }
  }
  return HAL_OK;
 8003a64:	2300      	movs	r3, #0
}
 8003a66:	4618      	mov	r0, r3
 8003a68:	3718      	adds	r7, #24
 8003a6a:	46bd      	mov	sp, r7
 8003a6c:	bd80      	pop	{r7, pc}
 8003a6e:	bf00      	nop
 8003a70:	40023800 	.word	0x40023800

08003a74 <HAL_UART_Init>:
  * @param  huart  Pointer to a UART_HandleTypeDef structure that contains
  *                the configuration information for the specified UART module.
  * @retval HAL status
  */
HAL_StatusTypeDef HAL_UART_Init(UART_HandleTypeDef *huart)
{
 8003a74:	b580      	push	{r7, lr}
 8003a76:	b082      	sub	sp, #8
 8003a78:	af00      	add	r7, sp, #0
 8003a7a:	6078      	str	r0, [r7, #4]
  /* Check the UART handle allocation */
  if (huart == NULL)
 8003a7c:	687b      	ldr	r3, [r7, #4]
 8003a7e:	2b00      	cmp	r3, #0
 8003a80:	d101      	bne.n	8003a86 <HAL_UART_Init+0x12>
  {
    return HAL_ERROR;
 8003a82:	2301      	movs	r3, #1
 8003a84:	e03f      	b.n	8003b06 <HAL_UART_Init+0x92>
    assert_param(IS_UART_INSTANCE(huart->Instance));
  }
  assert_param(IS_UART_WORD_LENGTH(huart->Init.WordLength));
  assert_param(IS_UART_OVERSAMPLING(huart->Init.OverSampling));

  if (huart->gState == HAL_UART_STATE_RESET)
 8003a86:	687b      	ldr	r3, [r7, #4]
 8003a88:	f893 303d 	ldrb.w	r3, [r3, #61]	; 0x3d
 8003a8c:	b2db      	uxtb	r3, r3
 8003a8e:	2b00      	cmp	r3, #0
 8003a90:	d106      	bne.n	8003aa0 <HAL_UART_Init+0x2c>
  {
    /* Allocate lock resource and initialize it */
    huart->Lock = HAL_UNLOCKED;
 8003a92:	687b      	ldr	r3, [r7, #4]
 8003a94:	2200      	movs	r2, #0
 8003a96:	f883 203c 	strb.w	r2, [r3, #60]	; 0x3c

    /* Init the low level hardware */
    huart->MspInitCallback(huart);
#else
    /* Init the low level hardware : GPIO, CLOCK */
    HAL_UART_MspInit(huart);
 8003a9a:	6878      	ldr	r0, [r7, #4]
 8003a9c:	f7fd fd00 	bl	80014a0 <HAL_UART_MspInit>
#endif /* (USE_HAL_UART_REGISTER_CALLBACKS) */
  }

  huart->gState = HAL_UART_STATE_BUSY;
 8003aa0:	687b      	ldr	r3, [r7, #4]
 8003aa2:	2224      	movs	r2, #36	; 0x24
 8003aa4:	f883 203d 	strb.w	r2, [r3, #61]	; 0x3d

  /* Disable the peripheral */
  __HAL_UART_DISABLE(huart);
 8003aa8:	687b      	ldr	r3, [r7, #4]
 8003aaa:	681b      	ldr	r3, [r3, #0]
 8003aac:	68da      	ldr	r2, [r3, #12]
 8003aae:	687b      	ldr	r3, [r7, #4]
 8003ab0:	681b      	ldr	r3, [r3, #0]
 8003ab2:	f422 5200 	bic.w	r2, r2, #8192	; 0x2000
 8003ab6:	60da      	str	r2, [r3, #12]

  /* Set the UART Communication parameters */
  UART_SetConfig(huart);
 8003ab8:	6878      	ldr	r0, [r7, #4]
 8003aba:	f000 fe23 	bl	8004704 <UART_SetConfig>

  /* In asynchronous mode, the following bits must be kept cleared:
     - LINEN and CLKEN bits in the USART_CR2 register,
     - SCEN, HDSEL and IREN  bits in the USART_CR3 register.*/
  CLEAR_BIT(huart->Instance->CR2, (USART_CR2_LINEN | USART_CR2_CLKEN));
 8003abe:	687b      	ldr	r3, [r7, #4]
 8003ac0:	681b      	ldr	r3, [r3, #0]
 8003ac2:	691a      	ldr	r2, [r3, #16]
 8003ac4:	687b      	ldr	r3, [r7, #4]
 8003ac6:	681b      	ldr	r3, [r3, #0]
 8003ac8:	f422 4290 	bic.w	r2, r2, #18432	; 0x4800
 8003acc:	611a      	str	r2, [r3, #16]
  CLEAR_BIT(huart->Instance->CR3, (USART_CR3_SCEN | USART_CR3_HDSEL | USART_CR3_IREN));
 8003ace:	687b      	ldr	r3, [r7, #4]
 8003ad0:	681b      	ldr	r3, [r3, #0]
 8003ad2:	695a      	ldr	r2, [r3, #20]
 8003ad4:	687b      	ldr	r3, [r7, #4]
 8003ad6:	681b      	ldr	r3, [r3, #0]
 8003ad8:	f022 022a 	bic.w	r2, r2, #42	; 0x2a
 8003adc:	615a      	str	r2, [r3, #20]

  /* Enable the peripheral */
  __HAL_UART_ENABLE(huart);
 8003ade:	687b      	ldr	r3, [r7, #4]
 8003ae0:	681b      	ldr	r3, [r3, #0]
 8003ae2:	68da      	ldr	r2, [r3, #12]
 8003ae4:	687b      	ldr	r3, [r7, #4]
 8003ae6:	681b      	ldr	r3, [r3, #0]
 8003ae8:	f442 5200 	orr.w	r2, r2, #8192	; 0x2000
 8003aec:	60da      	str	r2, [r3, #12]

  /* Initialize the UART state */
  huart->ErrorCode = HAL_UART_ERROR_NONE;
 8003aee:	687b      	ldr	r3, [r7, #4]
 8003af0:	2200      	movs	r2, #0
 8003af2:	641a      	str	r2, [r3, #64]	; 0x40
  huart->gState = HAL_UART_STATE_READY;
 8003af4:	687b      	ldr	r3, [r7, #4]
 8003af6:	2220      	movs	r2, #32
 8003af8:	f883 203d 	strb.w	r2, [r3, #61]	; 0x3d
  huart->RxState = HAL_UART_STATE_READY;
 8003afc:	687b      	ldr	r3, [r7, #4]
 8003afe:	2220      	movs	r2, #32
 8003b00:	f883 203e 	strb.w	r2, [r3, #62]	; 0x3e

  return HAL_OK;
 8003b04:	2300      	movs	r3, #0
}
 8003b06:	4618      	mov	r0, r3
 8003b08:	3708      	adds	r7, #8
 8003b0a:	46bd      	mov	sp, r7
 8003b0c:	bd80      	pop	{r7, pc}

08003b0e <HAL_UART_Transmit>:
  * @param  Size  Amount of data elements (u8 or u16) to be sent
  * @param  Timeout Timeout duration
  * @retval HAL status
  */
HAL_StatusTypeDef HAL_UART_Transmit(UART_HandleTypeDef *huart, uint8_t *pData, uint16_t Size, uint32_t Timeout)
{
 8003b0e:	b580      	push	{r7, lr}
 8003b10:	b08a      	sub	sp, #40	; 0x28
 8003b12:	af02      	add	r7, sp, #8
 8003b14:	60f8      	str	r0, [r7, #12]
 8003b16:	60b9      	str	r1, [r7, #8]
 8003b18:	603b      	str	r3, [r7, #0]
 8003b1a:	4613      	mov	r3, r2
 8003b1c:	80fb      	strh	r3, [r7, #6]
  uint8_t  *pdata8bits;
  uint16_t *pdata16bits;
  uint32_t tickstart = 0U;
 8003b1e:	2300      	movs	r3, #0
 8003b20:	617b      	str	r3, [r7, #20]

  /* Check that a Tx process is not already ongoing */
  if (huart->gState == HAL_UART_STATE_READY)
 8003b22:	68fb      	ldr	r3, [r7, #12]
 8003b24:	f893 303d 	ldrb.w	r3, [r3, #61]	; 0x3d
 8003b28:	b2db      	uxtb	r3, r3
 8003b2a:	2b20      	cmp	r3, #32
 8003b2c:	d17c      	bne.n	8003c28 <HAL_UART_Transmit+0x11a>
  {
    if ((pData == NULL) || (Size == 0U))
 8003b2e:	68bb      	ldr	r3, [r7, #8]
 8003b30:	2b00      	cmp	r3, #0
 8003b32:	d002      	beq.n	8003b3a <HAL_UART_Transmit+0x2c>
 8003b34:	88fb      	ldrh	r3, [r7, #6]
 8003b36:	2b00      	cmp	r3, #0
 8003b38:	d101      	bne.n	8003b3e <HAL_UART_Transmit+0x30>
    {
      return  HAL_ERROR;
 8003b3a:	2301      	movs	r3, #1
 8003b3c:	e075      	b.n	8003c2a <HAL_UART_Transmit+0x11c>
    }

    /* Process Locked */
    __HAL_LOCK(huart);
 8003b3e:	68fb      	ldr	r3, [r7, #12]
 8003b40:	f893 303c 	ldrb.w	r3, [r3, #60]	; 0x3c
 8003b44:	2b01      	cmp	r3, #1
 8003b46:	d101      	bne.n	8003b4c <HAL_UART_Transmit+0x3e>
 8003b48:	2302      	movs	r3, #2
 8003b4a:	e06e      	b.n	8003c2a <HAL_UART_Transmit+0x11c>
 8003b4c:	68fb      	ldr	r3, [r7, #12]
 8003b4e:	2201      	movs	r2, #1
 8003b50:	f883 203c 	strb.w	r2, [r3, #60]	; 0x3c

    huart->ErrorCode = HAL_UART_ERROR_NONE;
 8003b54:	68fb      	ldr	r3, [r7, #12]
 8003b56:	2200      	movs	r2, #0
 8003b58:	641a      	str	r2, [r3, #64]	; 0x40
    huart->gState = HAL_UART_STATE_BUSY_TX;
 8003b5a:	68fb      	ldr	r3, [r7, #12]
 8003b5c:	2221      	movs	r2, #33	; 0x21
 8003b5e:	f883 203d 	strb.w	r2, [r3, #61]	; 0x3d

    /* Init tickstart for timeout management */
    tickstart = HAL_GetTick();
 8003b62:	f7fd ff01 	bl	8001968 <HAL_GetTick>
 8003b66:	6178      	str	r0, [r7, #20]

    huart->TxXferSize = Size;
 8003b68:	68fb      	ldr	r3, [r7, #12]
 8003b6a:	88fa      	ldrh	r2, [r7, #6]
 8003b6c:	849a      	strh	r2, [r3, #36]	; 0x24
    huart->TxXferCount = Size;
 8003b6e:	68fb      	ldr	r3, [r7, #12]
 8003b70:	88fa      	ldrh	r2, [r7, #6]
 8003b72:	84da      	strh	r2, [r3, #38]	; 0x26

    /* In case of 9bits/No Parity transfer, pData needs to be handled as a uint16_t pointer */
    if ((huart->Init.WordLength == UART_WORDLENGTH_9B) && (huart->Init.Parity == UART_PARITY_NONE))
 8003b74:	68fb      	ldr	r3, [r7, #12]
 8003b76:	689b      	ldr	r3, [r3, #8]
 8003b78:	f5b3 5f80 	cmp.w	r3, #4096	; 0x1000
 8003b7c:	d108      	bne.n	8003b90 <HAL_UART_Transmit+0x82>
 8003b7e:	68fb      	ldr	r3, [r7, #12]
 8003b80:	691b      	ldr	r3, [r3, #16]
 8003b82:	2b00      	cmp	r3, #0
 8003b84:	d104      	bne.n	8003b90 <HAL_UART_Transmit+0x82>
    {
      pdata8bits  = NULL;
 8003b86:	2300      	movs	r3, #0
 8003b88:	61fb      	str	r3, [r7, #28]
      pdata16bits = (uint16_t *) pData;
 8003b8a:	68bb      	ldr	r3, [r7, #8]
 8003b8c:	61bb      	str	r3, [r7, #24]
 8003b8e:	e003      	b.n	8003b98 <HAL_UART_Transmit+0x8a>
    }
    else
    {
      pdata8bits  = pData;
 8003b90:	68bb      	ldr	r3, [r7, #8]
 8003b92:	61fb      	str	r3, [r7, #28]
      pdata16bits = NULL;
 8003b94:	2300      	movs	r3, #0
 8003b96:	61bb      	str	r3, [r7, #24]
    }

    /* Process Unlocked */
    __HAL_UNLOCK(huart);
 8003b98:	68fb      	ldr	r3, [r7, #12]
 8003b9a:	2200      	movs	r2, #0
 8003b9c:	f883 203c 	strb.w	r2, [r3, #60]	; 0x3c

    while (huart->TxXferCount > 0U)
 8003ba0:	e02a      	b.n	8003bf8 <HAL_UART_Transmit+0xea>
    {
      if (UART_WaitOnFlagUntilTimeout(huart, UART_FLAG_TXE, RESET, tickstart, Timeout) != HAL_OK)
 8003ba2:	683b      	ldr	r3, [r7, #0]
 8003ba4:	9300      	str	r3, [sp, #0]
 8003ba6:	697b      	ldr	r3, [r7, #20]
 8003ba8:	2200      	movs	r2, #0
 8003baa:	2180      	movs	r1, #128	; 0x80
 8003bac:	68f8      	ldr	r0, [r7, #12]
 8003bae:	f000 fba4 	bl	80042fa <UART_WaitOnFlagUntilTimeout>
 8003bb2:	4603      	mov	r3, r0
 8003bb4:	2b00      	cmp	r3, #0
 8003bb6:	d001      	beq.n	8003bbc <HAL_UART_Transmit+0xae>
      {
        return HAL_TIMEOUT;
 8003bb8:	2303      	movs	r3, #3
 8003bba:	e036      	b.n	8003c2a <HAL_UART_Transmit+0x11c>
      }
      if (pdata8bits == NULL)
 8003bbc:	69fb      	ldr	r3, [r7, #28]
 8003bbe:	2b00      	cmp	r3, #0
 8003bc0:	d10b      	bne.n	8003bda <HAL_UART_Transmit+0xcc>
      {
        huart->Instance->DR = (uint16_t)(*pdata16bits & 0x01FFU);
 8003bc2:	69bb      	ldr	r3, [r7, #24]
 8003bc4:	881b      	ldrh	r3, [r3, #0]
 8003bc6:	461a      	mov	r2, r3
 8003bc8:	68fb      	ldr	r3, [r7, #12]
 8003bca:	681b      	ldr	r3, [r3, #0]
 8003bcc:	f3c2 0208 	ubfx	r2, r2, #0, #9
 8003bd0:	605a      	str	r2, [r3, #4]
        pdata16bits++;
 8003bd2:	69bb      	ldr	r3, [r7, #24]
 8003bd4:	3302      	adds	r3, #2
 8003bd6:	61bb      	str	r3, [r7, #24]
 8003bd8:	e007      	b.n	8003bea <HAL_UART_Transmit+0xdc>
      }
      else
      {
        huart->Instance->DR = (uint8_t)(*pdata8bits & 0xFFU);
 8003bda:	69fb      	ldr	r3, [r7, #28]
 8003bdc:	781a      	ldrb	r2, [r3, #0]
 8003bde:	68fb      	ldr	r3, [r7, #12]
 8003be0:	681b      	ldr	r3, [r3, #0]
 8003be2:	605a      	str	r2, [r3, #4]
        pdata8bits++;
 8003be4:	69fb      	ldr	r3, [r7, #28]
 8003be6:	3301      	adds	r3, #1
 8003be8:	61fb      	str	r3, [r7, #28]
      }
      huart->TxXferCount--;
 8003bea:	68fb      	ldr	r3, [r7, #12]
 8003bec:	8cdb      	ldrh	r3, [r3, #38]	; 0x26
 8003bee:	b29b      	uxth	r3, r3
 8003bf0:	3b01      	subs	r3, #1
 8003bf2:	b29a      	uxth	r2, r3
 8003bf4:	68fb      	ldr	r3, [r7, #12]
 8003bf6:	84da      	strh	r2, [r3, #38]	; 0x26
    while (huart->TxXferCount > 0U)
 8003bf8:	68fb      	ldr	r3, [r7, #12]
 8003bfa:	8cdb      	ldrh	r3, [r3, #38]	; 0x26
 8003bfc:	b29b      	uxth	r3, r3
 8003bfe:	2b00      	cmp	r3, #0
 8003c00:	d1cf      	bne.n	8003ba2 <HAL_UART_Transmit+0x94>
    }

    if (UART_WaitOnFlagUntilTimeout(huart, UART_FLAG_TC, RESET, tickstart, Timeout) != HAL_OK)
 8003c02:	683b      	ldr	r3, [r7, #0]
 8003c04:	9300      	str	r3, [sp, #0]
 8003c06:	697b      	ldr	r3, [r7, #20]
 8003c08:	2200      	movs	r2, #0
 8003c0a:	2140      	movs	r1, #64	; 0x40
 8003c0c:	68f8      	ldr	r0, [r7, #12]
 8003c0e:	f000 fb74 	bl	80042fa <UART_WaitOnFlagUntilTimeout>
 8003c12:	4603      	mov	r3, r0
 8003c14:	2b00      	cmp	r3, #0
 8003c16:	d001      	beq.n	8003c1c <HAL_UART_Transmit+0x10e>
    {
      return HAL_TIMEOUT;
 8003c18:	2303      	movs	r3, #3
 8003c1a:	e006      	b.n	8003c2a <HAL_UART_Transmit+0x11c>
    }

    /* At end of Tx process, restore huart->gState to Ready */
    huart->gState = HAL_UART_STATE_READY;
 8003c1c:	68fb      	ldr	r3, [r7, #12]
 8003c1e:	2220      	movs	r2, #32
 8003c20:	f883 203d 	strb.w	r2, [r3, #61]	; 0x3d

    return HAL_OK;
 8003c24:	2300      	movs	r3, #0
 8003c26:	e000      	b.n	8003c2a <HAL_UART_Transmit+0x11c>
  }
  else
  {
    return HAL_BUSY;
 8003c28:	2302      	movs	r3, #2
  }
}
 8003c2a:	4618      	mov	r0, r3
 8003c2c:	3720      	adds	r7, #32
 8003c2e:	46bd      	mov	sp, r7
 8003c30:	bd80      	pop	{r7, pc}
	...

08003c34 <HAL_UART_Transmit_DMA>:
  * @param  pData Pointer to data buffer (u8 or u16 data elements).
  * @param  Size  Amount of data elements (u8 or u16) to be sent
  * @retval HAL status
  */
HAL_StatusTypeDef HAL_UART_Transmit_DMA(UART_HandleTypeDef *huart, uint8_t *pData, uint16_t Size)
{
 8003c34:	b580      	push	{r7, lr}
 8003c36:	b086      	sub	sp, #24
 8003c38:	af00      	add	r7, sp, #0
 8003c3a:	60f8      	str	r0, [r7, #12]
 8003c3c:	60b9      	str	r1, [r7, #8]
 8003c3e:	4613      	mov	r3, r2
 8003c40:	80fb      	strh	r3, [r7, #6]
  uint32_t *tmp;

  /* Check that a Tx process is not already ongoing */
  if (huart->gState == HAL_UART_STATE_READY)
 8003c42:	68fb      	ldr	r3, [r7, #12]
 8003c44:	f893 303d 	ldrb.w	r3, [r3, #61]	; 0x3d
 8003c48:	b2db      	uxtb	r3, r3
 8003c4a:	2b20      	cmp	r3, #32
 8003c4c:	d153      	bne.n	8003cf6 <HAL_UART_Transmit_DMA+0xc2>
  {
    if ((pData == NULL) || (Size == 0U))
 8003c4e:	68bb      	ldr	r3, [r7, #8]
 8003c50:	2b00      	cmp	r3, #0
 8003c52:	d002      	beq.n	8003c5a <HAL_UART_Transmit_DMA+0x26>
 8003c54:	88fb      	ldrh	r3, [r7, #6]
 8003c56:	2b00      	cmp	r3, #0
 8003c58:	d101      	bne.n	8003c5e <HAL_UART_Transmit_DMA+0x2a>
    {
      return HAL_ERROR;
 8003c5a:	2301      	movs	r3, #1
 8003c5c:	e04c      	b.n	8003cf8 <HAL_UART_Transmit_DMA+0xc4>
    }

    /* Process Locked */
    __HAL_LOCK(huart);
 8003c5e:	68fb      	ldr	r3, [r7, #12]
 8003c60:	f893 303c 	ldrb.w	r3, [r3, #60]	; 0x3c
 8003c64:	2b01      	cmp	r3, #1
 8003c66:	d101      	bne.n	8003c6c <HAL_UART_Transmit_DMA+0x38>
 8003c68:	2302      	movs	r3, #2
 8003c6a:	e045      	b.n	8003cf8 <HAL_UART_Transmit_DMA+0xc4>
 8003c6c:	68fb      	ldr	r3, [r7, #12]
 8003c6e:	2201      	movs	r2, #1
 8003c70:	f883 203c 	strb.w	r2, [r3, #60]	; 0x3c

    huart->pTxBuffPtr = pData;
 8003c74:	68ba      	ldr	r2, [r7, #8]
 8003c76:	68fb      	ldr	r3, [r7, #12]
 8003c78:	621a      	str	r2, [r3, #32]
    huart->TxXferSize = Size;
 8003c7a:	68fb      	ldr	r3, [r7, #12]
 8003c7c:	88fa      	ldrh	r2, [r7, #6]
 8003c7e:	849a      	strh	r2, [r3, #36]	; 0x24
    huart->TxXferCount = Size;
 8003c80:	68fb      	ldr	r3, [r7, #12]
 8003c82:	88fa      	ldrh	r2, [r7, #6]
 8003c84:	84da      	strh	r2, [r3, #38]	; 0x26

    huart->ErrorCode = HAL_UART_ERROR_NONE;
 8003c86:	68fb      	ldr	r3, [r7, #12]
 8003c88:	2200      	movs	r2, #0
 8003c8a:	641a      	str	r2, [r3, #64]	; 0x40
    huart->gState = HAL_UART_STATE_BUSY_TX;
 8003c8c:	68fb      	ldr	r3, [r7, #12]
 8003c8e:	2221      	movs	r2, #33	; 0x21
 8003c90:	f883 203d 	strb.w	r2, [r3, #61]	; 0x3d

    /* Set the UART DMA transfer complete callback */
    huart->hdmatx->XferCpltCallback = UART_DMATransmitCplt;
 8003c94:	68fb      	ldr	r3, [r7, #12]
 8003c96:	6b5b      	ldr	r3, [r3, #52]	; 0x34
 8003c98:	4a19      	ldr	r2, [pc, #100]	; (8003d00 <HAL_UART_Transmit_DMA+0xcc>)
 8003c9a:	63da      	str	r2, [r3, #60]	; 0x3c

    /* Set the UART DMA Half transfer complete callback */
    huart->hdmatx->XferHalfCpltCallback = UART_DMATxHalfCplt;
 8003c9c:	68fb      	ldr	r3, [r7, #12]
 8003c9e:	6b5b      	ldr	r3, [r3, #52]	; 0x34
 8003ca0:	4a18      	ldr	r2, [pc, #96]	; (8003d04 <HAL_UART_Transmit_DMA+0xd0>)
 8003ca2:	641a      	str	r2, [r3, #64]	; 0x40

    /* Set the DMA error callback */
    huart->hdmatx->XferErrorCallback = UART_DMAError;
 8003ca4:	68fb      	ldr	r3, [r7, #12]
 8003ca6:	6b5b      	ldr	r3, [r3, #52]	; 0x34
 8003ca8:	4a17      	ldr	r2, [pc, #92]	; (8003d08 <HAL_UART_Transmit_DMA+0xd4>)
 8003caa:	64da      	str	r2, [r3, #76]	; 0x4c

    /* Set the DMA abort callback */
    huart->hdmatx->XferAbortCallback = NULL;
 8003cac:	68fb      	ldr	r3, [r7, #12]
 8003cae:	6b5b      	ldr	r3, [r3, #52]	; 0x34
 8003cb0:	2200      	movs	r2, #0
 8003cb2:	651a      	str	r2, [r3, #80]	; 0x50

    /* Enable the UART transmit DMA stream */
    tmp = (uint32_t *)&pData;
 8003cb4:	f107 0308 	add.w	r3, r7, #8
 8003cb8:	617b      	str	r3, [r7, #20]
    HAL_DMA_Start_IT(huart->hdmatx, *(uint32_t *)tmp, (uint32_t)&huart->Instance->DR, Size);
 8003cba:	68fb      	ldr	r3, [r7, #12]
 8003cbc:	6b58      	ldr	r0, [r3, #52]	; 0x34
 8003cbe:	697b      	ldr	r3, [r7, #20]
 8003cc0:	6819      	ldr	r1, [r3, #0]
 8003cc2:	68fb      	ldr	r3, [r7, #12]
 8003cc4:	681b      	ldr	r3, [r3, #0]
 8003cc6:	3304      	adds	r3, #4
 8003cc8:	461a      	mov	r2, r3
 8003cca:	88fb      	ldrh	r3, [r7, #6]
 8003ccc:	f7fe fc4c 	bl	8002568 <HAL_DMA_Start_IT>

    /* Clear the TC flag in the SR register by writing 0 to it */
    __HAL_UART_CLEAR_FLAG(huart, UART_FLAG_TC);
 8003cd0:	68fb      	ldr	r3, [r7, #12]
 8003cd2:	681b      	ldr	r3, [r3, #0]
 8003cd4:	f06f 0240 	mvn.w	r2, #64	; 0x40
 8003cd8:	601a      	str	r2, [r3, #0]

    /* Process Unlocked */
    __HAL_UNLOCK(huart);
 8003cda:	68fb      	ldr	r3, [r7, #12]
 8003cdc:	2200      	movs	r2, #0
 8003cde:	f883 203c 	strb.w	r2, [r3, #60]	; 0x3c

    /* Enable the DMA transfer for transmit request by setting the DMAT bit
       in the UART CR3 register */
    SET_BIT(huart->Instance->CR3, USART_CR3_DMAT);
 8003ce2:	68fb      	ldr	r3, [r7, #12]
 8003ce4:	681b      	ldr	r3, [r3, #0]
 8003ce6:	695a      	ldr	r2, [r3, #20]
 8003ce8:	68fb      	ldr	r3, [r7, #12]
 8003cea:	681b      	ldr	r3, [r3, #0]
 8003cec:	f042 0280 	orr.w	r2, r2, #128	; 0x80
 8003cf0:	615a      	str	r2, [r3, #20]

    return HAL_OK;
 8003cf2:	2300      	movs	r3, #0
 8003cf4:	e000      	b.n	8003cf8 <HAL_UART_Transmit_DMA+0xc4>
  }
  else
  {
    return HAL_BUSY;
 8003cf6:	2302      	movs	r3, #2
  }
}
 8003cf8:	4618      	mov	r0, r3
 8003cfa:	3718      	adds	r7, #24
 8003cfc:	46bd      	mov	sp, r7
 8003cfe:	bd80      	pop	{r7, pc}
 8003d00:	0800412d 	.word	0x0800412d
 8003d04:	0800417f 	.word	0x0800417f
 8003d08:	08004267 	.word	0x08004267

08003d0c <HAL_UART_Receive_DMA>:
  * @param  Size  Amount of data elements (u8 or u16) to be received.
  * @note   When the UART parity is enabled (PCE = 1) the received data contains the parity bit.
  * @retval HAL status
  */
HAL_StatusTypeDef HAL_UART_Receive_DMA(UART_HandleTypeDef *huart, uint8_t *pData, uint16_t Size)
{
 8003d0c:	b580      	push	{r7, lr}
 8003d0e:	b084      	sub	sp, #16
 8003d10:	af00      	add	r7, sp, #0
 8003d12:	60f8      	str	r0, [r7, #12]
 8003d14:	60b9      	str	r1, [r7, #8]
 8003d16:	4613      	mov	r3, r2
 8003d18:	80fb      	strh	r3, [r7, #6]
  /* Check that a Rx process is not already ongoing */
  if (huart->RxState == HAL_UART_STATE_READY)
 8003d1a:	68fb      	ldr	r3, [r7, #12]
 8003d1c:	f893 303e 	ldrb.w	r3, [r3, #62]	; 0x3e
 8003d20:	b2db      	uxtb	r3, r3
 8003d22:	2b20      	cmp	r3, #32
 8003d24:	d11d      	bne.n	8003d62 <HAL_UART_Receive_DMA+0x56>
  {
    if ((pData == NULL) || (Size == 0U))
 8003d26:	68bb      	ldr	r3, [r7, #8]
 8003d28:	2b00      	cmp	r3, #0
 8003d2a:	d002      	beq.n	8003d32 <HAL_UART_Receive_DMA+0x26>
 8003d2c:	88fb      	ldrh	r3, [r7, #6]
 8003d2e:	2b00      	cmp	r3, #0
 8003d30:	d101      	bne.n	8003d36 <HAL_UART_Receive_DMA+0x2a>
    {
      return HAL_ERROR;
 8003d32:	2301      	movs	r3, #1
 8003d34:	e016      	b.n	8003d64 <HAL_UART_Receive_DMA+0x58>
    }

    /* Process Locked */
    __HAL_LOCK(huart);
 8003d36:	68fb      	ldr	r3, [r7, #12]
 8003d38:	f893 303c 	ldrb.w	r3, [r3, #60]	; 0x3c
 8003d3c:	2b01      	cmp	r3, #1
 8003d3e:	d101      	bne.n	8003d44 <HAL_UART_Receive_DMA+0x38>
 8003d40:	2302      	movs	r3, #2
 8003d42:	e00f      	b.n	8003d64 <HAL_UART_Receive_DMA+0x58>
 8003d44:	68fb      	ldr	r3, [r7, #12]
 8003d46:	2201      	movs	r2, #1
 8003d48:	f883 203c 	strb.w	r2, [r3, #60]	; 0x3c

    /* Set Reception type to Standard reception */
    huart->ReceptionType = HAL_UART_RECEPTION_STANDARD;
 8003d4c:	68fb      	ldr	r3, [r7, #12]
 8003d4e:	2200      	movs	r2, #0
 8003d50:	631a      	str	r2, [r3, #48]	; 0x30

    return(UART_Start_Receive_DMA(huart, pData, Size));
 8003d52:	88fb      	ldrh	r3, [r7, #6]
 8003d54:	461a      	mov	r2, r3
 8003d56:	68b9      	ldr	r1, [r7, #8]
 8003d58:	68f8      	ldr	r0, [r7, #12]
 8003d5a:	f000 fb19 	bl	8004390 <UART_Start_Receive_DMA>
 8003d5e:	4603      	mov	r3, r0
 8003d60:	e000      	b.n	8003d64 <HAL_UART_Receive_DMA+0x58>
  }
  else
  {
    return HAL_BUSY;
 8003d62:	2302      	movs	r3, #2
  }
}
 8003d64:	4618      	mov	r0, r3
 8003d66:	3710      	adds	r7, #16
 8003d68:	46bd      	mov	sp, r7
 8003d6a:	bd80      	pop	{r7, pc}

08003d6c <HAL_UART_IRQHandler>:
  * @param  huart  Pointer to a UART_HandleTypeDef structure that contains
  *                the configuration information for the specified UART module.
  * @retval None
  */
void HAL_UART_IRQHandler(UART_HandleTypeDef *huart)
{
 8003d6c:	b580      	push	{r7, lr}
 8003d6e:	b08a      	sub	sp, #40	; 0x28
 8003d70:	af00      	add	r7, sp, #0
 8003d72:	6078      	str	r0, [r7, #4]
  uint32_t isrflags   = READ_REG(huart->Instance->SR);
 8003d74:	687b      	ldr	r3, [r7, #4]
 8003d76:	681b      	ldr	r3, [r3, #0]
 8003d78:	681b      	ldr	r3, [r3, #0]
 8003d7a:	627b      	str	r3, [r7, #36]	; 0x24
  uint32_t cr1its     = READ_REG(huart->Instance->CR1);
 8003d7c:	687b      	ldr	r3, [r7, #4]
 8003d7e:	681b      	ldr	r3, [r3, #0]
 8003d80:	68db      	ldr	r3, [r3, #12]
 8003d82:	623b      	str	r3, [r7, #32]
  uint32_t cr3its     = READ_REG(huart->Instance->CR3);
 8003d84:	687b      	ldr	r3, [r7, #4]
 8003d86:	681b      	ldr	r3, [r3, #0]
 8003d88:	695b      	ldr	r3, [r3, #20]
 8003d8a:	61fb      	str	r3, [r7, #28]
  uint32_t errorflags = 0x00U;
 8003d8c:	2300      	movs	r3, #0
 8003d8e:	61bb      	str	r3, [r7, #24]
  uint32_t dmarequest = 0x00U;
 8003d90:	2300      	movs	r3, #0
 8003d92:	617b      	str	r3, [r7, #20]

  /* If no error occurs */
  errorflags = (isrflags & (uint32_t)(USART_SR_PE | USART_SR_FE | USART_SR_ORE | USART_SR_NE));
 8003d94:	6a7b      	ldr	r3, [r7, #36]	; 0x24
 8003d96:	f003 030f 	and.w	r3, r3, #15
 8003d9a:	61bb      	str	r3, [r7, #24]
  if (errorflags == RESET)
 8003d9c:	69bb      	ldr	r3, [r7, #24]
 8003d9e:	2b00      	cmp	r3, #0
 8003da0:	d10d      	bne.n	8003dbe <HAL_UART_IRQHandler+0x52>
  {
    /* UART in mode Receiver -------------------------------------------------*/
    if (((isrflags & USART_SR_RXNE) != RESET) && ((cr1its & USART_CR1_RXNEIE) != RESET))
 8003da2:	6a7b      	ldr	r3, [r7, #36]	; 0x24
 8003da4:	f003 0320 	and.w	r3, r3, #32
 8003da8:	2b00      	cmp	r3, #0
 8003daa:	d008      	beq.n	8003dbe <HAL_UART_IRQHandler+0x52>
 8003dac:	6a3b      	ldr	r3, [r7, #32]
 8003dae:	f003 0320 	and.w	r3, r3, #32
 8003db2:	2b00      	cmp	r3, #0
 8003db4:	d003      	beq.n	8003dbe <HAL_UART_IRQHandler+0x52>
    {
      UART_Receive_IT(huart);
 8003db6:	6878      	ldr	r0, [r7, #4]
 8003db8:	f000 fc0d 	bl	80045d6 <UART_Receive_IT>
      return;
 8003dbc:	e17c      	b.n	80040b8 <HAL_UART_IRQHandler+0x34c>
    }
  }

  /* If some errors occur */
  if ((errorflags != RESET) && (((cr3its & USART_CR3_EIE) != RESET) || ((cr1its & (USART_CR1_RXNEIE | USART_CR1_PEIE)) != RESET)))
 8003dbe:	69bb      	ldr	r3, [r7, #24]
 8003dc0:	2b00      	cmp	r3, #0
 8003dc2:	f000 80b1 	beq.w	8003f28 <HAL_UART_IRQHandler+0x1bc>
 8003dc6:	69fb      	ldr	r3, [r7, #28]
 8003dc8:	f003 0301 	and.w	r3, r3, #1
 8003dcc:	2b00      	cmp	r3, #0
 8003dce:	d105      	bne.n	8003ddc <HAL_UART_IRQHandler+0x70>
 8003dd0:	6a3b      	ldr	r3, [r7, #32]
 8003dd2:	f403 7390 	and.w	r3, r3, #288	; 0x120
 8003dd6:	2b00      	cmp	r3, #0
 8003dd8:	f000 80a6 	beq.w	8003f28 <HAL_UART_IRQHandler+0x1bc>
  {
    /* UART parity error interrupt occurred ----------------------------------*/
    if (((isrflags & USART_SR_PE) != RESET) && ((cr1its & USART_CR1_PEIE) != RESET))
 8003ddc:	6a7b      	ldr	r3, [r7, #36]	; 0x24
 8003dde:	f003 0301 	and.w	r3, r3, #1
 8003de2:	2b00      	cmp	r3, #0
 8003de4:	d00a      	beq.n	8003dfc <HAL_UART_IRQHandler+0x90>
 8003de6:	6a3b      	ldr	r3, [r7, #32]
 8003de8:	f403 7380 	and.w	r3, r3, #256	; 0x100
 8003dec:	2b00      	cmp	r3, #0
 8003dee:	d005      	beq.n	8003dfc <HAL_UART_IRQHandler+0x90>
    {
      huart->ErrorCode |= HAL_UART_ERROR_PE;
 8003df0:	687b      	ldr	r3, [r7, #4]
 8003df2:	6c1b      	ldr	r3, [r3, #64]	; 0x40
 8003df4:	f043 0201 	orr.w	r2, r3, #1
 8003df8:	687b      	ldr	r3, [r7, #4]
 8003dfa:	641a      	str	r2, [r3, #64]	; 0x40
    }

    /* UART noise error interrupt occurred -----------------------------------*/
    if (((isrflags & USART_SR_NE) != RESET) && ((cr3its & USART_CR3_EIE) != RESET))
 8003dfc:	6a7b      	ldr	r3, [r7, #36]	; 0x24
 8003dfe:	f003 0304 	and.w	r3, r3, #4
 8003e02:	2b00      	cmp	r3, #0
 8003e04:	d00a      	beq.n	8003e1c <HAL_UART_IRQHandler+0xb0>
 8003e06:	69fb      	ldr	r3, [r7, #28]
 8003e08:	f003 0301 	and.w	r3, r3, #1
 8003e0c:	2b00      	cmp	r3, #0
 8003e0e:	d005      	beq.n	8003e1c <HAL_UART_IRQHandler+0xb0>
    {
      huart->ErrorCode |= HAL_UART_ERROR_NE;
 8003e10:	687b      	ldr	r3, [r7, #4]
 8003e12:	6c1b      	ldr	r3, [r3, #64]	; 0x40
 8003e14:	f043 0202 	orr.w	r2, r3, #2
 8003e18:	687b      	ldr	r3, [r7, #4]
 8003e1a:	641a      	str	r2, [r3, #64]	; 0x40
    }

    /* UART frame error interrupt occurred -----------------------------------*/
    if (((isrflags & USART_SR_FE) != RESET) && ((cr3its & USART_CR3_EIE) != RESET))
 8003e1c:	6a7b      	ldr	r3, [r7, #36]	; 0x24
 8003e1e:	f003 0302 	and.w	r3, r3, #2
 8003e22:	2b00      	cmp	r3, #0
 8003e24:	d00a      	beq.n	8003e3c <HAL_UART_IRQHandler+0xd0>
 8003e26:	69fb      	ldr	r3, [r7, #28]
 8003e28:	f003 0301 	and.w	r3, r3, #1
 8003e2c:	2b00      	cmp	r3, #0
 8003e2e:	d005      	beq.n	8003e3c <HAL_UART_IRQHandler+0xd0>
    {
      huart->ErrorCode |= HAL_UART_ERROR_FE;
 8003e30:	687b      	ldr	r3, [r7, #4]
 8003e32:	6c1b      	ldr	r3, [r3, #64]	; 0x40
 8003e34:	f043 0204 	orr.w	r2, r3, #4
 8003e38:	687b      	ldr	r3, [r7, #4]
 8003e3a:	641a      	str	r2, [r3, #64]	; 0x40
    }

    /* UART Over-Run interrupt occurred --------------------------------------*/
    if (((isrflags & USART_SR_ORE) != RESET) && (((cr1its & USART_CR1_RXNEIE) != RESET) || ((cr3its & USART_CR3_EIE) != RESET)))
 8003e3c:	6a7b      	ldr	r3, [r7, #36]	; 0x24
 8003e3e:	f003 0308 	and.w	r3, r3, #8
 8003e42:	2b00      	cmp	r3, #0
 8003e44:	d00f      	beq.n	8003e66 <HAL_UART_IRQHandler+0xfa>
 8003e46:	6a3b      	ldr	r3, [r7, #32]
 8003e48:	f003 0320 	and.w	r3, r3, #32
 8003e4c:	2b00      	cmp	r3, #0
 8003e4e:	d104      	bne.n	8003e5a <HAL_UART_IRQHandler+0xee>
 8003e50:	69fb      	ldr	r3, [r7, #28]
 8003e52:	f003 0301 	and.w	r3, r3, #1
 8003e56:	2b00      	cmp	r3, #0
 8003e58:	d005      	beq.n	8003e66 <HAL_UART_IRQHandler+0xfa>
    {
      huart->ErrorCode |= HAL_UART_ERROR_ORE;
 8003e5a:	687b      	ldr	r3, [r7, #4]
 8003e5c:	6c1b      	ldr	r3, [r3, #64]	; 0x40
 8003e5e:	f043 0208 	orr.w	r2, r3, #8
 8003e62:	687b      	ldr	r3, [r7, #4]
 8003e64:	641a      	str	r2, [r3, #64]	; 0x40
    }

    /* Call UART Error Call back function if need be --------------------------*/
    if (huart->ErrorCode != HAL_UART_ERROR_NONE)
 8003e66:	687b      	ldr	r3, [r7, #4]
 8003e68:	6c1b      	ldr	r3, [r3, #64]	; 0x40
 8003e6a:	2b00      	cmp	r3, #0
 8003e6c:	f000 811f 	beq.w	80040ae <HAL_UART_IRQHandler+0x342>
    {
      /* UART in mode Receiver -----------------------------------------------*/
      if (((isrflags & USART_SR_RXNE) != RESET) && ((cr1its & USART_CR1_RXNEIE) != RESET))
 8003e70:	6a7b      	ldr	r3, [r7, #36]	; 0x24
 8003e72:	f003 0320 	and.w	r3, r3, #32
 8003e76:	2b00      	cmp	r3, #0
 8003e78:	d007      	beq.n	8003e8a <HAL_UART_IRQHandler+0x11e>
 8003e7a:	6a3b      	ldr	r3, [r7, #32]
 8003e7c:	f003 0320 	and.w	r3, r3, #32
 8003e80:	2b00      	cmp	r3, #0
 8003e82:	d002      	beq.n	8003e8a <HAL_UART_IRQHandler+0x11e>
      {
        UART_Receive_IT(huart);
 8003e84:	6878      	ldr	r0, [r7, #4]
 8003e86:	f000 fba6 	bl	80045d6 <UART_Receive_IT>
      }

      /* If Overrun error occurs, or if any error occurs in DMA mode reception,
         consider error as blocking */
      dmarequest = HAL_IS_BIT_SET(huart->Instance->CR3, USART_CR3_DMAR);
 8003e8a:	687b      	ldr	r3, [r7, #4]
 8003e8c:	681b      	ldr	r3, [r3, #0]
 8003e8e:	695b      	ldr	r3, [r3, #20]
 8003e90:	f003 0340 	and.w	r3, r3, #64	; 0x40
 8003e94:	2b40      	cmp	r3, #64	; 0x40
 8003e96:	bf0c      	ite	eq
 8003e98:	2301      	moveq	r3, #1
 8003e9a:	2300      	movne	r3, #0
 8003e9c:	b2db      	uxtb	r3, r3
 8003e9e:	617b      	str	r3, [r7, #20]
      if (((huart->ErrorCode & HAL_UART_ERROR_ORE) != RESET) || dmarequest)
 8003ea0:	687b      	ldr	r3, [r7, #4]
 8003ea2:	6c1b      	ldr	r3, [r3, #64]	; 0x40
 8003ea4:	f003 0308 	and.w	r3, r3, #8
 8003ea8:	2b00      	cmp	r3, #0
 8003eaa:	d102      	bne.n	8003eb2 <HAL_UART_IRQHandler+0x146>
 8003eac:	697b      	ldr	r3, [r7, #20]
 8003eae:	2b00      	cmp	r3, #0
 8003eb0:	d031      	beq.n	8003f16 <HAL_UART_IRQHandler+0x1aa>
      {
        /* Blocking error : transfer is aborted
           Set the UART state ready to be able to start again the process,
           Disable Rx Interrupts, and disable Rx DMA request, if ongoing */
        UART_EndRxTransfer(huart);
 8003eb2:	6878      	ldr	r0, [r7, #4]
 8003eb4:	f000 fae6 	bl	8004484 <UART_EndRxTransfer>

        /* Disable the UART DMA Rx request if enabled */
        if (HAL_IS_BIT_SET(huart->Instance->CR3, USART_CR3_DMAR))
 8003eb8:	687b      	ldr	r3, [r7, #4]
 8003eba:	681b      	ldr	r3, [r3, #0]
 8003ebc:	695b      	ldr	r3, [r3, #20]
 8003ebe:	f003 0340 	and.w	r3, r3, #64	; 0x40
 8003ec2:	2b40      	cmp	r3, #64	; 0x40
 8003ec4:	d123      	bne.n	8003f0e <HAL_UART_IRQHandler+0x1a2>
        {
          CLEAR_BIT(huart->Instance->CR3, USART_CR3_DMAR);
 8003ec6:	687b      	ldr	r3, [r7, #4]
 8003ec8:	681b      	ldr	r3, [r3, #0]
 8003eca:	695a      	ldr	r2, [r3, #20]
 8003ecc:	687b      	ldr	r3, [r7, #4]
 8003ece:	681b      	ldr	r3, [r3, #0]
 8003ed0:	f022 0240 	bic.w	r2, r2, #64	; 0x40
 8003ed4:	615a      	str	r2, [r3, #20]

          /* Abort the UART DMA Rx stream */
          if (huart->hdmarx != NULL)
 8003ed6:	687b      	ldr	r3, [r7, #4]
 8003ed8:	6b9b      	ldr	r3, [r3, #56]	; 0x38
 8003eda:	2b00      	cmp	r3, #0
 8003edc:	d013      	beq.n	8003f06 <HAL_UART_IRQHandler+0x19a>
          {
            /* Set the UART DMA Abort callback :
               will lead to call HAL_UART_ErrorCallback() at end of DMA abort procedure */
            huart->hdmarx->XferAbortCallback = UART_DMAAbortOnError;
 8003ede:	687b      	ldr	r3, [r7, #4]
 8003ee0:	6b9b      	ldr	r3, [r3, #56]	; 0x38
 8003ee2:	4a77      	ldr	r2, [pc, #476]	; (80040c0 <HAL_UART_IRQHandler+0x354>)
 8003ee4:	651a      	str	r2, [r3, #80]	; 0x50
            if (HAL_DMA_Abort_IT(huart->hdmarx) != HAL_OK)
 8003ee6:	687b      	ldr	r3, [r7, #4]
 8003ee8:	6b9b      	ldr	r3, [r3, #56]	; 0x38
 8003eea:	4618      	mov	r0, r3
 8003eec:	f7fe fc04 	bl	80026f8 <HAL_DMA_Abort_IT>
 8003ef0:	4603      	mov	r3, r0
 8003ef2:	2b00      	cmp	r3, #0
 8003ef4:	d016      	beq.n	8003f24 <HAL_UART_IRQHandler+0x1b8>
            {
              /* Call Directly XferAbortCallback function in case of error */
              huart->hdmarx->XferAbortCallback(huart->hdmarx);
 8003ef6:	687b      	ldr	r3, [r7, #4]
 8003ef8:	6b9b      	ldr	r3, [r3, #56]	; 0x38
 8003efa:	6d1b      	ldr	r3, [r3, #80]	; 0x50
 8003efc:	687a      	ldr	r2, [r7, #4]
 8003efe:	6b92      	ldr	r2, [r2, #56]	; 0x38
 8003f00:	4610      	mov	r0, r2
 8003f02:	4798      	blx	r3
        if (HAL_IS_BIT_SET(huart->Instance->CR3, USART_CR3_DMAR))
 8003f04:	e00e      	b.n	8003f24 <HAL_UART_IRQHandler+0x1b8>
#if (USE_HAL_UART_REGISTER_CALLBACKS == 1)
            /*Call registered error callback*/
            huart->ErrorCallback(huart);
#else
            /*Call legacy weak error callback*/
            HAL_UART_ErrorCallback(huart);
 8003f06:	6878      	ldr	r0, [r7, #4]
 8003f08:	f000 f8fa 	bl	8004100 <HAL_UART_ErrorCallback>
        if (HAL_IS_BIT_SET(huart->Instance->CR3, USART_CR3_DMAR))
 8003f0c:	e00a      	b.n	8003f24 <HAL_UART_IRQHandler+0x1b8>
#if (USE_HAL_UART_REGISTER_CALLBACKS == 1)
          /*Call registered error callback*/
          huart->ErrorCallback(huart);
#else
          /*Call legacy weak error callback*/
          HAL_UART_ErrorCallback(huart);
 8003f0e:	6878      	ldr	r0, [r7, #4]
 8003f10:	f000 f8f6 	bl	8004100 <HAL_UART_ErrorCallback>
        if (HAL_IS_BIT_SET(huart->Instance->CR3, USART_CR3_DMAR))
 8003f14:	e006      	b.n	8003f24 <HAL_UART_IRQHandler+0x1b8>
#if (USE_HAL_UART_REGISTER_CALLBACKS == 1)
        /*Call registered error callback*/
        huart->ErrorCallback(huart);
#else
        /*Call legacy weak error callback*/
        HAL_UART_ErrorCallback(huart);
 8003f16:	6878      	ldr	r0, [r7, #4]
 8003f18:	f000 f8f2 	bl	8004100 <HAL_UART_ErrorCallback>
#endif /* USE_HAL_UART_REGISTER_CALLBACKS */

        huart->ErrorCode = HAL_UART_ERROR_NONE;
 8003f1c:	687b      	ldr	r3, [r7, #4]
 8003f1e:	2200      	movs	r2, #0
 8003f20:	641a      	str	r2, [r3, #64]	; 0x40
      }
    }
    return;
 8003f22:	e0c4      	b.n	80040ae <HAL_UART_IRQHandler+0x342>
        if (HAL_IS_BIT_SET(huart->Instance->CR3, USART_CR3_DMAR))
 8003f24:	bf00      	nop
    return;
 8003f26:	e0c2      	b.n	80040ae <HAL_UART_IRQHandler+0x342>
  } /* End if some error occurs */

  /* Check current reception Mode :
     If Reception till IDLE event has been selected : */
  if (  (huart->ReceptionType == HAL_UART_RECEPTION_TOIDLE)
 8003f28:	687b      	ldr	r3, [r7, #4]
 8003f2a:	6b1b      	ldr	r3, [r3, #48]	; 0x30
 8003f2c:	2b01      	cmp	r3, #1
 8003f2e:	f040 80a2 	bne.w	8004076 <HAL_UART_IRQHandler+0x30a>
      &&((isrflags & USART_SR_IDLE) != 0U)
 8003f32:	6a7b      	ldr	r3, [r7, #36]	; 0x24
 8003f34:	f003 0310 	and.w	r3, r3, #16
 8003f38:	2b00      	cmp	r3, #0
 8003f3a:	f000 809c 	beq.w	8004076 <HAL_UART_IRQHandler+0x30a>
      &&((cr1its & USART_SR_IDLE) != 0U))
 8003f3e:	6a3b      	ldr	r3, [r7, #32]
 8003f40:	f003 0310 	and.w	r3, r3, #16
 8003f44:	2b00      	cmp	r3, #0
 8003f46:	f000 8096 	beq.w	8004076 <HAL_UART_IRQHandler+0x30a>
  {
    __HAL_UART_CLEAR_IDLEFLAG(huart);
 8003f4a:	2300      	movs	r3, #0
 8003f4c:	60fb      	str	r3, [r7, #12]
 8003f4e:	687b      	ldr	r3, [r7, #4]
 8003f50:	681b      	ldr	r3, [r3, #0]
 8003f52:	681b      	ldr	r3, [r3, #0]
 8003f54:	60fb      	str	r3, [r7, #12]
 8003f56:	687b      	ldr	r3, [r7, #4]
 8003f58:	681b      	ldr	r3, [r3, #0]
 8003f5a:	685b      	ldr	r3, [r3, #4]
 8003f5c:	60fb      	str	r3, [r7, #12]
 8003f5e:	68fb      	ldr	r3, [r7, #12]

    /* Check if DMA mode is enabled in UART */
    if (HAL_IS_BIT_SET(huart->Instance->CR3, USART_CR3_DMAR))
 8003f60:	687b      	ldr	r3, [r7, #4]
 8003f62:	681b      	ldr	r3, [r3, #0]
 8003f64:	695b      	ldr	r3, [r3, #20]
 8003f66:	f003 0340 	and.w	r3, r3, #64	; 0x40
 8003f6a:	2b40      	cmp	r3, #64	; 0x40
 8003f6c:	d14f      	bne.n	800400e <HAL_UART_IRQHandler+0x2a2>
    {
      /* DMA mode enabled */
      /* Check received length : If all expected data are received, do nothing,
         (DMA cplt callback will be called).
         Otherwise, if at least one data has already been received, IDLE event is to be notified to user */
      uint16_t nb_remaining_rx_data = (uint16_t) __HAL_DMA_GET_COUNTER(huart->hdmarx);
 8003f6e:	687b      	ldr	r3, [r7, #4]
 8003f70:	6b9b      	ldr	r3, [r3, #56]	; 0x38
 8003f72:	681b      	ldr	r3, [r3, #0]
 8003f74:	685b      	ldr	r3, [r3, #4]
 8003f76:	823b      	strh	r3, [r7, #16]
      if (  (nb_remaining_rx_data > 0U)
 8003f78:	8a3b      	ldrh	r3, [r7, #16]
 8003f7a:	2b00      	cmp	r3, #0
 8003f7c:	f000 8099 	beq.w	80040b2 <HAL_UART_IRQHandler+0x346>
          &&(nb_remaining_rx_data < huart->RxXferSize))
 8003f80:	687b      	ldr	r3, [r7, #4]
 8003f82:	8d9b      	ldrh	r3, [r3, #44]	; 0x2c
 8003f84:	8a3a      	ldrh	r2, [r7, #16]
 8003f86:	429a      	cmp	r2, r3
 8003f88:	f080 8093 	bcs.w	80040b2 <HAL_UART_IRQHandler+0x346>
      {
        /* Reception is not complete */
        huart->RxXferCount = nb_remaining_rx_data;
 8003f8c:	687b      	ldr	r3, [r7, #4]
 8003f8e:	8a3a      	ldrh	r2, [r7, #16]
 8003f90:	85da      	strh	r2, [r3, #46]	; 0x2e

        /* In Normal mode, end DMA xfer and HAL UART Rx process*/
        if (huart->hdmarx->Init.Mode != DMA_CIRCULAR)
 8003f92:	687b      	ldr	r3, [r7, #4]
 8003f94:	6b9b      	ldr	r3, [r3, #56]	; 0x38
 8003f96:	69db      	ldr	r3, [r3, #28]
 8003f98:	f5b3 7f80 	cmp.w	r3, #256	; 0x100
 8003f9c:	d02b      	beq.n	8003ff6 <HAL_UART_IRQHandler+0x28a>
        {
          /* Disable PE and ERR (Frame error, noise error, overrun error) interrupts */
          CLEAR_BIT(huart->Instance->CR1, USART_CR1_PEIE);
 8003f9e:	687b      	ldr	r3, [r7, #4]
 8003fa0:	681b      	ldr	r3, [r3, #0]
 8003fa2:	68da      	ldr	r2, [r3, #12]
 8003fa4:	687b      	ldr	r3, [r7, #4]
 8003fa6:	681b      	ldr	r3, [r3, #0]
 8003fa8:	f422 7280 	bic.w	r2, r2, #256	; 0x100
 8003fac:	60da      	str	r2, [r3, #12]
          CLEAR_BIT(huart->Instance->CR3, USART_CR3_EIE);
 8003fae:	687b      	ldr	r3, [r7, #4]
 8003fb0:	681b      	ldr	r3, [r3, #0]
 8003fb2:	695a      	ldr	r2, [r3, #20]
 8003fb4:	687b      	ldr	r3, [r7, #4]
 8003fb6:	681b      	ldr	r3, [r3, #0]
 8003fb8:	f022 0201 	bic.w	r2, r2, #1
 8003fbc:	615a      	str	r2, [r3, #20]

          /* Disable the DMA transfer for the receiver request by resetting the DMAR bit
             in the UART CR3 register */
          CLEAR_BIT(huart->Instance->CR3, USART_CR3_DMAR);
 8003fbe:	687b      	ldr	r3, [r7, #4]
 8003fc0:	681b      	ldr	r3, [r3, #0]
 8003fc2:	695a      	ldr	r2, [r3, #20]
 8003fc4:	687b      	ldr	r3, [r7, #4]
 8003fc6:	681b      	ldr	r3, [r3, #0]
 8003fc8:	f022 0240 	bic.w	r2, r2, #64	; 0x40
 8003fcc:	615a      	str	r2, [r3, #20]

          /* At end of Rx process, restore huart->RxState to Ready */
          huart->RxState = HAL_UART_STATE_READY;
 8003fce:	687b      	ldr	r3, [r7, #4]
 8003fd0:	2220      	movs	r2, #32
 8003fd2:	f883 203e 	strb.w	r2, [r3, #62]	; 0x3e
          huart->ReceptionType = HAL_UART_RECEPTION_STANDARD;
 8003fd6:	687b      	ldr	r3, [r7, #4]
 8003fd8:	2200      	movs	r2, #0
 8003fda:	631a      	str	r2, [r3, #48]	; 0x30

          CLEAR_BIT(huart->Instance->CR1, USART_CR1_IDLEIE);
 8003fdc:	687b      	ldr	r3, [r7, #4]
 8003fde:	681b      	ldr	r3, [r3, #0]
 8003fe0:	68da      	ldr	r2, [r3, #12]
 8003fe2:	687b      	ldr	r3, [r7, #4]
 8003fe4:	681b      	ldr	r3, [r3, #0]
 8003fe6:	f022 0210 	bic.w	r2, r2, #16
 8003fea:	60da      	str	r2, [r3, #12]

          /* Last bytes received, so no need as the abort is immediate */
          (void)HAL_DMA_Abort(huart->hdmarx);
 8003fec:	687b      	ldr	r3, [r7, #4]
 8003fee:	6b9b      	ldr	r3, [r3, #56]	; 0x38
 8003ff0:	4618      	mov	r0, r3
 8003ff2:	f7fe fb11 	bl	8002618 <HAL_DMA_Abort>
#if (USE_HAL_UART_REGISTER_CALLBACKS == 1)
        /*Call registered Rx Event callback*/
        huart->RxEventCallback(huart, (huart->RxXferSize - huart->RxXferCount));
#else
        /*Call legacy weak Rx Event callback*/
        HAL_UARTEx_RxEventCallback(huart, (huart->RxXferSize - huart->RxXferCount));
 8003ff6:	687b      	ldr	r3, [r7, #4]
 8003ff8:	8d9a      	ldrh	r2, [r3, #44]	; 0x2c
 8003ffa:	687b      	ldr	r3, [r7, #4]
 8003ffc:	8ddb      	ldrh	r3, [r3, #46]	; 0x2e
 8003ffe:	b29b      	uxth	r3, r3
 8004000:	1ad3      	subs	r3, r2, r3
 8004002:	b29b      	uxth	r3, r3
 8004004:	4619      	mov	r1, r3
 8004006:	6878      	ldr	r0, [r7, #4]
 8004008:	f000 f884 	bl	8004114 <HAL_UARTEx_RxEventCallback>
#endif
      }
      return;
 800400c:	e051      	b.n	80040b2 <HAL_UART_IRQHandler+0x346>
    else
    {
      /* DMA mode not enabled */
      /* Check received length : If all expected data are received, do nothing.
         Otherwise, if at least one data has already been received, IDLE event is to be notified to user */
      uint16_t nb_rx_data = huart->RxXferSize - huart->RxXferCount;
 800400e:	687b      	ldr	r3, [r7, #4]
 8004010:	8d9a      	ldrh	r2, [r3, #44]	; 0x2c
 8004012:	687b      	ldr	r3, [r7, #4]
 8004014:	8ddb      	ldrh	r3, [r3, #46]	; 0x2e
 8004016:	b29b      	uxth	r3, r3
 8004018:	1ad3      	subs	r3, r2, r3
 800401a:	827b      	strh	r3, [r7, #18]
      if (  (huart->RxXferCount > 0U)
 800401c:	687b      	ldr	r3, [r7, #4]
 800401e:	8ddb      	ldrh	r3, [r3, #46]	; 0x2e
 8004020:	b29b      	uxth	r3, r3
 8004022:	2b00      	cmp	r3, #0
 8004024:	d047      	beq.n	80040b6 <HAL_UART_IRQHandler+0x34a>
          &&(nb_rx_data > 0U) )
 8004026:	8a7b      	ldrh	r3, [r7, #18]
 8004028:	2b00      	cmp	r3, #0
 800402a:	d044      	beq.n	80040b6 <HAL_UART_IRQHandler+0x34a>
      {
        /* Disable the UART Parity Error Interrupt and RXNE interrupts */
        CLEAR_BIT(huart->Instance->CR1, (USART_CR1_RXNEIE | USART_CR1_PEIE));
 800402c:	687b      	ldr	r3, [r7, #4]
 800402e:	681b      	ldr	r3, [r3, #0]
 8004030:	68da      	ldr	r2, [r3, #12]
 8004032:	687b      	ldr	r3, [r7, #4]
 8004034:	681b      	ldr	r3, [r3, #0]
 8004036:	f422 7290 	bic.w	r2, r2, #288	; 0x120
 800403a:	60da      	str	r2, [r3, #12]

        /* Disable the UART Error Interrupt: (Frame error, noise error, overrun error) */
        CLEAR_BIT(huart->Instance->CR3, USART_CR3_EIE);
 800403c:	687b      	ldr	r3, [r7, #4]
 800403e:	681b      	ldr	r3, [r3, #0]
 8004040:	695a      	ldr	r2, [r3, #20]
 8004042:	687b      	ldr	r3, [r7, #4]
 8004044:	681b      	ldr	r3, [r3, #0]
 8004046:	f022 0201 	bic.w	r2, r2, #1
 800404a:	615a      	str	r2, [r3, #20]

        /* Rx process is completed, restore huart->RxState to Ready */
        huart->RxState = HAL_UART_STATE_READY;
 800404c:	687b      	ldr	r3, [r7, #4]
 800404e:	2220      	movs	r2, #32
 8004050:	f883 203e 	strb.w	r2, [r3, #62]	; 0x3e
        huart->ReceptionType = HAL_UART_RECEPTION_STANDARD;
 8004054:	687b      	ldr	r3, [r7, #4]
 8004056:	2200      	movs	r2, #0
 8004058:	631a      	str	r2, [r3, #48]	; 0x30

        CLEAR_BIT(huart->Instance->CR1, USART_CR1_IDLEIE);
 800405a:	687b      	ldr	r3, [r7, #4]
 800405c:	681b      	ldr	r3, [r3, #0]
 800405e:	68da      	ldr	r2, [r3, #12]
 8004060:	687b      	ldr	r3, [r7, #4]
 8004062:	681b      	ldr	r3, [r3, #0]
 8004064:	f022 0210 	bic.w	r2, r2, #16
 8004068:	60da      	str	r2, [r3, #12]
#if (USE_HAL_UART_REGISTER_CALLBACKS == 1)
        /*Call registered Rx complete callback*/
        huart->RxEventCallback(huart, nb_rx_data);
#else
        /*Call legacy weak Rx Event callback*/
        HAL_UARTEx_RxEventCallback(huart, nb_rx_data);
 800406a:	8a7b      	ldrh	r3, [r7, #18]
 800406c:	4619      	mov	r1, r3
 800406e:	6878      	ldr	r0, [r7, #4]
 8004070:	f000 f850 	bl	8004114 <HAL_UARTEx_RxEventCallback>
#endif
      }
      return;
 8004074:	e01f      	b.n	80040b6 <HAL_UART_IRQHandler+0x34a>
    }
  }

  /* UART in mode Transmitter ------------------------------------------------*/
  if (((isrflags & USART_SR_TXE) != RESET) && ((cr1its & USART_CR1_TXEIE) != RESET))
 8004076:	6a7b      	ldr	r3, [r7, #36]	; 0x24
 8004078:	f003 0380 	and.w	r3, r3, #128	; 0x80
 800407c:	2b00      	cmp	r3, #0
 800407e:	d008      	beq.n	8004092 <HAL_UART_IRQHandler+0x326>
 8004080:	6a3b      	ldr	r3, [r7, #32]
 8004082:	f003 0380 	and.w	r3, r3, #128	; 0x80
 8004086:	2b00      	cmp	r3, #0
 8004088:	d003      	beq.n	8004092 <HAL_UART_IRQHandler+0x326>
  {
    UART_Transmit_IT(huart);
 800408a:	6878      	ldr	r0, [r7, #4]
 800408c:	f000 fa3b 	bl	8004506 <UART_Transmit_IT>
    return;
 8004090:	e012      	b.n	80040b8 <HAL_UART_IRQHandler+0x34c>
  }

  /* UART in mode Transmitter end --------------------------------------------*/
  if (((isrflags & USART_SR_TC) != RESET) && ((cr1its & USART_CR1_TCIE) != RESET))
 8004092:	6a7b      	ldr	r3, [r7, #36]	; 0x24
 8004094:	f003 0340 	and.w	r3, r3, #64	; 0x40
 8004098:	2b00      	cmp	r3, #0
 800409a:	d00d      	beq.n	80040b8 <HAL_UART_IRQHandler+0x34c>
 800409c:	6a3b      	ldr	r3, [r7, #32]
 800409e:	f003 0340 	and.w	r3, r3, #64	; 0x40
 80040a2:	2b00      	cmp	r3, #0
 80040a4:	d008      	beq.n	80040b8 <HAL_UART_IRQHandler+0x34c>
  {
    UART_EndTransmit_IT(huart);
 80040a6:	6878      	ldr	r0, [r7, #4]
 80040a8:	f000 fa7d 	bl	80045a6 <UART_EndTransmit_IT>
    return;
 80040ac:	e004      	b.n	80040b8 <HAL_UART_IRQHandler+0x34c>
    return;
 80040ae:	bf00      	nop
 80040b0:	e002      	b.n	80040b8 <HAL_UART_IRQHandler+0x34c>
      return;
 80040b2:	bf00      	nop
 80040b4:	e000      	b.n	80040b8 <HAL_UART_IRQHandler+0x34c>
      return;
 80040b6:	bf00      	nop
  }
}
 80040b8:	3728      	adds	r7, #40	; 0x28
 80040ba:	46bd      	mov	sp, r7
 80040bc:	bd80      	pop	{r7, pc}
 80040be:	bf00      	nop
 80040c0:	080044df 	.word	0x080044df

080040c4 <HAL_UART_TxCpltCallback>:
  * @param  huart  Pointer to a UART_HandleTypeDef structure that contains
  *                the configuration information for the specified UART module.
  * @retval None
  */
__weak void HAL_UART_TxCpltCallback(UART_HandleTypeDef *huart)
{
 80040c4:	b480      	push	{r7}
 80040c6:	b083      	sub	sp, #12
 80040c8:	af00      	add	r7, sp, #0
 80040ca:	6078      	str	r0, [r7, #4]
  /* Prevent unused argument(s) compilation warning */
  UNUSED(huart);
  /* NOTE: This function should not be modified, when the callback is needed,
           the HAL_UART_TxCpltCallback could be implemented in the user file
   */
}
 80040cc:	bf00      	nop
 80040ce:	370c      	adds	r7, #12
 80040d0:	46bd      	mov	sp, r7
 80040d2:	f85d 7b04 	ldr.w	r7, [sp], #4
 80040d6:	4770      	bx	lr

080040d8 <HAL_UART_TxHalfCpltCallback>:
  * @param  huart  Pointer to a UART_HandleTypeDef structure that contains
  *                the configuration information for the specified UART module.
  * @retval None
  */
__weak void HAL_UART_TxHalfCpltCallback(UART_HandleTypeDef *huart)
{
 80040d8:	b480      	push	{r7}
 80040da:	b083      	sub	sp, #12
 80040dc:	af00      	add	r7, sp, #0
 80040de:	6078      	str	r0, [r7, #4]
  /* Prevent unused argument(s) compilation warning */
  UNUSED(huart);
  /* NOTE: This function should not be modified, when the callback is needed,
           the HAL_UART_TxHalfCpltCallback could be implemented in the user file
   */
}
 80040e0:	bf00      	nop
 80040e2:	370c      	adds	r7, #12
 80040e4:	46bd      	mov	sp, r7
 80040e6:	f85d 7b04 	ldr.w	r7, [sp], #4
 80040ea:	4770      	bx	lr

080040ec <HAL_UART_RxHalfCpltCallback>:
  * @param  huart  Pointer to a UART_HandleTypeDef structure that contains
  *                the configuration information for the specified UART module.
  * @retval None
  */
__weak void HAL_UART_RxHalfCpltCallback(UART_HandleTypeDef *huart)
{
 80040ec:	b480      	push	{r7}
 80040ee:	b083      	sub	sp, #12
 80040f0:	af00      	add	r7, sp, #0
 80040f2:	6078      	str	r0, [r7, #4]
  /* Prevent unused argument(s) compilation warning */
  UNUSED(huart);
  /* NOTE: This function should not be modified, when the callback is needed,
           the HAL_UART_RxHalfCpltCallback could be implemented in the user file
   */
}
 80040f4:	bf00      	nop
 80040f6:	370c      	adds	r7, #12
 80040f8:	46bd      	mov	sp, r7
 80040fa:	f85d 7b04 	ldr.w	r7, [sp], #4
 80040fe:	4770      	bx	lr

08004100 <HAL_UART_ErrorCallback>:
  * @param  huart  Pointer to a UART_HandleTypeDef structure that contains
  *                the configuration information for the specified UART module.
  * @retval None
  */
__weak void HAL_UART_ErrorCallback(UART_HandleTypeDef *huart)
{
 8004100:	b480      	push	{r7}
 8004102:	b083      	sub	sp, #12
 8004104:	af00      	add	r7, sp, #0
 8004106:	6078      	str	r0, [r7, #4]
  /* Prevent unused argument(s) compilation warning */
  UNUSED(huart);
  /* NOTE: This function should not be modified, when the callback is needed,
           the HAL_UART_ErrorCallback could be implemented in the user file
   */
}
 8004108:	bf00      	nop
 800410a:	370c      	adds	r7, #12
 800410c:	46bd      	mov	sp, r7
 800410e:	f85d 7b04 	ldr.w	r7, [sp], #4
 8004112:	4770      	bx	lr

08004114 <HAL_UARTEx_RxEventCallback>:
  * @param  Size  Number of data available in application reception buffer (indicates a position in
  *               reception buffer until which, data are available)
  * @retval None
  */
__weak void HAL_UARTEx_RxEventCallback(UART_HandleTypeDef *huart, uint16_t Size)
{
 8004114:	b480      	push	{r7}
 8004116:	b083      	sub	sp, #12
 8004118:	af00      	add	r7, sp, #0
 800411a:	6078      	str	r0, [r7, #4]
 800411c:	460b      	mov	r3, r1
 800411e:	807b      	strh	r3, [r7, #2]
  UNUSED(Size);

  /* NOTE : This function should not be modified, when the callback is needed,
            the HAL_UARTEx_RxEventCallback can be implemented in the user file.
   */
}
 8004120:	bf00      	nop
 8004122:	370c      	adds	r7, #12
 8004124:	46bd      	mov	sp, r7
 8004126:	f85d 7b04 	ldr.w	r7, [sp], #4
 800412a:	4770      	bx	lr

0800412c <UART_DMATransmitCplt>:
  * @param  hdma  Pointer to a DMA_HandleTypeDef structure that contains
  *               the configuration information for the specified DMA module.
  * @retval None
  */
static void UART_DMATransmitCplt(DMA_HandleTypeDef *hdma)
{
 800412c:	b580      	push	{r7, lr}
 800412e:	b084      	sub	sp, #16
 8004130:	af00      	add	r7, sp, #0
 8004132:	6078      	str	r0, [r7, #4]
  UART_HandleTypeDef *huart = (UART_HandleTypeDef *)((DMA_HandleTypeDef *)hdma)->Parent;
 8004134:	687b      	ldr	r3, [r7, #4]
 8004136:	6b9b      	ldr	r3, [r3, #56]	; 0x38
 8004138:	60fb      	str	r3, [r7, #12]
  /* DMA Normal mode*/
  if ((hdma->Instance->CR & DMA_SxCR_CIRC) == 0U)
 800413a:	687b      	ldr	r3, [r7, #4]
 800413c:	681b      	ldr	r3, [r3, #0]
 800413e:	681b      	ldr	r3, [r3, #0]
 8004140:	f403 7380 	and.w	r3, r3, #256	; 0x100
 8004144:	2b00      	cmp	r3, #0
 8004146:	d113      	bne.n	8004170 <UART_DMATransmitCplt+0x44>
  {
    huart->TxXferCount = 0x00U;
 8004148:	68fb      	ldr	r3, [r7, #12]
 800414a:	2200      	movs	r2, #0
 800414c:	84da      	strh	r2, [r3, #38]	; 0x26

    /* Disable the DMA transfer for transmit request by setting the DMAT bit
       in the UART CR3 register */
    CLEAR_BIT(huart->Instance->CR3, USART_CR3_DMAT);
 800414e:	68fb      	ldr	r3, [r7, #12]
 8004150:	681b      	ldr	r3, [r3, #0]
 8004152:	695a      	ldr	r2, [r3, #20]
 8004154:	68fb      	ldr	r3, [r7, #12]
 8004156:	681b      	ldr	r3, [r3, #0]
 8004158:	f022 0280 	bic.w	r2, r2, #128	; 0x80
 800415c:	615a      	str	r2, [r3, #20]

    /* Enable the UART Transmit Complete Interrupt */
    SET_BIT(huart->Instance->CR1, USART_CR1_TCIE);
 800415e:	68fb      	ldr	r3, [r7, #12]
 8004160:	681b      	ldr	r3, [r3, #0]
 8004162:	68da      	ldr	r2, [r3, #12]
 8004164:	68fb      	ldr	r3, [r7, #12]
 8004166:	681b      	ldr	r3, [r3, #0]
 8004168:	f042 0240 	orr.w	r2, r2, #64	; 0x40
 800416c:	60da      	str	r2, [r3, #12]
#else
    /*Call legacy weak Tx complete callback*/
    HAL_UART_TxCpltCallback(huart);
#endif /* USE_HAL_UART_REGISTER_CALLBACKS */
  }
}
 800416e:	e002      	b.n	8004176 <UART_DMATransmitCplt+0x4a>
    HAL_UART_TxCpltCallback(huart);
 8004170:	68f8      	ldr	r0, [r7, #12]
 8004172:	f7ff ffa7 	bl	80040c4 <HAL_UART_TxCpltCallback>
}
 8004176:	bf00      	nop
 8004178:	3710      	adds	r7, #16
 800417a:	46bd      	mov	sp, r7
 800417c:	bd80      	pop	{r7, pc}

0800417e <UART_DMATxHalfCplt>:
  * @param  hdma  Pointer to a DMA_HandleTypeDef structure that contains
  *               the configuration information for the specified DMA module.
  * @retval None
  */
static void UART_DMATxHalfCplt(DMA_HandleTypeDef *hdma)
{
 800417e:	b580      	push	{r7, lr}
 8004180:	b084      	sub	sp, #16
 8004182:	af00      	add	r7, sp, #0
 8004184:	6078      	str	r0, [r7, #4]
  UART_HandleTypeDef *huart = (UART_HandleTypeDef *)((DMA_HandleTypeDef *)hdma)->Parent;
 8004186:	687b      	ldr	r3, [r7, #4]
 8004188:	6b9b      	ldr	r3, [r3, #56]	; 0x38
 800418a:	60fb      	str	r3, [r7, #12]
#if (USE_HAL_UART_REGISTER_CALLBACKS == 1)
  /*Call registered Tx complete callback*/
  huart->TxHalfCpltCallback(huart);
#else
  /*Call legacy weak Tx complete callback*/
  HAL_UART_TxHalfCpltCallback(huart);
 800418c:	68f8      	ldr	r0, [r7, #12]
 800418e:	f7ff ffa3 	bl	80040d8 <HAL_UART_TxHalfCpltCallback>
#endif /* USE_HAL_UART_REGISTER_CALLBACKS */
}
 8004192:	bf00      	nop
 8004194:	3710      	adds	r7, #16
 8004196:	46bd      	mov	sp, r7
 8004198:	bd80      	pop	{r7, pc}

0800419a <UART_DMAReceiveCplt>:
  * @param  hdma  Pointer to a DMA_HandleTypeDef structure that contains
  *               the configuration information for the specified DMA module.
  * @retval None
  */
static void UART_DMAReceiveCplt(DMA_HandleTypeDef *hdma)
{
 800419a:	b580      	push	{r7, lr}
 800419c:	b084      	sub	sp, #16
 800419e:	af00      	add	r7, sp, #0
 80041a0:	6078      	str	r0, [r7, #4]
  UART_HandleTypeDef *huart = (UART_HandleTypeDef *)((DMA_HandleTypeDef *)hdma)->Parent;
 80041a2:	687b      	ldr	r3, [r7, #4]
 80041a4:	6b9b      	ldr	r3, [r3, #56]	; 0x38
 80041a6:	60fb      	str	r3, [r7, #12]
  /* DMA Normal mode*/
  if ((hdma->Instance->CR & DMA_SxCR_CIRC) == 0U)
 80041a8:	687b      	ldr	r3, [r7, #4]
 80041aa:	681b      	ldr	r3, [r3, #0]
 80041ac:	681b      	ldr	r3, [r3, #0]
 80041ae:	f403 7380 	and.w	r3, r3, #256	; 0x100
 80041b2:	2b00      	cmp	r3, #0
 80041b4:	d12a      	bne.n	800420c <UART_DMAReceiveCplt+0x72>
  {
    huart->RxXferCount = 0U;
 80041b6:	68fb      	ldr	r3, [r7, #12]
 80041b8:	2200      	movs	r2, #0
 80041ba:	85da      	strh	r2, [r3, #46]	; 0x2e

    /* Disable RXNE, PE and ERR (Frame error, noise error, overrun error) interrupts */
    CLEAR_BIT(huart->Instance->CR1, USART_CR1_PEIE);
 80041bc:	68fb      	ldr	r3, [r7, #12]
 80041be:	681b      	ldr	r3, [r3, #0]
 80041c0:	68da      	ldr	r2, [r3, #12]
 80041c2:	68fb      	ldr	r3, [r7, #12]
 80041c4:	681b      	ldr	r3, [r3, #0]
 80041c6:	f422 7280 	bic.w	r2, r2, #256	; 0x100
 80041ca:	60da      	str	r2, [r3, #12]
    CLEAR_BIT(huart->Instance->CR3, USART_CR3_EIE);
 80041cc:	68fb      	ldr	r3, [r7, #12]
 80041ce:	681b      	ldr	r3, [r3, #0]
 80041d0:	695a      	ldr	r2, [r3, #20]
 80041d2:	68fb      	ldr	r3, [r7, #12]
 80041d4:	681b      	ldr	r3, [r3, #0]
 80041d6:	f022 0201 	bic.w	r2, r2, #1
 80041da:	615a      	str	r2, [r3, #20]

    /* Disable the DMA transfer for the receiver request by setting the DMAR bit
       in the UART CR3 register */
    CLEAR_BIT(huart->Instance->CR3, USART_CR3_DMAR);
 80041dc:	68fb      	ldr	r3, [r7, #12]
 80041de:	681b      	ldr	r3, [r3, #0]
 80041e0:	695a      	ldr	r2, [r3, #20]
 80041e2:	68fb      	ldr	r3, [r7, #12]
 80041e4:	681b      	ldr	r3, [r3, #0]
 80041e6:	f022 0240 	bic.w	r2, r2, #64	; 0x40
 80041ea:	615a      	str	r2, [r3, #20]

    /* At end of Rx process, restore huart->RxState to Ready */
    huart->RxState = HAL_UART_STATE_READY;
 80041ec:	68fb      	ldr	r3, [r7, #12]
 80041ee:	2220      	movs	r2, #32
 80041f0:	f883 203e 	strb.w	r2, [r3, #62]	; 0x3e

    /* If Reception till IDLE event has been selected, Disable IDLE Interrupt */
    if (huart->ReceptionType == HAL_UART_RECEPTION_TOIDLE)
 80041f4:	68fb      	ldr	r3, [r7, #12]
 80041f6:	6b1b      	ldr	r3, [r3, #48]	; 0x30
 80041f8:	2b01      	cmp	r3, #1
 80041fa:	d107      	bne.n	800420c <UART_DMAReceiveCplt+0x72>
    {
      CLEAR_BIT(huart->Instance->CR1, USART_CR1_IDLEIE);
 80041fc:	68fb      	ldr	r3, [r7, #12]
 80041fe:	681b      	ldr	r3, [r3, #0]
 8004200:	68da      	ldr	r2, [r3, #12]
 8004202:	68fb      	ldr	r3, [r7, #12]
 8004204:	681b      	ldr	r3, [r3, #0]
 8004206:	f022 0210 	bic.w	r2, r2, #16
 800420a:	60da      	str	r2, [r3, #12]
    }
  }

  /* Check current reception Mode :
     If Reception till IDLE event has been selected : use Rx Event callback */
  if (huart->ReceptionType == HAL_UART_RECEPTION_TOIDLE)
 800420c:	68fb      	ldr	r3, [r7, #12]
 800420e:	6b1b      	ldr	r3, [r3, #48]	; 0x30
 8004210:	2b01      	cmp	r3, #1
 8004212:	d106      	bne.n	8004222 <UART_DMAReceiveCplt+0x88>
#if (USE_HAL_UART_REGISTER_CALLBACKS == 1)
    /*Call registered Rx Event callback*/
    huart->RxEventCallback(huart, huart->RxXferSize);
#else
    /*Call legacy weak Rx Event callback*/
    HAL_UARTEx_RxEventCallback(huart, huart->RxXferSize);
 8004214:	68fb      	ldr	r3, [r7, #12]
 8004216:	8d9b      	ldrh	r3, [r3, #44]	; 0x2c
 8004218:	4619      	mov	r1, r3
 800421a:	68f8      	ldr	r0, [r7, #12]
 800421c:	f7ff ff7a 	bl	8004114 <HAL_UARTEx_RxEventCallback>
#else
    /*Call legacy weak Rx complete callback*/
    HAL_UART_RxCpltCallback(huart);
#endif /* USE_HAL_UART_REGISTER_CALLBACKS */
  }
}
 8004220:	e002      	b.n	8004228 <UART_DMAReceiveCplt+0x8e>
    HAL_UART_RxCpltCallback(huart);
 8004222:	68f8      	ldr	r0, [r7, #12]
 8004224:	f7fd f8a0 	bl	8001368 <HAL_UART_RxCpltCallback>
}
 8004228:	bf00      	nop
 800422a:	3710      	adds	r7, #16
 800422c:	46bd      	mov	sp, r7
 800422e:	bd80      	pop	{r7, pc}

08004230 <UART_DMARxHalfCplt>:
  * @param  hdma  Pointer to a DMA_HandleTypeDef structure that contains
  *               the configuration information for the specified DMA module.
  * @retval None
  */
static void UART_DMARxHalfCplt(DMA_HandleTypeDef *hdma)
{
 8004230:	b580      	push	{r7, lr}
 8004232:	b084      	sub	sp, #16
 8004234:	af00      	add	r7, sp, #0
 8004236:	6078      	str	r0, [r7, #4]
  UART_HandleTypeDef *huart = (UART_HandleTypeDef *)((DMA_HandleTypeDef *)hdma)->Parent;
 8004238:	687b      	ldr	r3, [r7, #4]
 800423a:	6b9b      	ldr	r3, [r3, #56]	; 0x38
 800423c:	60fb      	str	r3, [r7, #12]

  /* Check current reception Mode :
     If Reception till IDLE event has been selected : use Rx Event callback */
  if (huart->ReceptionType == HAL_UART_RECEPTION_TOIDLE)
 800423e:	68fb      	ldr	r3, [r7, #12]
 8004240:	6b1b      	ldr	r3, [r3, #48]	; 0x30
 8004242:	2b01      	cmp	r3, #1
 8004244:	d108      	bne.n	8004258 <UART_DMARxHalfCplt+0x28>
#if (USE_HAL_UART_REGISTER_CALLBACKS == 1)
    /*Call registered Rx Event callback*/
    huart->RxEventCallback(huart, huart->RxXferSize/2U);
#else
    /*Call legacy weak Rx Event callback*/
    HAL_UARTEx_RxEventCallback(huart, huart->RxXferSize/2U);
 8004246:	68fb      	ldr	r3, [r7, #12]
 8004248:	8d9b      	ldrh	r3, [r3, #44]	; 0x2c
 800424a:	085b      	lsrs	r3, r3, #1
 800424c:	b29b      	uxth	r3, r3
 800424e:	4619      	mov	r1, r3
 8004250:	68f8      	ldr	r0, [r7, #12]
 8004252:	f7ff ff5f 	bl	8004114 <HAL_UARTEx_RxEventCallback>
#else
    /*Call legacy weak Rx Half complete callback*/
    HAL_UART_RxHalfCpltCallback(huart);
#endif /* USE_HAL_UART_REGISTER_CALLBACKS */
  }
}
 8004256:	e002      	b.n	800425e <UART_DMARxHalfCplt+0x2e>
    HAL_UART_RxHalfCpltCallback(huart);
 8004258:	68f8      	ldr	r0, [r7, #12]
 800425a:	f7ff ff47 	bl	80040ec <HAL_UART_RxHalfCpltCallback>
}
 800425e:	bf00      	nop
 8004260:	3710      	adds	r7, #16
 8004262:	46bd      	mov	sp, r7
 8004264:	bd80      	pop	{r7, pc}

08004266 <UART_DMAError>:
  * @param  hdma  Pointer to a DMA_HandleTypeDef structure that contains
  *               the configuration information for the specified DMA module.
  * @retval None
  */
static void UART_DMAError(DMA_HandleTypeDef *hdma)
{
 8004266:	b580      	push	{r7, lr}
 8004268:	b084      	sub	sp, #16
 800426a:	af00      	add	r7, sp, #0
 800426c:	6078      	str	r0, [r7, #4]
  uint32_t dmarequest = 0x00U;
 800426e:	2300      	movs	r3, #0
 8004270:	60fb      	str	r3, [r7, #12]
  UART_HandleTypeDef *huart = (UART_HandleTypeDef *)((DMA_HandleTypeDef *)hdma)->Parent;
 8004272:	687b      	ldr	r3, [r7, #4]
 8004274:	6b9b      	ldr	r3, [r3, #56]	; 0x38
 8004276:	60bb      	str	r3, [r7, #8]

  /* Stop UART DMA Tx request if ongoing */
  dmarequest = HAL_IS_BIT_SET(huart->Instance->CR3, USART_CR3_DMAT);
 8004278:	68bb      	ldr	r3, [r7, #8]
 800427a:	681b      	ldr	r3, [r3, #0]
 800427c:	695b      	ldr	r3, [r3, #20]
 800427e:	f003 0380 	and.w	r3, r3, #128	; 0x80
 8004282:	2b80      	cmp	r3, #128	; 0x80
 8004284:	bf0c      	ite	eq
 8004286:	2301      	moveq	r3, #1
 8004288:	2300      	movne	r3, #0
 800428a:	b2db      	uxtb	r3, r3
 800428c:	60fb      	str	r3, [r7, #12]
  if ((huart->gState == HAL_UART_STATE_BUSY_TX) && dmarequest)
 800428e:	68bb      	ldr	r3, [r7, #8]
 8004290:	f893 303d 	ldrb.w	r3, [r3, #61]	; 0x3d
 8004294:	b2db      	uxtb	r3, r3
 8004296:	2b21      	cmp	r3, #33	; 0x21
 8004298:	d108      	bne.n	80042ac <UART_DMAError+0x46>
 800429a:	68fb      	ldr	r3, [r7, #12]
 800429c:	2b00      	cmp	r3, #0
 800429e:	d005      	beq.n	80042ac <UART_DMAError+0x46>
  {
    huart->TxXferCount = 0x00U;
 80042a0:	68bb      	ldr	r3, [r7, #8]
 80042a2:	2200      	movs	r2, #0
 80042a4:	84da      	strh	r2, [r3, #38]	; 0x26
    UART_EndTxTransfer(huart);
 80042a6:	68b8      	ldr	r0, [r7, #8]
 80042a8:	f000 f8d6 	bl	8004458 <UART_EndTxTransfer>
  }

  /* Stop UART DMA Rx request if ongoing */
  dmarequest = HAL_IS_BIT_SET(huart->Instance->CR3, USART_CR3_DMAR);
 80042ac:	68bb      	ldr	r3, [r7, #8]
 80042ae:	681b      	ldr	r3, [r3, #0]
 80042b0:	695b      	ldr	r3, [r3, #20]
 80042b2:	f003 0340 	and.w	r3, r3, #64	; 0x40
 80042b6:	2b40      	cmp	r3, #64	; 0x40
 80042b8:	bf0c      	ite	eq
 80042ba:	2301      	moveq	r3, #1
 80042bc:	2300      	movne	r3, #0
 80042be:	b2db      	uxtb	r3, r3
 80042c0:	60fb      	str	r3, [r7, #12]
  if ((huart->RxState == HAL_UART_STATE_BUSY_RX) && dmarequest)
 80042c2:	68bb      	ldr	r3, [r7, #8]
 80042c4:	f893 303e 	ldrb.w	r3, [r3, #62]	; 0x3e
 80042c8:	b2db      	uxtb	r3, r3
 80042ca:	2b22      	cmp	r3, #34	; 0x22
 80042cc:	d108      	bne.n	80042e0 <UART_DMAError+0x7a>
 80042ce:	68fb      	ldr	r3, [r7, #12]
 80042d0:	2b00      	cmp	r3, #0
 80042d2:	d005      	beq.n	80042e0 <UART_DMAError+0x7a>
  {
    huart->RxXferCount = 0x00U;
 80042d4:	68bb      	ldr	r3, [r7, #8]
 80042d6:	2200      	movs	r2, #0
 80042d8:	85da      	strh	r2, [r3, #46]	; 0x2e
    UART_EndRxTransfer(huart);
 80042da:	68b8      	ldr	r0, [r7, #8]
 80042dc:	f000 f8d2 	bl	8004484 <UART_EndRxTransfer>
  }

  huart->ErrorCode |= HAL_UART_ERROR_DMA;
 80042e0:	68bb      	ldr	r3, [r7, #8]
 80042e2:	6c1b      	ldr	r3, [r3, #64]	; 0x40
 80042e4:	f043 0210 	orr.w	r2, r3, #16
 80042e8:	68bb      	ldr	r3, [r7, #8]
 80042ea:	641a      	str	r2, [r3, #64]	; 0x40
#if (USE_HAL_UART_REGISTER_CALLBACKS == 1)
  /*Call registered error callback*/
  huart->ErrorCallback(huart);
#else
  /*Call legacy weak error callback*/
  HAL_UART_ErrorCallback(huart);
 80042ec:	68b8      	ldr	r0, [r7, #8]
 80042ee:	f7ff ff07 	bl	8004100 <HAL_UART_ErrorCallback>
#endif /* USE_HAL_UART_REGISTER_CALLBACKS */
}
 80042f2:	bf00      	nop
 80042f4:	3710      	adds	r7, #16
 80042f6:	46bd      	mov	sp, r7
 80042f8:	bd80      	pop	{r7, pc}

080042fa <UART_WaitOnFlagUntilTimeout>:
  * @param  Tickstart Tick start value
  * @param  Timeout Timeout duration
  * @retval HAL status
  */
static HAL_StatusTypeDef UART_WaitOnFlagUntilTimeout(UART_HandleTypeDef *huart, uint32_t Flag, FlagStatus Status, uint32_t Tickstart, uint32_t Timeout)
{
 80042fa:	b580      	push	{r7, lr}
 80042fc:	b084      	sub	sp, #16
 80042fe:	af00      	add	r7, sp, #0
 8004300:	60f8      	str	r0, [r7, #12]
 8004302:	60b9      	str	r1, [r7, #8]
 8004304:	603b      	str	r3, [r7, #0]
 8004306:	4613      	mov	r3, r2
 8004308:	71fb      	strb	r3, [r7, #7]
  /* Wait until flag is set */
  while ((__HAL_UART_GET_FLAG(huart, Flag) ? SET : RESET) == Status)
 800430a:	e02c      	b.n	8004366 <UART_WaitOnFlagUntilTimeout+0x6c>
  {
    /* Check for the Timeout */
    if (Timeout != HAL_MAX_DELAY)
 800430c:	69bb      	ldr	r3, [r7, #24]
 800430e:	f1b3 3fff 	cmp.w	r3, #4294967295
 8004312:	d028      	beq.n	8004366 <UART_WaitOnFlagUntilTimeout+0x6c>
    {
      if ((Timeout == 0U) || ((HAL_GetTick() - Tickstart) > Timeout))
 8004314:	69bb      	ldr	r3, [r7, #24]
 8004316:	2b00      	cmp	r3, #0
 8004318:	d007      	beq.n	800432a <UART_WaitOnFlagUntilTimeout+0x30>
 800431a:	f7fd fb25 	bl	8001968 <HAL_GetTick>
 800431e:	4602      	mov	r2, r0
 8004320:	683b      	ldr	r3, [r7, #0]
 8004322:	1ad3      	subs	r3, r2, r3
 8004324:	69ba      	ldr	r2, [r7, #24]
 8004326:	429a      	cmp	r2, r3
 8004328:	d21d      	bcs.n	8004366 <UART_WaitOnFlagUntilTimeout+0x6c>
      {
        /* Disable TXE, RXNE, PE and ERR (Frame error, noise error, overrun error) interrupts for the interrupt process */
        CLEAR_BIT(huart->Instance->CR1, (USART_CR1_RXNEIE | USART_CR1_PEIE | USART_CR1_TXEIE));
 800432a:	68fb      	ldr	r3, [r7, #12]
 800432c:	681b      	ldr	r3, [r3, #0]
 800432e:	68da      	ldr	r2, [r3, #12]
 8004330:	68fb      	ldr	r3, [r7, #12]
 8004332:	681b      	ldr	r3, [r3, #0]
 8004334:	f422 72d0 	bic.w	r2, r2, #416	; 0x1a0
 8004338:	60da      	str	r2, [r3, #12]
        CLEAR_BIT(huart->Instance->CR3, USART_CR3_EIE);
 800433a:	68fb      	ldr	r3, [r7, #12]
 800433c:	681b      	ldr	r3, [r3, #0]
 800433e:	695a      	ldr	r2, [r3, #20]
 8004340:	68fb      	ldr	r3, [r7, #12]
 8004342:	681b      	ldr	r3, [r3, #0]
 8004344:	f022 0201 	bic.w	r2, r2, #1
 8004348:	615a      	str	r2, [r3, #20]

        huart->gState  = HAL_UART_STATE_READY;
 800434a:	68fb      	ldr	r3, [r7, #12]
 800434c:	2220      	movs	r2, #32
 800434e:	f883 203d 	strb.w	r2, [r3, #61]	; 0x3d
        huart->RxState = HAL_UART_STATE_READY;
 8004352:	68fb      	ldr	r3, [r7, #12]
 8004354:	2220      	movs	r2, #32
 8004356:	f883 203e 	strb.w	r2, [r3, #62]	; 0x3e

        /* Process Unlocked */
        __HAL_UNLOCK(huart);
 800435a:	68fb      	ldr	r3, [r7, #12]
 800435c:	2200      	movs	r2, #0
 800435e:	f883 203c 	strb.w	r2, [r3, #60]	; 0x3c

        return HAL_TIMEOUT;
 8004362:	2303      	movs	r3, #3
 8004364:	e00f      	b.n	8004386 <UART_WaitOnFlagUntilTimeout+0x8c>
  while ((__HAL_UART_GET_FLAG(huart, Flag) ? SET : RESET) == Status)
 8004366:	68fb      	ldr	r3, [r7, #12]
 8004368:	681b      	ldr	r3, [r3, #0]
 800436a:	681a      	ldr	r2, [r3, #0]
 800436c:	68bb      	ldr	r3, [r7, #8]
 800436e:	4013      	ands	r3, r2
 8004370:	68ba      	ldr	r2, [r7, #8]
 8004372:	429a      	cmp	r2, r3
 8004374:	bf0c      	ite	eq
 8004376:	2301      	moveq	r3, #1
 8004378:	2300      	movne	r3, #0
 800437a:	b2db      	uxtb	r3, r3
 800437c:	461a      	mov	r2, r3
 800437e:	79fb      	ldrb	r3, [r7, #7]
 8004380:	429a      	cmp	r2, r3
 8004382:	d0c3      	beq.n	800430c <UART_WaitOnFlagUntilTimeout+0x12>
      }
    }
  }
  return HAL_OK;
 8004384:	2300      	movs	r3, #0
}
 8004386:	4618      	mov	r0, r3
 8004388:	3710      	adds	r7, #16
 800438a:	46bd      	mov	sp, r7
 800438c:	bd80      	pop	{r7, pc}
	...

08004390 <UART_Start_Receive_DMA>:
  * @param  pData Pointer to data buffer (u8 or u16 data elements).
  * @param  Size  Amount of data elements (u8 or u16) to be received.
  * @retval HAL status
  */
HAL_StatusTypeDef UART_Start_Receive_DMA(UART_HandleTypeDef *huart, uint8_t *pData, uint16_t Size)
{
 8004390:	b580      	push	{r7, lr}
 8004392:	b086      	sub	sp, #24
 8004394:	af00      	add	r7, sp, #0
 8004396:	60f8      	str	r0, [r7, #12]
 8004398:	60b9      	str	r1, [r7, #8]
 800439a:	4613      	mov	r3, r2
 800439c:	80fb      	strh	r3, [r7, #6]
  uint32_t *tmp;

  huart->pRxBuffPtr = pData;
 800439e:	68ba      	ldr	r2, [r7, #8]
 80043a0:	68fb      	ldr	r3, [r7, #12]
 80043a2:	629a      	str	r2, [r3, #40]	; 0x28
  huart->RxXferSize = Size;
 80043a4:	68fb      	ldr	r3, [r7, #12]
 80043a6:	88fa      	ldrh	r2, [r7, #6]
 80043a8:	859a      	strh	r2, [r3, #44]	; 0x2c

  huart->ErrorCode = HAL_UART_ERROR_NONE;
 80043aa:	68fb      	ldr	r3, [r7, #12]
 80043ac:	2200      	movs	r2, #0
 80043ae:	641a      	str	r2, [r3, #64]	; 0x40
  huart->RxState = HAL_UART_STATE_BUSY_RX;
 80043b0:	68fb      	ldr	r3, [r7, #12]
 80043b2:	2222      	movs	r2, #34	; 0x22
 80043b4:	f883 203e 	strb.w	r2, [r3, #62]	; 0x3e

  /* Set the UART DMA transfer complete callback */
  huart->hdmarx->XferCpltCallback = UART_DMAReceiveCplt;
 80043b8:	68fb      	ldr	r3, [r7, #12]
 80043ba:	6b9b      	ldr	r3, [r3, #56]	; 0x38
 80043bc:	4a23      	ldr	r2, [pc, #140]	; (800444c <UART_Start_Receive_DMA+0xbc>)
 80043be:	63da      	str	r2, [r3, #60]	; 0x3c

  /* Set the UART DMA Half transfer complete callback */
  huart->hdmarx->XferHalfCpltCallback = UART_DMARxHalfCplt;
 80043c0:	68fb      	ldr	r3, [r7, #12]
 80043c2:	6b9b      	ldr	r3, [r3, #56]	; 0x38
 80043c4:	4a22      	ldr	r2, [pc, #136]	; (8004450 <UART_Start_Receive_DMA+0xc0>)
 80043c6:	641a      	str	r2, [r3, #64]	; 0x40

  /* Set the DMA error callback */
  huart->hdmarx->XferErrorCallback = UART_DMAError;
 80043c8:	68fb      	ldr	r3, [r7, #12]
 80043ca:	6b9b      	ldr	r3, [r3, #56]	; 0x38
 80043cc:	4a21      	ldr	r2, [pc, #132]	; (8004454 <UART_Start_Receive_DMA+0xc4>)
 80043ce:	64da      	str	r2, [r3, #76]	; 0x4c

  /* Set the DMA abort callback */
  huart->hdmarx->XferAbortCallback = NULL;
 80043d0:	68fb      	ldr	r3, [r7, #12]
 80043d2:	6b9b      	ldr	r3, [r3, #56]	; 0x38
 80043d4:	2200      	movs	r2, #0
 80043d6:	651a      	str	r2, [r3, #80]	; 0x50

  /* Enable the DMA stream */
  tmp = (uint32_t *)&pData;
 80043d8:	f107 0308 	add.w	r3, r7, #8
 80043dc:	617b      	str	r3, [r7, #20]
  HAL_DMA_Start_IT(huart->hdmarx, (uint32_t)&huart->Instance->DR, *(uint32_t *)tmp, Size);
 80043de:	68fb      	ldr	r3, [r7, #12]
 80043e0:	6b98      	ldr	r0, [r3, #56]	; 0x38
 80043e2:	68fb      	ldr	r3, [r7, #12]
 80043e4:	681b      	ldr	r3, [r3, #0]
 80043e6:	3304      	adds	r3, #4
 80043e8:	4619      	mov	r1, r3
 80043ea:	697b      	ldr	r3, [r7, #20]
 80043ec:	681a      	ldr	r2, [r3, #0]
 80043ee:	88fb      	ldrh	r3, [r7, #6]
 80043f0:	f7fe f8ba 	bl	8002568 <HAL_DMA_Start_IT>

  /* Clear the Overrun flag just before enabling the DMA Rx request: can be mandatory for the second transfer */
  __HAL_UART_CLEAR_OREFLAG(huart);
 80043f4:	2300      	movs	r3, #0
 80043f6:	613b      	str	r3, [r7, #16]
 80043f8:	68fb      	ldr	r3, [r7, #12]
 80043fa:	681b      	ldr	r3, [r3, #0]
 80043fc:	681b      	ldr	r3, [r3, #0]
 80043fe:	613b      	str	r3, [r7, #16]
 8004400:	68fb      	ldr	r3, [r7, #12]
 8004402:	681b      	ldr	r3, [r3, #0]
 8004404:	685b      	ldr	r3, [r3, #4]
 8004406:	613b      	str	r3, [r7, #16]
 8004408:	693b      	ldr	r3, [r7, #16]

  /* Process Unlocked */
  __HAL_UNLOCK(huart);
 800440a:	68fb      	ldr	r3, [r7, #12]
 800440c:	2200      	movs	r2, #0
 800440e:	f883 203c 	strb.w	r2, [r3, #60]	; 0x3c

  /* Enable the UART Parity Error Interrupt */
  SET_BIT(huart->Instance->CR1, USART_CR1_PEIE);
 8004412:	68fb      	ldr	r3, [r7, #12]
 8004414:	681b      	ldr	r3, [r3, #0]
 8004416:	68da      	ldr	r2, [r3, #12]
 8004418:	68fb      	ldr	r3, [r7, #12]
 800441a:	681b      	ldr	r3, [r3, #0]
 800441c:	f442 7280 	orr.w	r2, r2, #256	; 0x100
 8004420:	60da      	str	r2, [r3, #12]

  /* Enable the UART Error Interrupt: (Frame error, noise error, overrun error) */
  SET_BIT(huart->Instance->CR3, USART_CR3_EIE);
 8004422:	68fb      	ldr	r3, [r7, #12]
 8004424:	681b      	ldr	r3, [r3, #0]
 8004426:	695a      	ldr	r2, [r3, #20]
 8004428:	68fb      	ldr	r3, [r7, #12]
 800442a:	681b      	ldr	r3, [r3, #0]
 800442c:	f042 0201 	orr.w	r2, r2, #1
 8004430:	615a      	str	r2, [r3, #20]

  /* Enable the DMA transfer for the receiver request by setting the DMAR bit
  in the UART CR3 register */
  SET_BIT(huart->Instance->CR3, USART_CR3_DMAR);
 8004432:	68fb      	ldr	r3, [r7, #12]
 8004434:	681b      	ldr	r3, [r3, #0]
 8004436:	695a      	ldr	r2, [r3, #20]
 8004438:	68fb      	ldr	r3, [r7, #12]
 800443a:	681b      	ldr	r3, [r3, #0]
 800443c:	f042 0240 	orr.w	r2, r2, #64	; 0x40
 8004440:	615a      	str	r2, [r3, #20]

  return HAL_OK;
 8004442:	2300      	movs	r3, #0
}
 8004444:	4618      	mov	r0, r3
 8004446:	3718      	adds	r7, #24
 8004448:	46bd      	mov	sp, r7
 800444a:	bd80      	pop	{r7, pc}
 800444c:	0800419b 	.word	0x0800419b
 8004450:	08004231 	.word	0x08004231
 8004454:	08004267 	.word	0x08004267

08004458 <UART_EndTxTransfer>:
  * @brief  End ongoing Tx transfer on UART peripheral (following error detection or Transmit completion).
  * @param  huart UART handle.
  * @retval None
  */
static void UART_EndTxTransfer(UART_HandleTypeDef *huart)
{
 8004458:	b480      	push	{r7}
 800445a:	b083      	sub	sp, #12
 800445c:	af00      	add	r7, sp, #0
 800445e:	6078      	str	r0, [r7, #4]
  /* Disable TXEIE and TCIE interrupts */
  CLEAR_BIT(huart->Instance->CR1, (USART_CR1_TXEIE | USART_CR1_TCIE));
 8004460:	687b      	ldr	r3, [r7, #4]
 8004462:	681b      	ldr	r3, [r3, #0]
 8004464:	68da      	ldr	r2, [r3, #12]
 8004466:	687b      	ldr	r3, [r7, #4]
 8004468:	681b      	ldr	r3, [r3, #0]
 800446a:	f022 02c0 	bic.w	r2, r2, #192	; 0xc0
 800446e:	60da      	str	r2, [r3, #12]

  /* At end of Tx process, restore huart->gState to Ready */
  huart->gState = HAL_UART_STATE_READY;
 8004470:	687b      	ldr	r3, [r7, #4]
 8004472:	2220      	movs	r2, #32
 8004474:	f883 203d 	strb.w	r2, [r3, #61]	; 0x3d
}
 8004478:	bf00      	nop
 800447a:	370c      	adds	r7, #12
 800447c:	46bd      	mov	sp, r7
 800447e:	f85d 7b04 	ldr.w	r7, [sp], #4
 8004482:	4770      	bx	lr

08004484 <UART_EndRxTransfer>:
  * @brief  End ongoing Rx transfer on UART peripheral (following error detection or Reception completion).
  * @param  huart UART handle.
  * @retval None
  */
static void UART_EndRxTransfer(UART_HandleTypeDef *huart)
{
 8004484:	b480      	push	{r7}
 8004486:	b083      	sub	sp, #12
 8004488:	af00      	add	r7, sp, #0
 800448a:	6078      	str	r0, [r7, #4]
  /* Disable RXNE, PE and ERR (Frame error, noise error, overrun error) interrupts */
  CLEAR_BIT(huart->Instance->CR1, (USART_CR1_RXNEIE | USART_CR1_PEIE));
 800448c:	687b      	ldr	r3, [r7, #4]
 800448e:	681b      	ldr	r3, [r3, #0]
 8004490:	68da      	ldr	r2, [r3, #12]
 8004492:	687b      	ldr	r3, [r7, #4]
 8004494:	681b      	ldr	r3, [r3, #0]
 8004496:	f422 7290 	bic.w	r2, r2, #288	; 0x120
 800449a:	60da      	str	r2, [r3, #12]
  CLEAR_BIT(huart->Instance->CR3, USART_CR3_EIE);
 800449c:	687b      	ldr	r3, [r7, #4]
 800449e:	681b      	ldr	r3, [r3, #0]
 80044a0:	695a      	ldr	r2, [r3, #20]
 80044a2:	687b      	ldr	r3, [r7, #4]
 80044a4:	681b      	ldr	r3, [r3, #0]
 80044a6:	f022 0201 	bic.w	r2, r2, #1
 80044aa:	615a      	str	r2, [r3, #20]

  /* In case of reception waiting for IDLE event, disable also the IDLE IE interrupt source */
  if (huart->ReceptionType == HAL_UART_RECEPTION_TOIDLE)
 80044ac:	687b      	ldr	r3, [r7, #4]
 80044ae:	6b1b      	ldr	r3, [r3, #48]	; 0x30
 80044b0:	2b01      	cmp	r3, #1
 80044b2:	d107      	bne.n	80044c4 <UART_EndRxTransfer+0x40>
  {
    CLEAR_BIT(huart->Instance->CR1, USART_CR1_IDLEIE);
 80044b4:	687b      	ldr	r3, [r7, #4]
 80044b6:	681b      	ldr	r3, [r3, #0]
 80044b8:	68da      	ldr	r2, [r3, #12]
 80044ba:	687b      	ldr	r3, [r7, #4]
 80044bc:	681b      	ldr	r3, [r3, #0]
 80044be:	f022 0210 	bic.w	r2, r2, #16
 80044c2:	60da      	str	r2, [r3, #12]
  }

  /* At end of Rx process, restore huart->RxState to Ready */
  huart->RxState = HAL_UART_STATE_READY;
 80044c4:	687b      	ldr	r3, [r7, #4]
 80044c6:	2220      	movs	r2, #32
 80044c8:	f883 203e 	strb.w	r2, [r3, #62]	; 0x3e
  huart->ReceptionType = HAL_UART_RECEPTION_STANDARD;
 80044cc:	687b      	ldr	r3, [r7, #4]
 80044ce:	2200      	movs	r2, #0
 80044d0:	631a      	str	r2, [r3, #48]	; 0x30
}
 80044d2:	bf00      	nop
 80044d4:	370c      	adds	r7, #12
 80044d6:	46bd      	mov	sp, r7
 80044d8:	f85d 7b04 	ldr.w	r7, [sp], #4
 80044dc:	4770      	bx	lr

080044de <UART_DMAAbortOnError>:
  * @param  hdma  Pointer to a DMA_HandleTypeDef structure that contains
  *               the configuration information for the specified DMA module.
  * @retval None
  */
static void UART_DMAAbortOnError(DMA_HandleTypeDef *hdma)
{
 80044de:	b580      	push	{r7, lr}
 80044e0:	b084      	sub	sp, #16
 80044e2:	af00      	add	r7, sp, #0
 80044e4:	6078      	str	r0, [r7, #4]
  UART_HandleTypeDef *huart = (UART_HandleTypeDef *)((DMA_HandleTypeDef *)hdma)->Parent;
 80044e6:	687b      	ldr	r3, [r7, #4]
 80044e8:	6b9b      	ldr	r3, [r3, #56]	; 0x38
 80044ea:	60fb      	str	r3, [r7, #12]
  huart->RxXferCount = 0x00U;
 80044ec:	68fb      	ldr	r3, [r7, #12]
 80044ee:	2200      	movs	r2, #0
 80044f0:	85da      	strh	r2, [r3, #46]	; 0x2e
  huart->TxXferCount = 0x00U;
 80044f2:	68fb      	ldr	r3, [r7, #12]
 80044f4:	2200      	movs	r2, #0
 80044f6:	84da      	strh	r2, [r3, #38]	; 0x26
#if (USE_HAL_UART_REGISTER_CALLBACKS == 1)
  /*Call registered error callback*/
  huart->ErrorCallback(huart);
#else
  /*Call legacy weak error callback*/
  HAL_UART_ErrorCallback(huart);
 80044f8:	68f8      	ldr	r0, [r7, #12]
 80044fa:	f7ff fe01 	bl	8004100 <HAL_UART_ErrorCallback>
#endif /* USE_HAL_UART_REGISTER_CALLBACKS */
}
 80044fe:	bf00      	nop
 8004500:	3710      	adds	r7, #16
 8004502:	46bd      	mov	sp, r7
 8004504:	bd80      	pop	{r7, pc}

08004506 <UART_Transmit_IT>:
  * @param  huart  Pointer to a UART_HandleTypeDef structure that contains
  *                the configuration information for the specified UART module.
  * @retval HAL status
  */
static HAL_StatusTypeDef UART_Transmit_IT(UART_HandleTypeDef *huart)
{
 8004506:	b480      	push	{r7}
 8004508:	b085      	sub	sp, #20
 800450a:	af00      	add	r7, sp, #0
 800450c:	6078      	str	r0, [r7, #4]
  uint16_t *tmp;

  /* Check that a Tx process is ongoing */
  if (huart->gState == HAL_UART_STATE_BUSY_TX)
 800450e:	687b      	ldr	r3, [r7, #4]
 8004510:	f893 303d 	ldrb.w	r3, [r3, #61]	; 0x3d
 8004514:	b2db      	uxtb	r3, r3
 8004516:	2b21      	cmp	r3, #33	; 0x21
 8004518:	d13e      	bne.n	8004598 <UART_Transmit_IT+0x92>
  {
    if ((huart->Init.WordLength == UART_WORDLENGTH_9B) && (huart->Init.Parity == UART_PARITY_NONE))
 800451a:	687b      	ldr	r3, [r7, #4]
 800451c:	689b      	ldr	r3, [r3, #8]
 800451e:	f5b3 5f80 	cmp.w	r3, #4096	; 0x1000
 8004522:	d114      	bne.n	800454e <UART_Transmit_IT+0x48>
 8004524:	687b      	ldr	r3, [r7, #4]
 8004526:	691b      	ldr	r3, [r3, #16]
 8004528:	2b00      	cmp	r3, #0
 800452a:	d110      	bne.n	800454e <UART_Transmit_IT+0x48>
    {
      tmp = (uint16_t *) huart->pTxBuffPtr;
 800452c:	687b      	ldr	r3, [r7, #4]
 800452e:	6a1b      	ldr	r3, [r3, #32]
 8004530:	60fb      	str	r3, [r7, #12]
      huart->Instance->DR = (uint16_t)(*tmp & (uint16_t)0x01FF);
 8004532:	68fb      	ldr	r3, [r7, #12]
 8004534:	881b      	ldrh	r3, [r3, #0]
 8004536:	461a      	mov	r2, r3
 8004538:	687b      	ldr	r3, [r7, #4]
 800453a:	681b      	ldr	r3, [r3, #0]
 800453c:	f3c2 0208 	ubfx	r2, r2, #0, #9
 8004540:	605a      	str	r2, [r3, #4]
      huart->pTxBuffPtr += 2U;
 8004542:	687b      	ldr	r3, [r7, #4]
 8004544:	6a1b      	ldr	r3, [r3, #32]
 8004546:	1c9a      	adds	r2, r3, #2
 8004548:	687b      	ldr	r3, [r7, #4]
 800454a:	621a      	str	r2, [r3, #32]
 800454c:	e008      	b.n	8004560 <UART_Transmit_IT+0x5a>
    }
    else
    {
      huart->Instance->DR = (uint8_t)(*huart->pTxBuffPtr++ & (uint8_t)0x00FF);
 800454e:	687b      	ldr	r3, [r7, #4]
 8004550:	6a1b      	ldr	r3, [r3, #32]
 8004552:	1c59      	adds	r1, r3, #1
 8004554:	687a      	ldr	r2, [r7, #4]
 8004556:	6211      	str	r1, [r2, #32]
 8004558:	781a      	ldrb	r2, [r3, #0]
 800455a:	687b      	ldr	r3, [r7, #4]
 800455c:	681b      	ldr	r3, [r3, #0]
 800455e:	605a      	str	r2, [r3, #4]
    }

    if (--huart->TxXferCount == 0U)
 8004560:	687b      	ldr	r3, [r7, #4]
 8004562:	8cdb      	ldrh	r3, [r3, #38]	; 0x26
 8004564:	b29b      	uxth	r3, r3
 8004566:	3b01      	subs	r3, #1
 8004568:	b29b      	uxth	r3, r3
 800456a:	687a      	ldr	r2, [r7, #4]
 800456c:	4619      	mov	r1, r3
 800456e:	84d1      	strh	r1, [r2, #38]	; 0x26
 8004570:	2b00      	cmp	r3, #0
 8004572:	d10f      	bne.n	8004594 <UART_Transmit_IT+0x8e>
    {
      /* Disable the UART Transmit Complete Interrupt */
      __HAL_UART_DISABLE_IT(huart, UART_IT_TXE);
 8004574:	687b      	ldr	r3, [r7, #4]
 8004576:	681b      	ldr	r3, [r3, #0]
 8004578:	68da      	ldr	r2, [r3, #12]
 800457a:	687b      	ldr	r3, [r7, #4]
 800457c:	681b      	ldr	r3, [r3, #0]
 800457e:	f022 0280 	bic.w	r2, r2, #128	; 0x80
 8004582:	60da      	str	r2, [r3, #12]

      /* Enable the UART Transmit Complete Interrupt */
      __HAL_UART_ENABLE_IT(huart, UART_IT_TC);
 8004584:	687b      	ldr	r3, [r7, #4]
 8004586:	681b      	ldr	r3, [r3, #0]
 8004588:	68da      	ldr	r2, [r3, #12]
 800458a:	687b      	ldr	r3, [r7, #4]
 800458c:	681b      	ldr	r3, [r3, #0]
 800458e:	f042 0240 	orr.w	r2, r2, #64	; 0x40
 8004592:	60da      	str	r2, [r3, #12]
    }
    return HAL_OK;
 8004594:	2300      	movs	r3, #0
 8004596:	e000      	b.n	800459a <UART_Transmit_IT+0x94>
  }
  else
  {
    return HAL_BUSY;
 8004598:	2302      	movs	r3, #2
  }
}
 800459a:	4618      	mov	r0, r3
 800459c:	3714      	adds	r7, #20
 800459e:	46bd      	mov	sp, r7
 80045a0:	f85d 7b04 	ldr.w	r7, [sp], #4
 80045a4:	4770      	bx	lr

080045a6 <UART_EndTransmit_IT>:
  * @param  huart  Pointer to a UART_HandleTypeDef structure that contains
  *                the configuration information for the specified UART module.
  * @retval HAL status
  */
static HAL_StatusTypeDef UART_EndTransmit_IT(UART_HandleTypeDef *huart)
{
 80045a6:	b580      	push	{r7, lr}
 80045a8:	b082      	sub	sp, #8
 80045aa:	af00      	add	r7, sp, #0
 80045ac:	6078      	str	r0, [r7, #4]
  /* Disable the UART Transmit Complete Interrupt */
  __HAL_UART_DISABLE_IT(huart, UART_IT_TC);
 80045ae:	687b      	ldr	r3, [r7, #4]
 80045b0:	681b      	ldr	r3, [r3, #0]
 80045b2:	68da      	ldr	r2, [r3, #12]
 80045b4:	687b      	ldr	r3, [r7, #4]
 80045b6:	681b      	ldr	r3, [r3, #0]
 80045b8:	f022 0240 	bic.w	r2, r2, #64	; 0x40
 80045bc:	60da      	str	r2, [r3, #12]

  /* Tx process is ended, restore huart->gState to Ready */
  huart->gState = HAL_UART_STATE_READY;
 80045be:	687b      	ldr	r3, [r7, #4]
 80045c0:	2220      	movs	r2, #32
 80045c2:	f883 203d 	strb.w	r2, [r3, #61]	; 0x3d
#if (USE_HAL_UART_REGISTER_CALLBACKS == 1)
  /*Call registered Tx complete callback*/
  huart->TxCpltCallback(huart);
#else
  /*Call legacy weak Tx complete callback*/
  HAL_UART_TxCpltCallback(huart);
 80045c6:	6878      	ldr	r0, [r7, #4]
 80045c8:	f7ff fd7c 	bl	80040c4 <HAL_UART_TxCpltCallback>
#endif /* USE_HAL_UART_REGISTER_CALLBACKS */

  return HAL_OK;
 80045cc:	2300      	movs	r3, #0
}
 80045ce:	4618      	mov	r0, r3
 80045d0:	3708      	adds	r7, #8
 80045d2:	46bd      	mov	sp, r7
 80045d4:	bd80      	pop	{r7, pc}

080045d6 <UART_Receive_IT>:
  * @param  huart  Pointer to a UART_HandleTypeDef structure that contains
  *                the configuration information for the specified UART module.
  * @retval HAL status
  */
static HAL_StatusTypeDef UART_Receive_IT(UART_HandleTypeDef *huart)
{
 80045d6:	b580      	push	{r7, lr}
 80045d8:	b084      	sub	sp, #16
 80045da:	af00      	add	r7, sp, #0
 80045dc:	6078      	str	r0, [r7, #4]
  uint8_t  *pdata8bits;
  uint16_t *pdata16bits;

  /* Check that a Rx process is ongoing */
  if (huart->RxState == HAL_UART_STATE_BUSY_RX)
 80045de:	687b      	ldr	r3, [r7, #4]
 80045e0:	f893 303e 	ldrb.w	r3, [r3, #62]	; 0x3e
 80045e4:	b2db      	uxtb	r3, r3
 80045e6:	2b22      	cmp	r3, #34	; 0x22
 80045e8:	f040 8087 	bne.w	80046fa <UART_Receive_IT+0x124>
  {
    if ((huart->Init.WordLength == UART_WORDLENGTH_9B) && (huart->Init.Parity == UART_PARITY_NONE))
 80045ec:	687b      	ldr	r3, [r7, #4]
 80045ee:	689b      	ldr	r3, [r3, #8]
 80045f0:	f5b3 5f80 	cmp.w	r3, #4096	; 0x1000
 80045f4:	d117      	bne.n	8004626 <UART_Receive_IT+0x50>
 80045f6:	687b      	ldr	r3, [r7, #4]
 80045f8:	691b      	ldr	r3, [r3, #16]
 80045fa:	2b00      	cmp	r3, #0
 80045fc:	d113      	bne.n	8004626 <UART_Receive_IT+0x50>
    {
      pdata8bits  = NULL;
 80045fe:	2300      	movs	r3, #0
 8004600:	60fb      	str	r3, [r7, #12]
      pdata16bits = (uint16_t *) huart->pRxBuffPtr;
 8004602:	687b      	ldr	r3, [r7, #4]
 8004604:	6a9b      	ldr	r3, [r3, #40]	; 0x28
 8004606:	60bb      	str	r3, [r7, #8]
      *pdata16bits = (uint16_t)(huart->Instance->DR & (uint16_t)0x01FF);
 8004608:	687b      	ldr	r3, [r7, #4]
 800460a:	681b      	ldr	r3, [r3, #0]
 800460c:	685b      	ldr	r3, [r3, #4]
 800460e:	b29b      	uxth	r3, r3
 8004610:	f3c3 0308 	ubfx	r3, r3, #0, #9
 8004614:	b29a      	uxth	r2, r3
 8004616:	68bb      	ldr	r3, [r7, #8]
 8004618:	801a      	strh	r2, [r3, #0]
      huart->pRxBuffPtr += 2U;
 800461a:	687b      	ldr	r3, [r7, #4]
 800461c:	6a9b      	ldr	r3, [r3, #40]	; 0x28
 800461e:	1c9a      	adds	r2, r3, #2
 8004620:	687b      	ldr	r3, [r7, #4]
 8004622:	629a      	str	r2, [r3, #40]	; 0x28
 8004624:	e026      	b.n	8004674 <UART_Receive_IT+0x9e>
    }
    else
    {
      pdata8bits = (uint8_t *) huart->pRxBuffPtr;
 8004626:	687b      	ldr	r3, [r7, #4]
 8004628:	6a9b      	ldr	r3, [r3, #40]	; 0x28
 800462a:	60fb      	str	r3, [r7, #12]
      pdata16bits  = NULL;
 800462c:	2300      	movs	r3, #0
 800462e:	60bb      	str	r3, [r7, #8]

      if ((huart->Init.WordLength == UART_WORDLENGTH_9B) || ((huart->Init.WordLength == UART_WORDLENGTH_8B) && (huart->Init.Parity == UART_PARITY_NONE)))
 8004630:	687b      	ldr	r3, [r7, #4]
 8004632:	689b      	ldr	r3, [r3, #8]
 8004634:	f5b3 5f80 	cmp.w	r3, #4096	; 0x1000
 8004638:	d007      	beq.n	800464a <UART_Receive_IT+0x74>
 800463a:	687b      	ldr	r3, [r7, #4]
 800463c:	689b      	ldr	r3, [r3, #8]
 800463e:	2b00      	cmp	r3, #0
 8004640:	d10a      	bne.n	8004658 <UART_Receive_IT+0x82>
 8004642:	687b      	ldr	r3, [r7, #4]
 8004644:	691b      	ldr	r3, [r3, #16]
 8004646:	2b00      	cmp	r3, #0
 8004648:	d106      	bne.n	8004658 <UART_Receive_IT+0x82>
      {
        *pdata8bits = (uint8_t)(huart->Instance->DR & (uint8_t)0x00FF);
 800464a:	687b      	ldr	r3, [r7, #4]
 800464c:	681b      	ldr	r3, [r3, #0]
 800464e:	685b      	ldr	r3, [r3, #4]
 8004650:	b2da      	uxtb	r2, r3
 8004652:	68fb      	ldr	r3, [r7, #12]
 8004654:	701a      	strb	r2, [r3, #0]
 8004656:	e008      	b.n	800466a <UART_Receive_IT+0x94>
      }
      else
      {
        *pdata8bits = (uint8_t)(huart->Instance->DR & (uint8_t)0x007F);
 8004658:	687b      	ldr	r3, [r7, #4]
 800465a:	681b      	ldr	r3, [r3, #0]
 800465c:	685b      	ldr	r3, [r3, #4]
 800465e:	b2db      	uxtb	r3, r3
 8004660:	f003 037f 	and.w	r3, r3, #127	; 0x7f
 8004664:	b2da      	uxtb	r2, r3
 8004666:	68fb      	ldr	r3, [r7, #12]
 8004668:	701a      	strb	r2, [r3, #0]
      }
      huart->pRxBuffPtr += 1U;
 800466a:	687b      	ldr	r3, [r7, #4]
 800466c:	6a9b      	ldr	r3, [r3, #40]	; 0x28
 800466e:	1c5a      	adds	r2, r3, #1
 8004670:	687b      	ldr	r3, [r7, #4]
 8004672:	629a      	str	r2, [r3, #40]	; 0x28
    }

    if (--huart->RxXferCount == 0U)
 8004674:	687b      	ldr	r3, [r7, #4]
 8004676:	8ddb      	ldrh	r3, [r3, #46]	; 0x2e
 8004678:	b29b      	uxth	r3, r3
 800467a:	3b01      	subs	r3, #1
 800467c:	b29b      	uxth	r3, r3
 800467e:	687a      	ldr	r2, [r7, #4]
 8004680:	4619      	mov	r1, r3
 8004682:	85d1      	strh	r1, [r2, #46]	; 0x2e
 8004684:	2b00      	cmp	r3, #0
 8004686:	d136      	bne.n	80046f6 <UART_Receive_IT+0x120>
    {
      /* Disable the UART Data Register not empty Interrupt */
      __HAL_UART_DISABLE_IT(huart, UART_IT_RXNE);
 8004688:	687b      	ldr	r3, [r7, #4]
 800468a:	681b      	ldr	r3, [r3, #0]
 800468c:	68da      	ldr	r2, [r3, #12]
 800468e:	687b      	ldr	r3, [r7, #4]
 8004690:	681b      	ldr	r3, [r3, #0]
 8004692:	f022 0220 	bic.w	r2, r2, #32
 8004696:	60da      	str	r2, [r3, #12]

      /* Disable the UART Parity Error Interrupt */
      __HAL_UART_DISABLE_IT(huart, UART_IT_PE);
 8004698:	687b      	ldr	r3, [r7, #4]
 800469a:	681b      	ldr	r3, [r3, #0]
 800469c:	68da      	ldr	r2, [r3, #12]
 800469e:	687b      	ldr	r3, [r7, #4]
 80046a0:	681b      	ldr	r3, [r3, #0]
 80046a2:	f422 7280 	bic.w	r2, r2, #256	; 0x100
 80046a6:	60da      	str	r2, [r3, #12]

      /* Disable the UART Error Interrupt: (Frame error, noise error, overrun error) */
      __HAL_UART_DISABLE_IT(huart, UART_IT_ERR);
 80046a8:	687b      	ldr	r3, [r7, #4]
 80046aa:	681b      	ldr	r3, [r3, #0]
 80046ac:	695a      	ldr	r2, [r3, #20]
 80046ae:	687b      	ldr	r3, [r7, #4]
 80046b0:	681b      	ldr	r3, [r3, #0]
 80046b2:	f022 0201 	bic.w	r2, r2, #1
 80046b6:	615a      	str	r2, [r3, #20]

      /* Rx process is completed, restore huart->RxState to Ready */
      huart->RxState = HAL_UART_STATE_READY;
 80046b8:	687b      	ldr	r3, [r7, #4]
 80046ba:	2220      	movs	r2, #32
 80046bc:	f883 203e 	strb.w	r2, [r3, #62]	; 0x3e

      /* Check current reception Mode :
         If Reception till IDLE event has been selected : */
      if (huart->ReceptionType == HAL_UART_RECEPTION_TOIDLE)
 80046c0:	687b      	ldr	r3, [r7, #4]
 80046c2:	6b1b      	ldr	r3, [r3, #48]	; 0x30
 80046c4:	2b01      	cmp	r3, #1
 80046c6:	d10e      	bne.n	80046e6 <UART_Receive_IT+0x110>
      {
        /* Disable IDLE interrupt */
        CLEAR_BIT(huart->Instance->CR1, USART_CR1_IDLEIE);
 80046c8:	687b      	ldr	r3, [r7, #4]
 80046ca:	681b      	ldr	r3, [r3, #0]
 80046cc:	68da      	ldr	r2, [r3, #12]
 80046ce:	687b      	ldr	r3, [r7, #4]
 80046d0:	681b      	ldr	r3, [r3, #0]
 80046d2:	f022 0210 	bic.w	r2, r2, #16
 80046d6:	60da      	str	r2, [r3, #12]
#if (USE_HAL_UART_REGISTER_CALLBACKS == 1)
        /*Call registered Rx Event callback*/
        huart->RxEventCallback(huart, huart->RxXferSize);
#else
        /*Call legacy weak Rx Event callback*/
        HAL_UARTEx_RxEventCallback(huart, huart->RxXferSize);
 80046d8:	687b      	ldr	r3, [r7, #4]
 80046da:	8d9b      	ldrh	r3, [r3, #44]	; 0x2c
 80046dc:	4619      	mov	r1, r3
 80046de:	6878      	ldr	r0, [r7, #4]
 80046e0:	f7ff fd18 	bl	8004114 <HAL_UARTEx_RxEventCallback>
 80046e4:	e002      	b.n	80046ec <UART_Receive_IT+0x116>
#if (USE_HAL_UART_REGISTER_CALLBACKS == 1)		  
       /*Call registered Rx complete callback*/
       huart->RxCpltCallback(huart);
#else
       /*Call legacy weak Rx complete callback*/
       HAL_UART_RxCpltCallback(huart);
 80046e6:	6878      	ldr	r0, [r7, #4]
 80046e8:	f7fc fe3e 	bl	8001368 <HAL_UART_RxCpltCallback>
#endif /* USE_HAL_UART_REGISTER_CALLBACKS */
      }
      huart->ReceptionType = HAL_UART_RECEPTION_STANDARD;
 80046ec:	687b      	ldr	r3, [r7, #4]
 80046ee:	2200      	movs	r2, #0
 80046f0:	631a      	str	r2, [r3, #48]	; 0x30
      return HAL_OK;
 80046f2:	2300      	movs	r3, #0
 80046f4:	e002      	b.n	80046fc <UART_Receive_IT+0x126>
    }
    return HAL_OK;
 80046f6:	2300      	movs	r3, #0
 80046f8:	e000      	b.n	80046fc <UART_Receive_IT+0x126>
  }
  else
  {
    return HAL_BUSY;
 80046fa:	2302      	movs	r3, #2
  }
}
 80046fc:	4618      	mov	r0, r3
 80046fe:	3710      	adds	r7, #16
 8004700:	46bd      	mov	sp, r7
 8004702:	bd80      	pop	{r7, pc}

08004704 <UART_SetConfig>:
  * @param  huart  Pointer to a UART_HandleTypeDef structure that contains
  *                the configuration information for the specified UART module.
  * @retval None
  */
static void UART_SetConfig(UART_HandleTypeDef *huart)
{
 8004704:	e92d 4ff0 	stmdb	sp!, {r4, r5, r6, r7, r8, r9, sl, fp, lr}
 8004708:	b09f      	sub	sp, #124	; 0x7c
 800470a:	af00      	add	r7, sp, #0
 800470c:	66f8      	str	r0, [r7, #108]	; 0x6c
  assert_param(IS_UART_MODE(huart->Init.Mode));

  /*-------------------------- USART CR2 Configuration -----------------------*/
  /* Configure the UART Stop Bits: Set STOP[13:12] bits
     according to huart->Init.StopBits value */
  MODIFY_REG(huart->Instance->CR2, USART_CR2_STOP, huart->Init.StopBits);
 800470e:	6efb      	ldr	r3, [r7, #108]	; 0x6c
 8004710:	681b      	ldr	r3, [r3, #0]
 8004712:	691b      	ldr	r3, [r3, #16]
 8004714:	f423 5040 	bic.w	r0, r3, #12288	; 0x3000
 8004718:	6efb      	ldr	r3, [r7, #108]	; 0x6c
 800471a:	68d9      	ldr	r1, [r3, #12]
 800471c:	6efb      	ldr	r3, [r7, #108]	; 0x6c
 800471e:	681a      	ldr	r2, [r3, #0]
 8004720:	ea40 0301 	orr.w	r3, r0, r1
 8004724:	6113      	str	r3, [r2, #16]
     Set the M bits according to huart->Init.WordLength value
     Set PCE and PS bits according to huart->Init.Parity value
     Set TE and RE bits according to huart->Init.Mode value
     Set OVER8 bit according to huart->Init.OverSampling value */

  tmpreg = (uint32_t)huart->Init.WordLength | huart->Init.Parity | huart->Init.Mode | huart->Init.OverSampling;
 8004726:	6efb      	ldr	r3, [r7, #108]	; 0x6c
 8004728:	689a      	ldr	r2, [r3, #8]
 800472a:	6efb      	ldr	r3, [r7, #108]	; 0x6c
 800472c:	691b      	ldr	r3, [r3, #16]
 800472e:	431a      	orrs	r2, r3
 8004730:	6efb      	ldr	r3, [r7, #108]	; 0x6c
 8004732:	695b      	ldr	r3, [r3, #20]
 8004734:	431a      	orrs	r2, r3
 8004736:	6efb      	ldr	r3, [r7, #108]	; 0x6c
 8004738:	69db      	ldr	r3, [r3, #28]
 800473a:	4313      	orrs	r3, r2
 800473c:	673b      	str	r3, [r7, #112]	; 0x70
  MODIFY_REG(huart->Instance->CR1,
 800473e:	6efb      	ldr	r3, [r7, #108]	; 0x6c
 8004740:	681b      	ldr	r3, [r3, #0]
 8004742:	68db      	ldr	r3, [r3, #12]
 8004744:	f423 4116 	bic.w	r1, r3, #38400	; 0x9600
 8004748:	f021 010c 	bic.w	r1, r1, #12
 800474c:	6efb      	ldr	r3, [r7, #108]	; 0x6c
 800474e:	681a      	ldr	r2, [r3, #0]
 8004750:	6f3b      	ldr	r3, [r7, #112]	; 0x70
 8004752:	430b      	orrs	r3, r1
 8004754:	60d3      	str	r3, [r2, #12]
             (uint32_t)(USART_CR1_M | USART_CR1_PCE | USART_CR1_PS | USART_CR1_TE | USART_CR1_RE | USART_CR1_OVER8),
             tmpreg);

  /*-------------------------- USART CR3 Configuration -----------------------*/
  /* Configure the UART HFC: Set CTSE and RTSE bits according to huart->Init.HwFlowCtl value */
  MODIFY_REG(huart->Instance->CR3, (USART_CR3_RTSE | USART_CR3_CTSE), huart->Init.HwFlowCtl);
 8004756:	6efb      	ldr	r3, [r7, #108]	; 0x6c
 8004758:	681b      	ldr	r3, [r3, #0]
 800475a:	695b      	ldr	r3, [r3, #20]
 800475c:	f423 7040 	bic.w	r0, r3, #768	; 0x300
 8004760:	6efb      	ldr	r3, [r7, #108]	; 0x6c
 8004762:	6999      	ldr	r1, [r3, #24]
 8004764:	6efb      	ldr	r3, [r7, #108]	; 0x6c
 8004766:	681a      	ldr	r2, [r3, #0]
 8004768:	ea40 0301 	orr.w	r3, r0, r1
 800476c:	6153      	str	r3, [r2, #20]
    if ((huart->Instance == USART1) || (huart->Instance == USART6) || (huart->Instance == UART9) || (huart->Instance == UART10))
    {
      pclk = HAL_RCC_GetPCLK2Freq();
    }
#elif defined(USART6)
    if ((huart->Instance == USART1) || (huart->Instance == USART6))
 800476e:	6efb      	ldr	r3, [r7, #108]	; 0x6c
 8004770:	681a      	ldr	r2, [r3, #0]
 8004772:	4bc5      	ldr	r3, [pc, #788]	; (8004a88 <UART_SetConfig+0x384>)
 8004774:	429a      	cmp	r2, r3
 8004776:	d004      	beq.n	8004782 <UART_SetConfig+0x7e>
 8004778:	6efb      	ldr	r3, [r7, #108]	; 0x6c
 800477a:	681a      	ldr	r2, [r3, #0]
 800477c:	4bc3      	ldr	r3, [pc, #780]	; (8004a8c <UART_SetConfig+0x388>)
 800477e:	429a      	cmp	r2, r3
 8004780:	d103      	bne.n	800478a <UART_SetConfig+0x86>
    {
      pclk = HAL_RCC_GetPCLK2Freq();
 8004782:	f7fe fd13 	bl	80031ac <HAL_RCC_GetPCLK2Freq>
 8004786:	6778      	str	r0, [r7, #116]	; 0x74
 8004788:	e002      	b.n	8004790 <UART_SetConfig+0x8c>
      pclk = HAL_RCC_GetPCLK2Freq();
    }
#endif /* USART6 */
    else
    {
      pclk = HAL_RCC_GetPCLK1Freq();
 800478a:	f7fe fcfb 	bl	8003184 <HAL_RCC_GetPCLK1Freq>
 800478e:	6778      	str	r0, [r7, #116]	; 0x74
    }
  /*-------------------------- USART BRR Configuration ---------------------*/
  if (huart->Init.OverSampling == UART_OVERSAMPLING_8)
 8004790:	6efb      	ldr	r3, [r7, #108]	; 0x6c
 8004792:	69db      	ldr	r3, [r3, #28]
 8004794:	f5b3 4f00 	cmp.w	r3, #32768	; 0x8000
 8004798:	f040 80b6 	bne.w	8004908 <UART_SetConfig+0x204>
  {
    huart->Instance->BRR = UART_BRR_SAMPLING8(pclk, huart->Init.BaudRate);
 800479c:	6f7b      	ldr	r3, [r7, #116]	; 0x74
 800479e:	461c      	mov	r4, r3
 80047a0:	f04f 0500 	mov.w	r5, #0
 80047a4:	4622      	mov	r2, r4
 80047a6:	462b      	mov	r3, r5
 80047a8:	1891      	adds	r1, r2, r2
 80047aa:	6439      	str	r1, [r7, #64]	; 0x40
 80047ac:	415b      	adcs	r3, r3
 80047ae:	647b      	str	r3, [r7, #68]	; 0x44
 80047b0:	e9d7 2310 	ldrd	r2, r3, [r7, #64]	; 0x40
 80047b4:	1912      	adds	r2, r2, r4
 80047b6:	eb45 0303 	adc.w	r3, r5, r3
 80047ba:	f04f 0000 	mov.w	r0, #0
 80047be:	f04f 0100 	mov.w	r1, #0
 80047c2:	00d9      	lsls	r1, r3, #3
 80047c4:	ea41 7152 	orr.w	r1, r1, r2, lsr #29
 80047c8:	00d0      	lsls	r0, r2, #3
 80047ca:	4602      	mov	r2, r0
 80047cc:	460b      	mov	r3, r1
 80047ce:	1911      	adds	r1, r2, r4
 80047d0:	6639      	str	r1, [r7, #96]	; 0x60
 80047d2:	416b      	adcs	r3, r5
 80047d4:	667b      	str	r3, [r7, #100]	; 0x64
 80047d6:	6efb      	ldr	r3, [r7, #108]	; 0x6c
 80047d8:	685b      	ldr	r3, [r3, #4]
 80047da:	461a      	mov	r2, r3
 80047dc:	f04f 0300 	mov.w	r3, #0
 80047e0:	1891      	adds	r1, r2, r2
 80047e2:	63b9      	str	r1, [r7, #56]	; 0x38
 80047e4:	415b      	adcs	r3, r3
 80047e6:	63fb      	str	r3, [r7, #60]	; 0x3c
 80047e8:	e9d7 230e 	ldrd	r2, r3, [r7, #56]	; 0x38
 80047ec:	e9d7 0118 	ldrd	r0, r1, [r7, #96]	; 0x60
 80047f0:	f7fc f9fa 	bl	8000be8 <__aeabi_uldivmod>
 80047f4:	4602      	mov	r2, r0
 80047f6:	460b      	mov	r3, r1
 80047f8:	4ba5      	ldr	r3, [pc, #660]	; (8004a90 <UART_SetConfig+0x38c>)
 80047fa:	fba3 2302 	umull	r2, r3, r3, r2
 80047fe:	095b      	lsrs	r3, r3, #5
 8004800:	011e      	lsls	r6, r3, #4
 8004802:	6f7b      	ldr	r3, [r7, #116]	; 0x74
 8004804:	461c      	mov	r4, r3
 8004806:	f04f 0500 	mov.w	r5, #0
 800480a:	4622      	mov	r2, r4
 800480c:	462b      	mov	r3, r5
 800480e:	1891      	adds	r1, r2, r2
 8004810:	6339      	str	r1, [r7, #48]	; 0x30
 8004812:	415b      	adcs	r3, r3
 8004814:	637b      	str	r3, [r7, #52]	; 0x34
 8004816:	e9d7 230c 	ldrd	r2, r3, [r7, #48]	; 0x30
 800481a:	1912      	adds	r2, r2, r4
 800481c:	eb45 0303 	adc.w	r3, r5, r3
 8004820:	f04f 0000 	mov.w	r0, #0
 8004824:	f04f 0100 	mov.w	r1, #0
 8004828:	00d9      	lsls	r1, r3, #3
 800482a:	ea41 7152 	orr.w	r1, r1, r2, lsr #29
 800482e:	00d0      	lsls	r0, r2, #3
 8004830:	4602      	mov	r2, r0
 8004832:	460b      	mov	r3, r1
 8004834:	1911      	adds	r1, r2, r4
 8004836:	65b9      	str	r1, [r7, #88]	; 0x58
 8004838:	416b      	adcs	r3, r5
 800483a:	65fb      	str	r3, [r7, #92]	; 0x5c
 800483c:	6efb      	ldr	r3, [r7, #108]	; 0x6c
 800483e:	685b      	ldr	r3, [r3, #4]
 8004840:	461a      	mov	r2, r3
 8004842:	f04f 0300 	mov.w	r3, #0
 8004846:	1891      	adds	r1, r2, r2
 8004848:	62b9      	str	r1, [r7, #40]	; 0x28
 800484a:	415b      	adcs	r3, r3
 800484c:	62fb      	str	r3, [r7, #44]	; 0x2c
 800484e:	e9d7 230a 	ldrd	r2, r3, [r7, #40]	; 0x28
 8004852:	e9d7 0116 	ldrd	r0, r1, [r7, #88]	; 0x58
 8004856:	f7fc f9c7 	bl	8000be8 <__aeabi_uldivmod>
 800485a:	4602      	mov	r2, r0
 800485c:	460b      	mov	r3, r1
 800485e:	4b8c      	ldr	r3, [pc, #560]	; (8004a90 <UART_SetConfig+0x38c>)
 8004860:	fba3 1302 	umull	r1, r3, r3, r2
 8004864:	095b      	lsrs	r3, r3, #5
 8004866:	2164      	movs	r1, #100	; 0x64
 8004868:	fb01 f303 	mul.w	r3, r1, r3
 800486c:	1ad3      	subs	r3, r2, r3
 800486e:	00db      	lsls	r3, r3, #3
 8004870:	3332      	adds	r3, #50	; 0x32
 8004872:	4a87      	ldr	r2, [pc, #540]	; (8004a90 <UART_SetConfig+0x38c>)
 8004874:	fba2 2303 	umull	r2, r3, r2, r3
 8004878:	095b      	lsrs	r3, r3, #5
 800487a:	005b      	lsls	r3, r3, #1
 800487c:	f403 73f8 	and.w	r3, r3, #496	; 0x1f0
 8004880:	441e      	add	r6, r3
 8004882:	6f7b      	ldr	r3, [r7, #116]	; 0x74
 8004884:	4618      	mov	r0, r3
 8004886:	f04f 0100 	mov.w	r1, #0
 800488a:	4602      	mov	r2, r0
 800488c:	460b      	mov	r3, r1
 800488e:	1894      	adds	r4, r2, r2
 8004890:	623c      	str	r4, [r7, #32]
 8004892:	415b      	adcs	r3, r3
 8004894:	627b      	str	r3, [r7, #36]	; 0x24
 8004896:	e9d7 2308 	ldrd	r2, r3, [r7, #32]
 800489a:	1812      	adds	r2, r2, r0
 800489c:	eb41 0303 	adc.w	r3, r1, r3
 80048a0:	f04f 0400 	mov.w	r4, #0
 80048a4:	f04f 0500 	mov.w	r5, #0
 80048a8:	00dd      	lsls	r5, r3, #3
 80048aa:	ea45 7552 	orr.w	r5, r5, r2, lsr #29
 80048ae:	00d4      	lsls	r4, r2, #3
 80048b0:	4622      	mov	r2, r4
 80048b2:	462b      	mov	r3, r5
 80048b4:	1814      	adds	r4, r2, r0
 80048b6:	653c      	str	r4, [r7, #80]	; 0x50
 80048b8:	414b      	adcs	r3, r1
 80048ba:	657b      	str	r3, [r7, #84]	; 0x54
 80048bc:	6efb      	ldr	r3, [r7, #108]	; 0x6c
 80048be:	685b      	ldr	r3, [r3, #4]
 80048c0:	461a      	mov	r2, r3
 80048c2:	f04f 0300 	mov.w	r3, #0
 80048c6:	1891      	adds	r1, r2, r2
 80048c8:	61b9      	str	r1, [r7, #24]
 80048ca:	415b      	adcs	r3, r3
 80048cc:	61fb      	str	r3, [r7, #28]
 80048ce:	e9d7 2306 	ldrd	r2, r3, [r7, #24]
 80048d2:	e9d7 0114 	ldrd	r0, r1, [r7, #80]	; 0x50
 80048d6:	f7fc f987 	bl	8000be8 <__aeabi_uldivmod>
 80048da:	4602      	mov	r2, r0
 80048dc:	460b      	mov	r3, r1
 80048de:	4b6c      	ldr	r3, [pc, #432]	; (8004a90 <UART_SetConfig+0x38c>)
 80048e0:	fba3 1302 	umull	r1, r3, r3, r2
 80048e4:	095b      	lsrs	r3, r3, #5
 80048e6:	2164      	movs	r1, #100	; 0x64
 80048e8:	fb01 f303 	mul.w	r3, r1, r3
 80048ec:	1ad3      	subs	r3, r2, r3
 80048ee:	00db      	lsls	r3, r3, #3
 80048f0:	3332      	adds	r3, #50	; 0x32
 80048f2:	4a67      	ldr	r2, [pc, #412]	; (8004a90 <UART_SetConfig+0x38c>)
 80048f4:	fba2 2303 	umull	r2, r3, r2, r3
 80048f8:	095b      	lsrs	r3, r3, #5
 80048fa:	f003 0207 	and.w	r2, r3, #7
 80048fe:	6efb      	ldr	r3, [r7, #108]	; 0x6c
 8004900:	681b      	ldr	r3, [r3, #0]
 8004902:	4432      	add	r2, r6
 8004904:	609a      	str	r2, [r3, #8]
  }
  else
  {
    huart->Instance->BRR = UART_BRR_SAMPLING16(pclk, huart->Init.BaudRate);
  }
}
 8004906:	e0b9      	b.n	8004a7c <UART_SetConfig+0x378>
    huart->Instance->BRR = UART_BRR_SAMPLING16(pclk, huart->Init.BaudRate);
 8004908:	6f7b      	ldr	r3, [r7, #116]	; 0x74
 800490a:	461c      	mov	r4, r3
 800490c:	f04f 0500 	mov.w	r5, #0
 8004910:	4622      	mov	r2, r4
 8004912:	462b      	mov	r3, r5
 8004914:	1891      	adds	r1, r2, r2
 8004916:	6139      	str	r1, [r7, #16]
 8004918:	415b      	adcs	r3, r3
 800491a:	617b      	str	r3, [r7, #20]
 800491c:	e9d7 2304 	ldrd	r2, r3, [r7, #16]
 8004920:	1912      	adds	r2, r2, r4
 8004922:	eb45 0303 	adc.w	r3, r5, r3
 8004926:	f04f 0000 	mov.w	r0, #0
 800492a:	f04f 0100 	mov.w	r1, #0
 800492e:	00d9      	lsls	r1, r3, #3
 8004930:	ea41 7152 	orr.w	r1, r1, r2, lsr #29
 8004934:	00d0      	lsls	r0, r2, #3
 8004936:	4602      	mov	r2, r0
 8004938:	460b      	mov	r3, r1
 800493a:	eb12 0804 	adds.w	r8, r2, r4
 800493e:	eb43 0905 	adc.w	r9, r3, r5
 8004942:	6efb      	ldr	r3, [r7, #108]	; 0x6c
 8004944:	685b      	ldr	r3, [r3, #4]
 8004946:	4618      	mov	r0, r3
 8004948:	f04f 0100 	mov.w	r1, #0
 800494c:	f04f 0200 	mov.w	r2, #0
 8004950:	f04f 0300 	mov.w	r3, #0
 8004954:	008b      	lsls	r3, r1, #2
 8004956:	ea43 7390 	orr.w	r3, r3, r0, lsr #30
 800495a:	0082      	lsls	r2, r0, #2
 800495c:	4640      	mov	r0, r8
 800495e:	4649      	mov	r1, r9
 8004960:	f7fc f942 	bl	8000be8 <__aeabi_uldivmod>
 8004964:	4602      	mov	r2, r0
 8004966:	460b      	mov	r3, r1
 8004968:	4b49      	ldr	r3, [pc, #292]	; (8004a90 <UART_SetConfig+0x38c>)
 800496a:	fba3 2302 	umull	r2, r3, r3, r2
 800496e:	095b      	lsrs	r3, r3, #5
 8004970:	011e      	lsls	r6, r3, #4
 8004972:	6f7b      	ldr	r3, [r7, #116]	; 0x74
 8004974:	4618      	mov	r0, r3
 8004976:	f04f 0100 	mov.w	r1, #0
 800497a:	4602      	mov	r2, r0
 800497c:	460b      	mov	r3, r1
 800497e:	1894      	adds	r4, r2, r2
 8004980:	60bc      	str	r4, [r7, #8]
 8004982:	415b      	adcs	r3, r3
 8004984:	60fb      	str	r3, [r7, #12]
 8004986:	e9d7 2302 	ldrd	r2, r3, [r7, #8]
 800498a:	1812      	adds	r2, r2, r0
 800498c:	eb41 0303 	adc.w	r3, r1, r3
 8004990:	f04f 0400 	mov.w	r4, #0
 8004994:	f04f 0500 	mov.w	r5, #0
 8004998:	00dd      	lsls	r5, r3, #3
 800499a:	ea45 7552 	orr.w	r5, r5, r2, lsr #29
 800499e:	00d4      	lsls	r4, r2, #3
 80049a0:	4622      	mov	r2, r4
 80049a2:	462b      	mov	r3, r5
 80049a4:	1814      	adds	r4, r2, r0
 80049a6:	64bc      	str	r4, [r7, #72]	; 0x48
 80049a8:	414b      	adcs	r3, r1
 80049aa:	64fb      	str	r3, [r7, #76]	; 0x4c
 80049ac:	6efb      	ldr	r3, [r7, #108]	; 0x6c
 80049ae:	685b      	ldr	r3, [r3, #4]
 80049b0:	4618      	mov	r0, r3
 80049b2:	f04f 0100 	mov.w	r1, #0
 80049b6:	f04f 0200 	mov.w	r2, #0
 80049ba:	f04f 0300 	mov.w	r3, #0
 80049be:	008b      	lsls	r3, r1, #2
 80049c0:	ea43 7390 	orr.w	r3, r3, r0, lsr #30
 80049c4:	0082      	lsls	r2, r0, #2
 80049c6:	e9d7 0112 	ldrd	r0, r1, [r7, #72]	; 0x48
 80049ca:	f7fc f90d 	bl	8000be8 <__aeabi_uldivmod>
 80049ce:	4602      	mov	r2, r0
 80049d0:	460b      	mov	r3, r1
 80049d2:	4b2f      	ldr	r3, [pc, #188]	; (8004a90 <UART_SetConfig+0x38c>)
 80049d4:	fba3 1302 	umull	r1, r3, r3, r2
 80049d8:	095b      	lsrs	r3, r3, #5
 80049da:	2164      	movs	r1, #100	; 0x64
 80049dc:	fb01 f303 	mul.w	r3, r1, r3
 80049e0:	1ad3      	subs	r3, r2, r3
 80049e2:	011b      	lsls	r3, r3, #4
 80049e4:	3332      	adds	r3, #50	; 0x32
 80049e6:	4a2a      	ldr	r2, [pc, #168]	; (8004a90 <UART_SetConfig+0x38c>)
 80049e8:	fba2 2303 	umull	r2, r3, r2, r3
 80049ec:	095b      	lsrs	r3, r3, #5
 80049ee:	f003 03f0 	and.w	r3, r3, #240	; 0xf0
 80049f2:	441e      	add	r6, r3
 80049f4:	6f7b      	ldr	r3, [r7, #116]	; 0x74
 80049f6:	4618      	mov	r0, r3
 80049f8:	f04f 0100 	mov.w	r1, #0
 80049fc:	4602      	mov	r2, r0
 80049fe:	460b      	mov	r3, r1
 8004a00:	1894      	adds	r4, r2, r2
 8004a02:	603c      	str	r4, [r7, #0]
 8004a04:	415b      	adcs	r3, r3
 8004a06:	607b      	str	r3, [r7, #4]
 8004a08:	e9d7 2300 	ldrd	r2, r3, [r7]
 8004a0c:	1812      	adds	r2, r2, r0
 8004a0e:	eb41 0303 	adc.w	r3, r1, r3
 8004a12:	f04f 0400 	mov.w	r4, #0
 8004a16:	f04f 0500 	mov.w	r5, #0
 8004a1a:	00dd      	lsls	r5, r3, #3
 8004a1c:	ea45 7552 	orr.w	r5, r5, r2, lsr #29
 8004a20:	00d4      	lsls	r4, r2, #3
 8004a22:	4622      	mov	r2, r4
 8004a24:	462b      	mov	r3, r5
 8004a26:	eb12 0a00 	adds.w	sl, r2, r0
 8004a2a:	eb43 0b01 	adc.w	fp, r3, r1
 8004a2e:	6efb      	ldr	r3, [r7, #108]	; 0x6c
 8004a30:	685b      	ldr	r3, [r3, #4]
 8004a32:	4618      	mov	r0, r3
 8004a34:	f04f 0100 	mov.w	r1, #0
 8004a38:	f04f 0200 	mov.w	r2, #0
 8004a3c:	f04f 0300 	mov.w	r3, #0
 8004a40:	008b      	lsls	r3, r1, #2
 8004a42:	ea43 7390 	orr.w	r3, r3, r0, lsr #30
 8004a46:	0082      	lsls	r2, r0, #2
 8004a48:	4650      	mov	r0, sl
 8004a4a:	4659      	mov	r1, fp
 8004a4c:	f7fc f8cc 	bl	8000be8 <__aeabi_uldivmod>
 8004a50:	4602      	mov	r2, r0
 8004a52:	460b      	mov	r3, r1
 8004a54:	4b0e      	ldr	r3, [pc, #56]	; (8004a90 <UART_SetConfig+0x38c>)
 8004a56:	fba3 1302 	umull	r1, r3, r3, r2
 8004a5a:	095b      	lsrs	r3, r3, #5
 8004a5c:	2164      	movs	r1, #100	; 0x64
 8004a5e:	fb01 f303 	mul.w	r3, r1, r3
 8004a62:	1ad3      	subs	r3, r2, r3
 8004a64:	011b      	lsls	r3, r3, #4
 8004a66:	3332      	adds	r3, #50	; 0x32
 8004a68:	4a09      	ldr	r2, [pc, #36]	; (8004a90 <UART_SetConfig+0x38c>)
 8004a6a:	fba2 2303 	umull	r2, r3, r2, r3
 8004a6e:	095b      	lsrs	r3, r3, #5
 8004a70:	f003 020f 	and.w	r2, r3, #15
 8004a74:	6efb      	ldr	r3, [r7, #108]	; 0x6c
 8004a76:	681b      	ldr	r3, [r3, #0]
 8004a78:	4432      	add	r2, r6
 8004a7a:	609a      	str	r2, [r3, #8]
}
 8004a7c:	bf00      	nop
 8004a7e:	377c      	adds	r7, #124	; 0x7c
 8004a80:	46bd      	mov	sp, r7
 8004a82:	e8bd 8ff0 	ldmia.w	sp!, {r4, r5, r6, r7, r8, r9, sl, fp, pc}
 8004a86:	bf00      	nop
 8004a88:	40011000 	.word	0x40011000
 8004a8c:	40011400 	.word	0x40011400
 8004a90:	51eb851f 	.word	0x51eb851f

08004a94 <__errno>:
 8004a94:	4b01      	ldr	r3, [pc, #4]	; (8004a9c <__errno+0x8>)
 8004a96:	6818      	ldr	r0, [r3, #0]
 8004a98:	4770      	bx	lr
 8004a9a:	bf00      	nop
 8004a9c:	20000010 	.word	0x20000010

08004aa0 <__libc_init_array>:
 8004aa0:	b570      	push	{r4, r5, r6, lr}
 8004aa2:	4d0d      	ldr	r5, [pc, #52]	; (8004ad8 <__libc_init_array+0x38>)
 8004aa4:	4c0d      	ldr	r4, [pc, #52]	; (8004adc <__libc_init_array+0x3c>)
 8004aa6:	1b64      	subs	r4, r4, r5
 8004aa8:	10a4      	asrs	r4, r4, #2
 8004aaa:	2600      	movs	r6, #0
 8004aac:	42a6      	cmp	r6, r4
 8004aae:	d109      	bne.n	8004ac4 <__libc_init_array+0x24>
 8004ab0:	4d0b      	ldr	r5, [pc, #44]	; (8004ae0 <__libc_init_array+0x40>)
 8004ab2:	4c0c      	ldr	r4, [pc, #48]	; (8004ae4 <__libc_init_array+0x44>)
 8004ab4:	f002 feea 	bl	800788c <_init>
 8004ab8:	1b64      	subs	r4, r4, r5
 8004aba:	10a4      	asrs	r4, r4, #2
 8004abc:	2600      	movs	r6, #0
 8004abe:	42a6      	cmp	r6, r4
 8004ac0:	d105      	bne.n	8004ace <__libc_init_array+0x2e>
 8004ac2:	bd70      	pop	{r4, r5, r6, pc}
 8004ac4:	f855 3b04 	ldr.w	r3, [r5], #4
 8004ac8:	4798      	blx	r3
 8004aca:	3601      	adds	r6, #1
 8004acc:	e7ee      	b.n	8004aac <__libc_init_array+0xc>
 8004ace:	f855 3b04 	ldr.w	r3, [r5], #4
 8004ad2:	4798      	blx	r3
 8004ad4:	3601      	adds	r6, #1
 8004ad6:	e7f2      	b.n	8004abe <__libc_init_array+0x1e>
 8004ad8:	08007cdc 	.word	0x08007cdc
 8004adc:	08007cdc 	.word	0x08007cdc
 8004ae0:	08007cdc 	.word	0x08007cdc
 8004ae4:	08007ce0 	.word	0x08007ce0

08004ae8 <memset>:
 8004ae8:	4402      	add	r2, r0
 8004aea:	4603      	mov	r3, r0
 8004aec:	4293      	cmp	r3, r2
 8004aee:	d100      	bne.n	8004af2 <memset+0xa>
 8004af0:	4770      	bx	lr
 8004af2:	f803 1b01 	strb.w	r1, [r3], #1
 8004af6:	e7f9      	b.n	8004aec <memset+0x4>

08004af8 <__cvt>:
 8004af8:	e92d 47ff 	stmdb	sp!, {r0, r1, r2, r3, r4, r5, r6, r7, r8, r9, sl, lr}
 8004afc:	ec55 4b10 	vmov	r4, r5, d0
 8004b00:	2d00      	cmp	r5, #0
 8004b02:	460e      	mov	r6, r1
 8004b04:	4619      	mov	r1, r3
 8004b06:	462b      	mov	r3, r5
 8004b08:	bfbb      	ittet	lt
 8004b0a:	f105 4300 	addlt.w	r3, r5, #2147483648	; 0x80000000
 8004b0e:	461d      	movlt	r5, r3
 8004b10:	2300      	movge	r3, #0
 8004b12:	232d      	movlt	r3, #45	; 0x2d
 8004b14:	700b      	strb	r3, [r1, #0]
 8004b16:	9b0d      	ldr	r3, [sp, #52]	; 0x34
 8004b18:	f8dd a030 	ldr.w	sl, [sp, #48]	; 0x30
 8004b1c:	4691      	mov	r9, r2
 8004b1e:	f023 0820 	bic.w	r8, r3, #32
 8004b22:	bfbc      	itt	lt
 8004b24:	4622      	movlt	r2, r4
 8004b26:	4614      	movlt	r4, r2
 8004b28:	f1b8 0f46 	cmp.w	r8, #70	; 0x46
 8004b2c:	d005      	beq.n	8004b3a <__cvt+0x42>
 8004b2e:	f1b8 0f45 	cmp.w	r8, #69	; 0x45
 8004b32:	d100      	bne.n	8004b36 <__cvt+0x3e>
 8004b34:	3601      	adds	r6, #1
 8004b36:	2102      	movs	r1, #2
 8004b38:	e000      	b.n	8004b3c <__cvt+0x44>
 8004b3a:	2103      	movs	r1, #3
 8004b3c:	ab03      	add	r3, sp, #12
 8004b3e:	9301      	str	r3, [sp, #4]
 8004b40:	ab02      	add	r3, sp, #8
 8004b42:	9300      	str	r3, [sp, #0]
 8004b44:	ec45 4b10 	vmov	d0, r4, r5
 8004b48:	4653      	mov	r3, sl
 8004b4a:	4632      	mov	r2, r6
 8004b4c:	f000 fd20 	bl	8005590 <_dtoa_r>
 8004b50:	f1b8 0f47 	cmp.w	r8, #71	; 0x47
 8004b54:	4607      	mov	r7, r0
 8004b56:	d102      	bne.n	8004b5e <__cvt+0x66>
 8004b58:	f019 0f01 	tst.w	r9, #1
 8004b5c:	d022      	beq.n	8004ba4 <__cvt+0xac>
 8004b5e:	f1b8 0f46 	cmp.w	r8, #70	; 0x46
 8004b62:	eb07 0906 	add.w	r9, r7, r6
 8004b66:	d110      	bne.n	8004b8a <__cvt+0x92>
 8004b68:	783b      	ldrb	r3, [r7, #0]
 8004b6a:	2b30      	cmp	r3, #48	; 0x30
 8004b6c:	d10a      	bne.n	8004b84 <__cvt+0x8c>
 8004b6e:	2200      	movs	r2, #0
 8004b70:	2300      	movs	r3, #0
 8004b72:	4620      	mov	r0, r4
 8004b74:	4629      	mov	r1, r5
 8004b76:	f7fb ffc7 	bl	8000b08 <__aeabi_dcmpeq>
 8004b7a:	b918      	cbnz	r0, 8004b84 <__cvt+0x8c>
 8004b7c:	f1c6 0601 	rsb	r6, r6, #1
 8004b80:	f8ca 6000 	str.w	r6, [sl]
 8004b84:	f8da 3000 	ldr.w	r3, [sl]
 8004b88:	4499      	add	r9, r3
 8004b8a:	2200      	movs	r2, #0
 8004b8c:	2300      	movs	r3, #0
 8004b8e:	4620      	mov	r0, r4
 8004b90:	4629      	mov	r1, r5
 8004b92:	f7fb ffb9 	bl	8000b08 <__aeabi_dcmpeq>
 8004b96:	b108      	cbz	r0, 8004b9c <__cvt+0xa4>
 8004b98:	f8cd 900c 	str.w	r9, [sp, #12]
 8004b9c:	2230      	movs	r2, #48	; 0x30
 8004b9e:	9b03      	ldr	r3, [sp, #12]
 8004ba0:	454b      	cmp	r3, r9
 8004ba2:	d307      	bcc.n	8004bb4 <__cvt+0xbc>
 8004ba4:	9b03      	ldr	r3, [sp, #12]
 8004ba6:	9a0e      	ldr	r2, [sp, #56]	; 0x38
 8004ba8:	1bdb      	subs	r3, r3, r7
 8004baa:	4638      	mov	r0, r7
 8004bac:	6013      	str	r3, [r2, #0]
 8004bae:	b004      	add	sp, #16
 8004bb0:	e8bd 87f0 	ldmia.w	sp!, {r4, r5, r6, r7, r8, r9, sl, pc}
 8004bb4:	1c59      	adds	r1, r3, #1
 8004bb6:	9103      	str	r1, [sp, #12]
 8004bb8:	701a      	strb	r2, [r3, #0]
 8004bba:	e7f0      	b.n	8004b9e <__cvt+0xa6>

08004bbc <__exponent>:
 8004bbc:	b5f7      	push	{r0, r1, r2, r4, r5, r6, r7, lr}
 8004bbe:	4603      	mov	r3, r0
 8004bc0:	2900      	cmp	r1, #0
 8004bc2:	bfb8      	it	lt
 8004bc4:	4249      	neglt	r1, r1
 8004bc6:	f803 2b02 	strb.w	r2, [r3], #2
 8004bca:	bfb4      	ite	lt
 8004bcc:	222d      	movlt	r2, #45	; 0x2d
 8004bce:	222b      	movge	r2, #43	; 0x2b
 8004bd0:	2909      	cmp	r1, #9
 8004bd2:	7042      	strb	r2, [r0, #1]
 8004bd4:	dd2a      	ble.n	8004c2c <__exponent+0x70>
 8004bd6:	f10d 0407 	add.w	r4, sp, #7
 8004bda:	46a4      	mov	ip, r4
 8004bdc:	270a      	movs	r7, #10
 8004bde:	46a6      	mov	lr, r4
 8004be0:	460a      	mov	r2, r1
 8004be2:	fb91 f6f7 	sdiv	r6, r1, r7
 8004be6:	fb07 1516 	mls	r5, r7, r6, r1
 8004bea:	3530      	adds	r5, #48	; 0x30
 8004bec:	2a63      	cmp	r2, #99	; 0x63
 8004bee:	f104 34ff 	add.w	r4, r4, #4294967295
 8004bf2:	f80e 5c01 	strb.w	r5, [lr, #-1]
 8004bf6:	4631      	mov	r1, r6
 8004bf8:	dcf1      	bgt.n	8004bde <__exponent+0x22>
 8004bfa:	3130      	adds	r1, #48	; 0x30
 8004bfc:	f1ae 0502 	sub.w	r5, lr, #2
 8004c00:	f804 1c01 	strb.w	r1, [r4, #-1]
 8004c04:	1c44      	adds	r4, r0, #1
 8004c06:	4629      	mov	r1, r5
 8004c08:	4561      	cmp	r1, ip
 8004c0a:	d30a      	bcc.n	8004c22 <__exponent+0x66>
 8004c0c:	f10d 0209 	add.w	r2, sp, #9
 8004c10:	eba2 020e 	sub.w	r2, r2, lr
 8004c14:	4565      	cmp	r5, ip
 8004c16:	bf88      	it	hi
 8004c18:	2200      	movhi	r2, #0
 8004c1a:	4413      	add	r3, r2
 8004c1c:	1a18      	subs	r0, r3, r0
 8004c1e:	b003      	add	sp, #12
 8004c20:	bdf0      	pop	{r4, r5, r6, r7, pc}
 8004c22:	f811 2b01 	ldrb.w	r2, [r1], #1
 8004c26:	f804 2f01 	strb.w	r2, [r4, #1]!
 8004c2a:	e7ed      	b.n	8004c08 <__exponent+0x4c>
 8004c2c:	2330      	movs	r3, #48	; 0x30
 8004c2e:	3130      	adds	r1, #48	; 0x30
 8004c30:	7083      	strb	r3, [r0, #2]
 8004c32:	70c1      	strb	r1, [r0, #3]
 8004c34:	1d03      	adds	r3, r0, #4
 8004c36:	e7f1      	b.n	8004c1c <__exponent+0x60>

08004c38 <_printf_float>:
 8004c38:	e92d 4ff0 	stmdb	sp!, {r4, r5, r6, r7, r8, r9, sl, fp, lr}
 8004c3c:	ed2d 8b02 	vpush	{d8}
 8004c40:	b08d      	sub	sp, #52	; 0x34
 8004c42:	460c      	mov	r4, r1
 8004c44:	f8dd 8060 	ldr.w	r8, [sp, #96]	; 0x60
 8004c48:	4616      	mov	r6, r2
 8004c4a:	461f      	mov	r7, r3
 8004c4c:	4605      	mov	r5, r0
 8004c4e:	f001 fa8b 	bl	8006168 <_localeconv_r>
 8004c52:	f8d0 a000 	ldr.w	sl, [r0]
 8004c56:	4650      	mov	r0, sl
 8004c58:	f7fb fada 	bl	8000210 <strlen>
 8004c5c:	2300      	movs	r3, #0
 8004c5e:	930a      	str	r3, [sp, #40]	; 0x28
 8004c60:	6823      	ldr	r3, [r4, #0]
 8004c62:	9305      	str	r3, [sp, #20]
 8004c64:	f8d8 3000 	ldr.w	r3, [r8]
 8004c68:	f894 b018 	ldrb.w	fp, [r4, #24]
 8004c6c:	3307      	adds	r3, #7
 8004c6e:	f023 0307 	bic.w	r3, r3, #7
 8004c72:	f103 0208 	add.w	r2, r3, #8
 8004c76:	f8c8 2000 	str.w	r2, [r8]
 8004c7a:	e9d3 2300 	ldrd	r2, r3, [r3]
 8004c7e:	e9c4 2312 	strd	r2, r3, [r4, #72]	; 0x48
 8004c82:	e9d4 8912 	ldrd	r8, r9, [r4, #72]	; 0x48
 8004c86:	f029 4300 	bic.w	r3, r9, #2147483648	; 0x80000000
 8004c8a:	9307      	str	r3, [sp, #28]
 8004c8c:	f8cd 8018 	str.w	r8, [sp, #24]
 8004c90:	ee08 0a10 	vmov	s16, r0
 8004c94:	4b9f      	ldr	r3, [pc, #636]	; (8004f14 <_printf_float+0x2dc>)
 8004c96:	e9dd 0106 	ldrd	r0, r1, [sp, #24]
 8004c9a:	f04f 32ff 	mov.w	r2, #4294967295
 8004c9e:	f7fb ff65 	bl	8000b6c <__aeabi_dcmpun>
 8004ca2:	bb88      	cbnz	r0, 8004d08 <_printf_float+0xd0>
 8004ca4:	e9dd 0106 	ldrd	r0, r1, [sp, #24]
 8004ca8:	4b9a      	ldr	r3, [pc, #616]	; (8004f14 <_printf_float+0x2dc>)
 8004caa:	f04f 32ff 	mov.w	r2, #4294967295
 8004cae:	f7fb ff3f 	bl	8000b30 <__aeabi_dcmple>
 8004cb2:	bb48      	cbnz	r0, 8004d08 <_printf_float+0xd0>
 8004cb4:	2200      	movs	r2, #0
 8004cb6:	2300      	movs	r3, #0
 8004cb8:	4640      	mov	r0, r8
 8004cba:	4649      	mov	r1, r9
 8004cbc:	f7fb ff2e 	bl	8000b1c <__aeabi_dcmplt>
 8004cc0:	b110      	cbz	r0, 8004cc8 <_printf_float+0x90>
 8004cc2:	232d      	movs	r3, #45	; 0x2d
 8004cc4:	f884 3043 	strb.w	r3, [r4, #67]	; 0x43
 8004cc8:	4b93      	ldr	r3, [pc, #588]	; (8004f18 <_printf_float+0x2e0>)
 8004cca:	4894      	ldr	r0, [pc, #592]	; (8004f1c <_printf_float+0x2e4>)
 8004ccc:	f1bb 0f47 	cmp.w	fp, #71	; 0x47
 8004cd0:	bf94      	ite	ls
 8004cd2:	4698      	movls	r8, r3
 8004cd4:	4680      	movhi	r8, r0
 8004cd6:	2303      	movs	r3, #3
 8004cd8:	6123      	str	r3, [r4, #16]
 8004cda:	9b05      	ldr	r3, [sp, #20]
 8004cdc:	f023 0204 	bic.w	r2, r3, #4
 8004ce0:	6022      	str	r2, [r4, #0]
 8004ce2:	f04f 0900 	mov.w	r9, #0
 8004ce6:	9700      	str	r7, [sp, #0]
 8004ce8:	4633      	mov	r3, r6
 8004cea:	aa0b      	add	r2, sp, #44	; 0x2c
 8004cec:	4621      	mov	r1, r4
 8004cee:	4628      	mov	r0, r5
 8004cf0:	f000 f9d8 	bl	80050a4 <_printf_common>
 8004cf4:	3001      	adds	r0, #1
 8004cf6:	f040 8090 	bne.w	8004e1a <_printf_float+0x1e2>
 8004cfa:	f04f 30ff 	mov.w	r0, #4294967295
 8004cfe:	b00d      	add	sp, #52	; 0x34
 8004d00:	ecbd 8b02 	vpop	{d8}
 8004d04:	e8bd 8ff0 	ldmia.w	sp!, {r4, r5, r6, r7, r8, r9, sl, fp, pc}
 8004d08:	4642      	mov	r2, r8
 8004d0a:	464b      	mov	r3, r9
 8004d0c:	4640      	mov	r0, r8
 8004d0e:	4649      	mov	r1, r9
 8004d10:	f7fb ff2c 	bl	8000b6c <__aeabi_dcmpun>
 8004d14:	b140      	cbz	r0, 8004d28 <_printf_float+0xf0>
 8004d16:	464b      	mov	r3, r9
 8004d18:	2b00      	cmp	r3, #0
 8004d1a:	bfbc      	itt	lt
 8004d1c:	232d      	movlt	r3, #45	; 0x2d
 8004d1e:	f884 3043 	strblt.w	r3, [r4, #67]	; 0x43
 8004d22:	487f      	ldr	r0, [pc, #508]	; (8004f20 <_printf_float+0x2e8>)
 8004d24:	4b7f      	ldr	r3, [pc, #508]	; (8004f24 <_printf_float+0x2ec>)
 8004d26:	e7d1      	b.n	8004ccc <_printf_float+0x94>
 8004d28:	6863      	ldr	r3, [r4, #4]
 8004d2a:	f00b 02df 	and.w	r2, fp, #223	; 0xdf
 8004d2e:	9206      	str	r2, [sp, #24]
 8004d30:	1c5a      	adds	r2, r3, #1
 8004d32:	d13f      	bne.n	8004db4 <_printf_float+0x17c>
 8004d34:	2306      	movs	r3, #6
 8004d36:	6063      	str	r3, [r4, #4]
 8004d38:	9b05      	ldr	r3, [sp, #20]
 8004d3a:	6861      	ldr	r1, [r4, #4]
 8004d3c:	f443 6280 	orr.w	r2, r3, #1024	; 0x400
 8004d40:	2300      	movs	r3, #0
 8004d42:	9303      	str	r3, [sp, #12]
 8004d44:	ab0a      	add	r3, sp, #40	; 0x28
 8004d46:	e9cd b301 	strd	fp, r3, [sp, #4]
 8004d4a:	ab09      	add	r3, sp, #36	; 0x24
 8004d4c:	ec49 8b10 	vmov	d0, r8, r9
 8004d50:	9300      	str	r3, [sp, #0]
 8004d52:	6022      	str	r2, [r4, #0]
 8004d54:	f10d 0323 	add.w	r3, sp, #35	; 0x23
 8004d58:	4628      	mov	r0, r5
 8004d5a:	f7ff fecd 	bl	8004af8 <__cvt>
 8004d5e:	9b06      	ldr	r3, [sp, #24]
 8004d60:	9909      	ldr	r1, [sp, #36]	; 0x24
 8004d62:	2b47      	cmp	r3, #71	; 0x47
 8004d64:	4680      	mov	r8, r0
 8004d66:	d108      	bne.n	8004d7a <_printf_float+0x142>
 8004d68:	1cc8      	adds	r0, r1, #3
 8004d6a:	db02      	blt.n	8004d72 <_printf_float+0x13a>
 8004d6c:	6863      	ldr	r3, [r4, #4]
 8004d6e:	4299      	cmp	r1, r3
 8004d70:	dd41      	ble.n	8004df6 <_printf_float+0x1be>
 8004d72:	f1ab 0b02 	sub.w	fp, fp, #2
 8004d76:	fa5f fb8b 	uxtb.w	fp, fp
 8004d7a:	f1bb 0f65 	cmp.w	fp, #101	; 0x65
 8004d7e:	d820      	bhi.n	8004dc2 <_printf_float+0x18a>
 8004d80:	3901      	subs	r1, #1
 8004d82:	465a      	mov	r2, fp
 8004d84:	f104 0050 	add.w	r0, r4, #80	; 0x50
 8004d88:	9109      	str	r1, [sp, #36]	; 0x24
 8004d8a:	f7ff ff17 	bl	8004bbc <__exponent>
 8004d8e:	9a0a      	ldr	r2, [sp, #40]	; 0x28
 8004d90:	1813      	adds	r3, r2, r0
 8004d92:	2a01      	cmp	r2, #1
 8004d94:	4681      	mov	r9, r0
 8004d96:	6123      	str	r3, [r4, #16]
 8004d98:	dc02      	bgt.n	8004da0 <_printf_float+0x168>
 8004d9a:	6822      	ldr	r2, [r4, #0]
 8004d9c:	07d2      	lsls	r2, r2, #31
 8004d9e:	d501      	bpl.n	8004da4 <_printf_float+0x16c>
 8004da0:	3301      	adds	r3, #1
 8004da2:	6123      	str	r3, [r4, #16]
 8004da4:	f89d 3023 	ldrb.w	r3, [sp, #35]	; 0x23
 8004da8:	2b00      	cmp	r3, #0
 8004daa:	d09c      	beq.n	8004ce6 <_printf_float+0xae>
 8004dac:	232d      	movs	r3, #45	; 0x2d
 8004dae:	f884 3043 	strb.w	r3, [r4, #67]	; 0x43
 8004db2:	e798      	b.n	8004ce6 <_printf_float+0xae>
 8004db4:	9a06      	ldr	r2, [sp, #24]
 8004db6:	2a47      	cmp	r2, #71	; 0x47
 8004db8:	d1be      	bne.n	8004d38 <_printf_float+0x100>
 8004dba:	2b00      	cmp	r3, #0
 8004dbc:	d1bc      	bne.n	8004d38 <_printf_float+0x100>
 8004dbe:	2301      	movs	r3, #1
 8004dc0:	e7b9      	b.n	8004d36 <_printf_float+0xfe>
 8004dc2:	f1bb 0f66 	cmp.w	fp, #102	; 0x66
 8004dc6:	d118      	bne.n	8004dfa <_printf_float+0x1c2>
 8004dc8:	2900      	cmp	r1, #0
 8004dca:	6863      	ldr	r3, [r4, #4]
 8004dcc:	dd0b      	ble.n	8004de6 <_printf_float+0x1ae>
 8004dce:	6121      	str	r1, [r4, #16]
 8004dd0:	b913      	cbnz	r3, 8004dd8 <_printf_float+0x1a0>
 8004dd2:	6822      	ldr	r2, [r4, #0]
 8004dd4:	07d0      	lsls	r0, r2, #31
 8004dd6:	d502      	bpl.n	8004dde <_printf_float+0x1a6>
 8004dd8:	3301      	adds	r3, #1
 8004dda:	440b      	add	r3, r1
 8004ddc:	6123      	str	r3, [r4, #16]
 8004dde:	65a1      	str	r1, [r4, #88]	; 0x58
 8004de0:	f04f 0900 	mov.w	r9, #0
 8004de4:	e7de      	b.n	8004da4 <_printf_float+0x16c>
 8004de6:	b913      	cbnz	r3, 8004dee <_printf_float+0x1b6>
 8004de8:	6822      	ldr	r2, [r4, #0]
 8004dea:	07d2      	lsls	r2, r2, #31
 8004dec:	d501      	bpl.n	8004df2 <_printf_float+0x1ba>
 8004dee:	3302      	adds	r3, #2
 8004df0:	e7f4      	b.n	8004ddc <_printf_float+0x1a4>
 8004df2:	2301      	movs	r3, #1
 8004df4:	e7f2      	b.n	8004ddc <_printf_float+0x1a4>
 8004df6:	f04f 0b67 	mov.w	fp, #103	; 0x67
 8004dfa:	9b0a      	ldr	r3, [sp, #40]	; 0x28
 8004dfc:	4299      	cmp	r1, r3
 8004dfe:	db05      	blt.n	8004e0c <_printf_float+0x1d4>
 8004e00:	6823      	ldr	r3, [r4, #0]
 8004e02:	6121      	str	r1, [r4, #16]
 8004e04:	07d8      	lsls	r0, r3, #31
 8004e06:	d5ea      	bpl.n	8004dde <_printf_float+0x1a6>
 8004e08:	1c4b      	adds	r3, r1, #1
 8004e0a:	e7e7      	b.n	8004ddc <_printf_float+0x1a4>
 8004e0c:	2900      	cmp	r1, #0
 8004e0e:	bfd4      	ite	le
 8004e10:	f1c1 0202 	rsble	r2, r1, #2
 8004e14:	2201      	movgt	r2, #1
 8004e16:	4413      	add	r3, r2
 8004e18:	e7e0      	b.n	8004ddc <_printf_float+0x1a4>
 8004e1a:	6823      	ldr	r3, [r4, #0]
 8004e1c:	055a      	lsls	r2, r3, #21
 8004e1e:	d407      	bmi.n	8004e30 <_printf_float+0x1f8>
 8004e20:	6923      	ldr	r3, [r4, #16]
 8004e22:	4642      	mov	r2, r8
 8004e24:	4631      	mov	r1, r6
 8004e26:	4628      	mov	r0, r5
 8004e28:	47b8      	blx	r7
 8004e2a:	3001      	adds	r0, #1
 8004e2c:	d12c      	bne.n	8004e88 <_printf_float+0x250>
 8004e2e:	e764      	b.n	8004cfa <_printf_float+0xc2>
 8004e30:	f1bb 0f65 	cmp.w	fp, #101	; 0x65
 8004e34:	f240 80e0 	bls.w	8004ff8 <_printf_float+0x3c0>
 8004e38:	e9d4 0112 	ldrd	r0, r1, [r4, #72]	; 0x48
 8004e3c:	2200      	movs	r2, #0
 8004e3e:	2300      	movs	r3, #0
 8004e40:	f7fb fe62 	bl	8000b08 <__aeabi_dcmpeq>
 8004e44:	2800      	cmp	r0, #0
 8004e46:	d034      	beq.n	8004eb2 <_printf_float+0x27a>
 8004e48:	4a37      	ldr	r2, [pc, #220]	; (8004f28 <_printf_float+0x2f0>)
 8004e4a:	2301      	movs	r3, #1
 8004e4c:	4631      	mov	r1, r6
 8004e4e:	4628      	mov	r0, r5
 8004e50:	47b8      	blx	r7
 8004e52:	3001      	adds	r0, #1
 8004e54:	f43f af51 	beq.w	8004cfa <_printf_float+0xc2>
 8004e58:	e9dd 2309 	ldrd	r2, r3, [sp, #36]	; 0x24
 8004e5c:	429a      	cmp	r2, r3
 8004e5e:	db02      	blt.n	8004e66 <_printf_float+0x22e>
 8004e60:	6823      	ldr	r3, [r4, #0]
 8004e62:	07d8      	lsls	r0, r3, #31
 8004e64:	d510      	bpl.n	8004e88 <_printf_float+0x250>
 8004e66:	ee18 3a10 	vmov	r3, s16
 8004e6a:	4652      	mov	r2, sl
 8004e6c:	4631      	mov	r1, r6
 8004e6e:	4628      	mov	r0, r5
 8004e70:	47b8      	blx	r7
 8004e72:	3001      	adds	r0, #1
 8004e74:	f43f af41 	beq.w	8004cfa <_printf_float+0xc2>
 8004e78:	f04f 0800 	mov.w	r8, #0
 8004e7c:	f104 091a 	add.w	r9, r4, #26
 8004e80:	9b0a      	ldr	r3, [sp, #40]	; 0x28
 8004e82:	3b01      	subs	r3, #1
 8004e84:	4543      	cmp	r3, r8
 8004e86:	dc09      	bgt.n	8004e9c <_printf_float+0x264>
 8004e88:	6823      	ldr	r3, [r4, #0]
 8004e8a:	079b      	lsls	r3, r3, #30
 8004e8c:	f100 8105 	bmi.w	800509a <_printf_float+0x462>
 8004e90:	68e0      	ldr	r0, [r4, #12]
 8004e92:	9b0b      	ldr	r3, [sp, #44]	; 0x2c
 8004e94:	4298      	cmp	r0, r3
 8004e96:	bfb8      	it	lt
 8004e98:	4618      	movlt	r0, r3
 8004e9a:	e730      	b.n	8004cfe <_printf_float+0xc6>
 8004e9c:	2301      	movs	r3, #1
 8004e9e:	464a      	mov	r2, r9
 8004ea0:	4631      	mov	r1, r6
 8004ea2:	4628      	mov	r0, r5
 8004ea4:	47b8      	blx	r7
 8004ea6:	3001      	adds	r0, #1
 8004ea8:	f43f af27 	beq.w	8004cfa <_printf_float+0xc2>
 8004eac:	f108 0801 	add.w	r8, r8, #1
 8004eb0:	e7e6      	b.n	8004e80 <_printf_float+0x248>
 8004eb2:	9b09      	ldr	r3, [sp, #36]	; 0x24
 8004eb4:	2b00      	cmp	r3, #0
 8004eb6:	dc39      	bgt.n	8004f2c <_printf_float+0x2f4>
 8004eb8:	4a1b      	ldr	r2, [pc, #108]	; (8004f28 <_printf_float+0x2f0>)
 8004eba:	2301      	movs	r3, #1
 8004ebc:	4631      	mov	r1, r6
 8004ebe:	4628      	mov	r0, r5
 8004ec0:	47b8      	blx	r7
 8004ec2:	3001      	adds	r0, #1
 8004ec4:	f43f af19 	beq.w	8004cfa <_printf_float+0xc2>
 8004ec8:	e9dd 2309 	ldrd	r2, r3, [sp, #36]	; 0x24
 8004ecc:	4313      	orrs	r3, r2
 8004ece:	d102      	bne.n	8004ed6 <_printf_float+0x29e>
 8004ed0:	6823      	ldr	r3, [r4, #0]
 8004ed2:	07d9      	lsls	r1, r3, #31
 8004ed4:	d5d8      	bpl.n	8004e88 <_printf_float+0x250>
 8004ed6:	ee18 3a10 	vmov	r3, s16
 8004eda:	4652      	mov	r2, sl
 8004edc:	4631      	mov	r1, r6
 8004ede:	4628      	mov	r0, r5
 8004ee0:	47b8      	blx	r7
 8004ee2:	3001      	adds	r0, #1
 8004ee4:	f43f af09 	beq.w	8004cfa <_printf_float+0xc2>
 8004ee8:	f04f 0900 	mov.w	r9, #0
 8004eec:	f104 0a1a 	add.w	sl, r4, #26
 8004ef0:	9b09      	ldr	r3, [sp, #36]	; 0x24
 8004ef2:	425b      	negs	r3, r3
 8004ef4:	454b      	cmp	r3, r9
 8004ef6:	dc01      	bgt.n	8004efc <_printf_float+0x2c4>
 8004ef8:	9b0a      	ldr	r3, [sp, #40]	; 0x28
 8004efa:	e792      	b.n	8004e22 <_printf_float+0x1ea>
 8004efc:	2301      	movs	r3, #1
 8004efe:	4652      	mov	r2, sl
 8004f00:	4631      	mov	r1, r6
 8004f02:	4628      	mov	r0, r5
 8004f04:	47b8      	blx	r7
 8004f06:	3001      	adds	r0, #1
 8004f08:	f43f aef7 	beq.w	8004cfa <_printf_float+0xc2>
 8004f0c:	f109 0901 	add.w	r9, r9, #1
 8004f10:	e7ee      	b.n	8004ef0 <_printf_float+0x2b8>
 8004f12:	bf00      	nop
 8004f14:	7fefffff 	.word	0x7fefffff
 8004f18:	080078f4 	.word	0x080078f4
 8004f1c:	080078f8 	.word	0x080078f8
 8004f20:	08007900 	.word	0x08007900
 8004f24:	080078fc 	.word	0x080078fc
 8004f28:	08007904 	.word	0x08007904
 8004f2c:	9a0a      	ldr	r2, [sp, #40]	; 0x28
 8004f2e:	6da3      	ldr	r3, [r4, #88]	; 0x58
 8004f30:	429a      	cmp	r2, r3
 8004f32:	bfa8      	it	ge
 8004f34:	461a      	movge	r2, r3
 8004f36:	2a00      	cmp	r2, #0
 8004f38:	4691      	mov	r9, r2
 8004f3a:	dc37      	bgt.n	8004fac <_printf_float+0x374>
 8004f3c:	f04f 0b00 	mov.w	fp, #0
 8004f40:	ea29 79e9 	bic.w	r9, r9, r9, asr #31
 8004f44:	f104 021a 	add.w	r2, r4, #26
 8004f48:	6da3      	ldr	r3, [r4, #88]	; 0x58
 8004f4a:	9305      	str	r3, [sp, #20]
 8004f4c:	eba3 0309 	sub.w	r3, r3, r9
 8004f50:	455b      	cmp	r3, fp
 8004f52:	dc33      	bgt.n	8004fbc <_printf_float+0x384>
 8004f54:	e9dd 2309 	ldrd	r2, r3, [sp, #36]	; 0x24
 8004f58:	429a      	cmp	r2, r3
 8004f5a:	db3b      	blt.n	8004fd4 <_printf_float+0x39c>
 8004f5c:	6823      	ldr	r3, [r4, #0]
 8004f5e:	07da      	lsls	r2, r3, #31
 8004f60:	d438      	bmi.n	8004fd4 <_printf_float+0x39c>
 8004f62:	9a0a      	ldr	r2, [sp, #40]	; 0x28
 8004f64:	9b05      	ldr	r3, [sp, #20]
 8004f66:	9909      	ldr	r1, [sp, #36]	; 0x24
 8004f68:	1ad3      	subs	r3, r2, r3
 8004f6a:	eba2 0901 	sub.w	r9, r2, r1
 8004f6e:	4599      	cmp	r9, r3
 8004f70:	bfa8      	it	ge
 8004f72:	4699      	movge	r9, r3
 8004f74:	f1b9 0f00 	cmp.w	r9, #0
 8004f78:	dc35      	bgt.n	8004fe6 <_printf_float+0x3ae>
 8004f7a:	f04f 0800 	mov.w	r8, #0
 8004f7e:	ea29 79e9 	bic.w	r9, r9, r9, asr #31
 8004f82:	f104 0a1a 	add.w	sl, r4, #26
 8004f86:	e9dd 2309 	ldrd	r2, r3, [sp, #36]	; 0x24
 8004f8a:	1a9b      	subs	r3, r3, r2
 8004f8c:	eba3 0309 	sub.w	r3, r3, r9
 8004f90:	4543      	cmp	r3, r8
 8004f92:	f77f af79 	ble.w	8004e88 <_printf_float+0x250>
 8004f96:	2301      	movs	r3, #1
 8004f98:	4652      	mov	r2, sl
 8004f9a:	4631      	mov	r1, r6
 8004f9c:	4628      	mov	r0, r5
 8004f9e:	47b8      	blx	r7
 8004fa0:	3001      	adds	r0, #1
 8004fa2:	f43f aeaa 	beq.w	8004cfa <_printf_float+0xc2>
 8004fa6:	f108 0801 	add.w	r8, r8, #1
 8004faa:	e7ec      	b.n	8004f86 <_printf_float+0x34e>
 8004fac:	4613      	mov	r3, r2
 8004fae:	4631      	mov	r1, r6
 8004fb0:	4642      	mov	r2, r8
 8004fb2:	4628      	mov	r0, r5
 8004fb4:	47b8      	blx	r7
 8004fb6:	3001      	adds	r0, #1
 8004fb8:	d1c0      	bne.n	8004f3c <_printf_float+0x304>
 8004fba:	e69e      	b.n	8004cfa <_printf_float+0xc2>
 8004fbc:	2301      	movs	r3, #1
 8004fbe:	4631      	mov	r1, r6
 8004fc0:	4628      	mov	r0, r5
 8004fc2:	9205      	str	r2, [sp, #20]
 8004fc4:	47b8      	blx	r7
 8004fc6:	3001      	adds	r0, #1
 8004fc8:	f43f ae97 	beq.w	8004cfa <_printf_float+0xc2>
 8004fcc:	9a05      	ldr	r2, [sp, #20]
 8004fce:	f10b 0b01 	add.w	fp, fp, #1
 8004fd2:	e7b9      	b.n	8004f48 <_printf_float+0x310>
 8004fd4:	ee18 3a10 	vmov	r3, s16
 8004fd8:	4652      	mov	r2, sl
 8004fda:	4631      	mov	r1, r6
 8004fdc:	4628      	mov	r0, r5
 8004fde:	47b8      	blx	r7
 8004fe0:	3001      	adds	r0, #1
 8004fe2:	d1be      	bne.n	8004f62 <_printf_float+0x32a>
 8004fe4:	e689      	b.n	8004cfa <_printf_float+0xc2>
 8004fe6:	9a05      	ldr	r2, [sp, #20]
 8004fe8:	464b      	mov	r3, r9
 8004fea:	4442      	add	r2, r8
 8004fec:	4631      	mov	r1, r6
 8004fee:	4628      	mov	r0, r5
 8004ff0:	47b8      	blx	r7
 8004ff2:	3001      	adds	r0, #1
 8004ff4:	d1c1      	bne.n	8004f7a <_printf_float+0x342>
 8004ff6:	e680      	b.n	8004cfa <_printf_float+0xc2>
 8004ff8:	9a0a      	ldr	r2, [sp, #40]	; 0x28
 8004ffa:	2a01      	cmp	r2, #1
 8004ffc:	dc01      	bgt.n	8005002 <_printf_float+0x3ca>
 8004ffe:	07db      	lsls	r3, r3, #31
 8005000:	d538      	bpl.n	8005074 <_printf_float+0x43c>
 8005002:	2301      	movs	r3, #1
 8005004:	4642      	mov	r2, r8
 8005006:	4631      	mov	r1, r6
 8005008:	4628      	mov	r0, r5
 800500a:	47b8      	blx	r7
 800500c:	3001      	adds	r0, #1
 800500e:	f43f ae74 	beq.w	8004cfa <_printf_float+0xc2>
 8005012:	ee18 3a10 	vmov	r3, s16
 8005016:	4652      	mov	r2, sl
 8005018:	4631      	mov	r1, r6
 800501a:	4628      	mov	r0, r5
 800501c:	47b8      	blx	r7
 800501e:	3001      	adds	r0, #1
 8005020:	f43f ae6b 	beq.w	8004cfa <_printf_float+0xc2>
 8005024:	e9d4 0112 	ldrd	r0, r1, [r4, #72]	; 0x48
 8005028:	2200      	movs	r2, #0
 800502a:	2300      	movs	r3, #0
 800502c:	f7fb fd6c 	bl	8000b08 <__aeabi_dcmpeq>
 8005030:	b9d8      	cbnz	r0, 800506a <_printf_float+0x432>
 8005032:	9b0a      	ldr	r3, [sp, #40]	; 0x28
 8005034:	f108 0201 	add.w	r2, r8, #1
 8005038:	3b01      	subs	r3, #1
 800503a:	4631      	mov	r1, r6
 800503c:	4628      	mov	r0, r5
 800503e:	47b8      	blx	r7
 8005040:	3001      	adds	r0, #1
 8005042:	d10e      	bne.n	8005062 <_printf_float+0x42a>
 8005044:	e659      	b.n	8004cfa <_printf_float+0xc2>
 8005046:	2301      	movs	r3, #1
 8005048:	4652      	mov	r2, sl
 800504a:	4631      	mov	r1, r6
 800504c:	4628      	mov	r0, r5
 800504e:	47b8      	blx	r7
 8005050:	3001      	adds	r0, #1
 8005052:	f43f ae52 	beq.w	8004cfa <_printf_float+0xc2>
 8005056:	f108 0801 	add.w	r8, r8, #1
 800505a:	9b0a      	ldr	r3, [sp, #40]	; 0x28
 800505c:	3b01      	subs	r3, #1
 800505e:	4543      	cmp	r3, r8
 8005060:	dcf1      	bgt.n	8005046 <_printf_float+0x40e>
 8005062:	464b      	mov	r3, r9
 8005064:	f104 0250 	add.w	r2, r4, #80	; 0x50
 8005068:	e6dc      	b.n	8004e24 <_printf_float+0x1ec>
 800506a:	f04f 0800 	mov.w	r8, #0
 800506e:	f104 0a1a 	add.w	sl, r4, #26
 8005072:	e7f2      	b.n	800505a <_printf_float+0x422>
 8005074:	2301      	movs	r3, #1
 8005076:	4642      	mov	r2, r8
 8005078:	e7df      	b.n	800503a <_printf_float+0x402>
 800507a:	2301      	movs	r3, #1
 800507c:	464a      	mov	r2, r9
 800507e:	4631      	mov	r1, r6
 8005080:	4628      	mov	r0, r5
 8005082:	47b8      	blx	r7
 8005084:	3001      	adds	r0, #1
 8005086:	f43f ae38 	beq.w	8004cfa <_printf_float+0xc2>
 800508a:	f108 0801 	add.w	r8, r8, #1
 800508e:	68e3      	ldr	r3, [r4, #12]
 8005090:	990b      	ldr	r1, [sp, #44]	; 0x2c
 8005092:	1a5b      	subs	r3, r3, r1
 8005094:	4543      	cmp	r3, r8
 8005096:	dcf0      	bgt.n	800507a <_printf_float+0x442>
 8005098:	e6fa      	b.n	8004e90 <_printf_float+0x258>
 800509a:	f04f 0800 	mov.w	r8, #0
 800509e:	f104 0919 	add.w	r9, r4, #25
 80050a2:	e7f4      	b.n	800508e <_printf_float+0x456>

080050a4 <_printf_common>:
 80050a4:	e92d 47f0 	stmdb	sp!, {r4, r5, r6, r7, r8, r9, sl, lr}
 80050a8:	4616      	mov	r6, r2
 80050aa:	4699      	mov	r9, r3
 80050ac:	688a      	ldr	r2, [r1, #8]
 80050ae:	690b      	ldr	r3, [r1, #16]
 80050b0:	f8dd 8020 	ldr.w	r8, [sp, #32]
 80050b4:	4293      	cmp	r3, r2
 80050b6:	bfb8      	it	lt
 80050b8:	4613      	movlt	r3, r2
 80050ba:	6033      	str	r3, [r6, #0]
 80050bc:	f891 2043 	ldrb.w	r2, [r1, #67]	; 0x43
 80050c0:	4607      	mov	r7, r0
 80050c2:	460c      	mov	r4, r1
 80050c4:	b10a      	cbz	r2, 80050ca <_printf_common+0x26>
 80050c6:	3301      	adds	r3, #1
 80050c8:	6033      	str	r3, [r6, #0]
 80050ca:	6823      	ldr	r3, [r4, #0]
 80050cc:	0699      	lsls	r1, r3, #26
 80050ce:	bf42      	ittt	mi
 80050d0:	6833      	ldrmi	r3, [r6, #0]
 80050d2:	3302      	addmi	r3, #2
 80050d4:	6033      	strmi	r3, [r6, #0]
 80050d6:	6825      	ldr	r5, [r4, #0]
 80050d8:	f015 0506 	ands.w	r5, r5, #6
 80050dc:	d106      	bne.n	80050ec <_printf_common+0x48>
 80050de:	f104 0a19 	add.w	sl, r4, #25
 80050e2:	68e3      	ldr	r3, [r4, #12]
 80050e4:	6832      	ldr	r2, [r6, #0]
 80050e6:	1a9b      	subs	r3, r3, r2
 80050e8:	42ab      	cmp	r3, r5
 80050ea:	dc26      	bgt.n	800513a <_printf_common+0x96>
 80050ec:	f894 2043 	ldrb.w	r2, [r4, #67]	; 0x43
 80050f0:	1e13      	subs	r3, r2, #0
 80050f2:	6822      	ldr	r2, [r4, #0]
 80050f4:	bf18      	it	ne
 80050f6:	2301      	movne	r3, #1
 80050f8:	0692      	lsls	r2, r2, #26
 80050fa:	d42b      	bmi.n	8005154 <_printf_common+0xb0>
 80050fc:	f104 0243 	add.w	r2, r4, #67	; 0x43
 8005100:	4649      	mov	r1, r9
 8005102:	4638      	mov	r0, r7
 8005104:	47c0      	blx	r8
 8005106:	3001      	adds	r0, #1
 8005108:	d01e      	beq.n	8005148 <_printf_common+0xa4>
 800510a:	6823      	ldr	r3, [r4, #0]
 800510c:	68e5      	ldr	r5, [r4, #12]
 800510e:	6832      	ldr	r2, [r6, #0]
 8005110:	f003 0306 	and.w	r3, r3, #6
 8005114:	2b04      	cmp	r3, #4
 8005116:	bf08      	it	eq
 8005118:	1aad      	subeq	r5, r5, r2
 800511a:	68a3      	ldr	r3, [r4, #8]
 800511c:	6922      	ldr	r2, [r4, #16]
 800511e:	bf0c      	ite	eq
 8005120:	ea25 75e5 	biceq.w	r5, r5, r5, asr #31
 8005124:	2500      	movne	r5, #0
 8005126:	4293      	cmp	r3, r2
 8005128:	bfc4      	itt	gt
 800512a:	1a9b      	subgt	r3, r3, r2
 800512c:	18ed      	addgt	r5, r5, r3
 800512e:	2600      	movs	r6, #0
 8005130:	341a      	adds	r4, #26
 8005132:	42b5      	cmp	r5, r6
 8005134:	d11a      	bne.n	800516c <_printf_common+0xc8>
 8005136:	2000      	movs	r0, #0
 8005138:	e008      	b.n	800514c <_printf_common+0xa8>
 800513a:	2301      	movs	r3, #1
 800513c:	4652      	mov	r2, sl
 800513e:	4649      	mov	r1, r9
 8005140:	4638      	mov	r0, r7
 8005142:	47c0      	blx	r8
 8005144:	3001      	adds	r0, #1
 8005146:	d103      	bne.n	8005150 <_printf_common+0xac>
 8005148:	f04f 30ff 	mov.w	r0, #4294967295
 800514c:	e8bd 87f0 	ldmia.w	sp!, {r4, r5, r6, r7, r8, r9, sl, pc}
 8005150:	3501      	adds	r5, #1
 8005152:	e7c6      	b.n	80050e2 <_printf_common+0x3e>
 8005154:	18e1      	adds	r1, r4, r3
 8005156:	1c5a      	adds	r2, r3, #1
 8005158:	2030      	movs	r0, #48	; 0x30
 800515a:	f881 0043 	strb.w	r0, [r1, #67]	; 0x43
 800515e:	4422      	add	r2, r4
 8005160:	f894 1045 	ldrb.w	r1, [r4, #69]	; 0x45
 8005164:	f882 1043 	strb.w	r1, [r2, #67]	; 0x43
 8005168:	3302      	adds	r3, #2
 800516a:	e7c7      	b.n	80050fc <_printf_common+0x58>
 800516c:	2301      	movs	r3, #1
 800516e:	4622      	mov	r2, r4
 8005170:	4649      	mov	r1, r9
 8005172:	4638      	mov	r0, r7
 8005174:	47c0      	blx	r8
 8005176:	3001      	adds	r0, #1
 8005178:	d0e6      	beq.n	8005148 <_printf_common+0xa4>
 800517a:	3601      	adds	r6, #1
 800517c:	e7d9      	b.n	8005132 <_printf_common+0x8e>
	...

08005180 <_printf_i>:
 8005180:	e92d 47ff 	stmdb	sp!, {r0, r1, r2, r3, r4, r5, r6, r7, r8, r9, sl, lr}
 8005184:	460c      	mov	r4, r1
 8005186:	4691      	mov	r9, r2
 8005188:	7e27      	ldrb	r7, [r4, #24]
 800518a:	990c      	ldr	r1, [sp, #48]	; 0x30
 800518c:	2f78      	cmp	r7, #120	; 0x78
 800518e:	4680      	mov	r8, r0
 8005190:	469a      	mov	sl, r3
 8005192:	f104 0243 	add.w	r2, r4, #67	; 0x43
 8005196:	d807      	bhi.n	80051a8 <_printf_i+0x28>
 8005198:	2f62      	cmp	r7, #98	; 0x62
 800519a:	d80a      	bhi.n	80051b2 <_printf_i+0x32>
 800519c:	2f00      	cmp	r7, #0
 800519e:	f000 80d8 	beq.w	8005352 <_printf_i+0x1d2>
 80051a2:	2f58      	cmp	r7, #88	; 0x58
 80051a4:	f000 80a3 	beq.w	80052ee <_printf_i+0x16e>
 80051a8:	f104 0642 	add.w	r6, r4, #66	; 0x42
 80051ac:	f884 7042 	strb.w	r7, [r4, #66]	; 0x42
 80051b0:	e03a      	b.n	8005228 <_printf_i+0xa8>
 80051b2:	f1a7 0363 	sub.w	r3, r7, #99	; 0x63
 80051b6:	2b15      	cmp	r3, #21
 80051b8:	d8f6      	bhi.n	80051a8 <_printf_i+0x28>
 80051ba:	a001      	add	r0, pc, #4	; (adr r0, 80051c0 <_printf_i+0x40>)
 80051bc:	f850 f023 	ldr.w	pc, [r0, r3, lsl #2]
 80051c0:	08005219 	.word	0x08005219
 80051c4:	0800522d 	.word	0x0800522d
 80051c8:	080051a9 	.word	0x080051a9
 80051cc:	080051a9 	.word	0x080051a9
 80051d0:	080051a9 	.word	0x080051a9
 80051d4:	080051a9 	.word	0x080051a9
 80051d8:	0800522d 	.word	0x0800522d
 80051dc:	080051a9 	.word	0x080051a9
 80051e0:	080051a9 	.word	0x080051a9
 80051e4:	080051a9 	.word	0x080051a9
 80051e8:	080051a9 	.word	0x080051a9
 80051ec:	08005339 	.word	0x08005339
 80051f0:	0800525d 	.word	0x0800525d
 80051f4:	0800531b 	.word	0x0800531b
 80051f8:	080051a9 	.word	0x080051a9
 80051fc:	080051a9 	.word	0x080051a9
 8005200:	0800535b 	.word	0x0800535b
 8005204:	080051a9 	.word	0x080051a9
 8005208:	0800525d 	.word	0x0800525d
 800520c:	080051a9 	.word	0x080051a9
 8005210:	080051a9 	.word	0x080051a9
 8005214:	08005323 	.word	0x08005323
 8005218:	680b      	ldr	r3, [r1, #0]
 800521a:	1d1a      	adds	r2, r3, #4
 800521c:	681b      	ldr	r3, [r3, #0]
 800521e:	600a      	str	r2, [r1, #0]
 8005220:	f104 0642 	add.w	r6, r4, #66	; 0x42
 8005224:	f884 3042 	strb.w	r3, [r4, #66]	; 0x42
 8005228:	2301      	movs	r3, #1
 800522a:	e0a3      	b.n	8005374 <_printf_i+0x1f4>
 800522c:	6825      	ldr	r5, [r4, #0]
 800522e:	6808      	ldr	r0, [r1, #0]
 8005230:	062e      	lsls	r6, r5, #24
 8005232:	f100 0304 	add.w	r3, r0, #4
 8005236:	d50a      	bpl.n	800524e <_printf_i+0xce>
 8005238:	6805      	ldr	r5, [r0, #0]
 800523a:	600b      	str	r3, [r1, #0]
 800523c:	2d00      	cmp	r5, #0
 800523e:	da03      	bge.n	8005248 <_printf_i+0xc8>
 8005240:	232d      	movs	r3, #45	; 0x2d
 8005242:	426d      	negs	r5, r5
 8005244:	f884 3043 	strb.w	r3, [r4, #67]	; 0x43
 8005248:	485e      	ldr	r0, [pc, #376]	; (80053c4 <_printf_i+0x244>)
 800524a:	230a      	movs	r3, #10
 800524c:	e019      	b.n	8005282 <_printf_i+0x102>
 800524e:	f015 0f40 	tst.w	r5, #64	; 0x40
 8005252:	6805      	ldr	r5, [r0, #0]
 8005254:	600b      	str	r3, [r1, #0]
 8005256:	bf18      	it	ne
 8005258:	b22d      	sxthne	r5, r5
 800525a:	e7ef      	b.n	800523c <_printf_i+0xbc>
 800525c:	680b      	ldr	r3, [r1, #0]
 800525e:	6825      	ldr	r5, [r4, #0]
 8005260:	1d18      	adds	r0, r3, #4
 8005262:	6008      	str	r0, [r1, #0]
 8005264:	0628      	lsls	r0, r5, #24
 8005266:	d501      	bpl.n	800526c <_printf_i+0xec>
 8005268:	681d      	ldr	r5, [r3, #0]
 800526a:	e002      	b.n	8005272 <_printf_i+0xf2>
 800526c:	0669      	lsls	r1, r5, #25
 800526e:	d5fb      	bpl.n	8005268 <_printf_i+0xe8>
 8005270:	881d      	ldrh	r5, [r3, #0]
 8005272:	4854      	ldr	r0, [pc, #336]	; (80053c4 <_printf_i+0x244>)
 8005274:	2f6f      	cmp	r7, #111	; 0x6f
 8005276:	bf0c      	ite	eq
 8005278:	2308      	moveq	r3, #8
 800527a:	230a      	movne	r3, #10
 800527c:	2100      	movs	r1, #0
 800527e:	f884 1043 	strb.w	r1, [r4, #67]	; 0x43
 8005282:	6866      	ldr	r6, [r4, #4]
 8005284:	60a6      	str	r6, [r4, #8]
 8005286:	2e00      	cmp	r6, #0
 8005288:	bfa2      	ittt	ge
 800528a:	6821      	ldrge	r1, [r4, #0]
 800528c:	f021 0104 	bicge.w	r1, r1, #4
 8005290:	6021      	strge	r1, [r4, #0]
 8005292:	b90d      	cbnz	r5, 8005298 <_printf_i+0x118>
 8005294:	2e00      	cmp	r6, #0
 8005296:	d04d      	beq.n	8005334 <_printf_i+0x1b4>
 8005298:	4616      	mov	r6, r2
 800529a:	fbb5 f1f3 	udiv	r1, r5, r3
 800529e:	fb03 5711 	mls	r7, r3, r1, r5
 80052a2:	5dc7      	ldrb	r7, [r0, r7]
 80052a4:	f806 7d01 	strb.w	r7, [r6, #-1]!
 80052a8:	462f      	mov	r7, r5
 80052aa:	42bb      	cmp	r3, r7
 80052ac:	460d      	mov	r5, r1
 80052ae:	d9f4      	bls.n	800529a <_printf_i+0x11a>
 80052b0:	2b08      	cmp	r3, #8
 80052b2:	d10b      	bne.n	80052cc <_printf_i+0x14c>
 80052b4:	6823      	ldr	r3, [r4, #0]
 80052b6:	07df      	lsls	r7, r3, #31
 80052b8:	d508      	bpl.n	80052cc <_printf_i+0x14c>
 80052ba:	6923      	ldr	r3, [r4, #16]
 80052bc:	6861      	ldr	r1, [r4, #4]
 80052be:	4299      	cmp	r1, r3
 80052c0:	bfde      	ittt	le
 80052c2:	2330      	movle	r3, #48	; 0x30
 80052c4:	f806 3c01 	strble.w	r3, [r6, #-1]
 80052c8:	f106 36ff 	addle.w	r6, r6, #4294967295
 80052cc:	1b92      	subs	r2, r2, r6
 80052ce:	6122      	str	r2, [r4, #16]
 80052d0:	f8cd a000 	str.w	sl, [sp]
 80052d4:	464b      	mov	r3, r9
 80052d6:	aa03      	add	r2, sp, #12
 80052d8:	4621      	mov	r1, r4
 80052da:	4640      	mov	r0, r8
 80052dc:	f7ff fee2 	bl	80050a4 <_printf_common>
 80052e0:	3001      	adds	r0, #1
 80052e2:	d14c      	bne.n	800537e <_printf_i+0x1fe>
 80052e4:	f04f 30ff 	mov.w	r0, #4294967295
 80052e8:	b004      	add	sp, #16
 80052ea:	e8bd 87f0 	ldmia.w	sp!, {r4, r5, r6, r7, r8, r9, sl, pc}
 80052ee:	4835      	ldr	r0, [pc, #212]	; (80053c4 <_printf_i+0x244>)
 80052f0:	f884 7045 	strb.w	r7, [r4, #69]	; 0x45
 80052f4:	6823      	ldr	r3, [r4, #0]
 80052f6:	680e      	ldr	r6, [r1, #0]
 80052f8:	061f      	lsls	r7, r3, #24
 80052fa:	f856 5b04 	ldr.w	r5, [r6], #4
 80052fe:	600e      	str	r6, [r1, #0]
 8005300:	d514      	bpl.n	800532c <_printf_i+0x1ac>
 8005302:	07d9      	lsls	r1, r3, #31
 8005304:	bf44      	itt	mi
 8005306:	f043 0320 	orrmi.w	r3, r3, #32
 800530a:	6023      	strmi	r3, [r4, #0]
 800530c:	b91d      	cbnz	r5, 8005316 <_printf_i+0x196>
 800530e:	6823      	ldr	r3, [r4, #0]
 8005310:	f023 0320 	bic.w	r3, r3, #32
 8005314:	6023      	str	r3, [r4, #0]
 8005316:	2310      	movs	r3, #16
 8005318:	e7b0      	b.n	800527c <_printf_i+0xfc>
 800531a:	6823      	ldr	r3, [r4, #0]
 800531c:	f043 0320 	orr.w	r3, r3, #32
 8005320:	6023      	str	r3, [r4, #0]
 8005322:	2378      	movs	r3, #120	; 0x78
 8005324:	4828      	ldr	r0, [pc, #160]	; (80053c8 <_printf_i+0x248>)
 8005326:	f884 3045 	strb.w	r3, [r4, #69]	; 0x45
 800532a:	e7e3      	b.n	80052f4 <_printf_i+0x174>
 800532c:	065e      	lsls	r6, r3, #25
 800532e:	bf48      	it	mi
 8005330:	b2ad      	uxthmi	r5, r5
 8005332:	e7e6      	b.n	8005302 <_printf_i+0x182>
 8005334:	4616      	mov	r6, r2
 8005336:	e7bb      	b.n	80052b0 <_printf_i+0x130>
 8005338:	680b      	ldr	r3, [r1, #0]
 800533a:	6826      	ldr	r6, [r4, #0]
 800533c:	6960      	ldr	r0, [r4, #20]
 800533e:	1d1d      	adds	r5, r3, #4
 8005340:	600d      	str	r5, [r1, #0]
 8005342:	0635      	lsls	r5, r6, #24
 8005344:	681b      	ldr	r3, [r3, #0]
 8005346:	d501      	bpl.n	800534c <_printf_i+0x1cc>
 8005348:	6018      	str	r0, [r3, #0]
 800534a:	e002      	b.n	8005352 <_printf_i+0x1d2>
 800534c:	0671      	lsls	r1, r6, #25
 800534e:	d5fb      	bpl.n	8005348 <_printf_i+0x1c8>
 8005350:	8018      	strh	r0, [r3, #0]
 8005352:	2300      	movs	r3, #0
 8005354:	6123      	str	r3, [r4, #16]
 8005356:	4616      	mov	r6, r2
 8005358:	e7ba      	b.n	80052d0 <_printf_i+0x150>
 800535a:	680b      	ldr	r3, [r1, #0]
 800535c:	1d1a      	adds	r2, r3, #4
 800535e:	600a      	str	r2, [r1, #0]
 8005360:	681e      	ldr	r6, [r3, #0]
 8005362:	6862      	ldr	r2, [r4, #4]
 8005364:	2100      	movs	r1, #0
 8005366:	4630      	mov	r0, r6
 8005368:	f7fa ff5a 	bl	8000220 <memchr>
 800536c:	b108      	cbz	r0, 8005372 <_printf_i+0x1f2>
 800536e:	1b80      	subs	r0, r0, r6
 8005370:	6060      	str	r0, [r4, #4]
 8005372:	6863      	ldr	r3, [r4, #4]
 8005374:	6123      	str	r3, [r4, #16]
 8005376:	2300      	movs	r3, #0
 8005378:	f884 3043 	strb.w	r3, [r4, #67]	; 0x43
 800537c:	e7a8      	b.n	80052d0 <_printf_i+0x150>
 800537e:	6923      	ldr	r3, [r4, #16]
 8005380:	4632      	mov	r2, r6
 8005382:	4649      	mov	r1, r9
 8005384:	4640      	mov	r0, r8
 8005386:	47d0      	blx	sl
 8005388:	3001      	adds	r0, #1
 800538a:	d0ab      	beq.n	80052e4 <_printf_i+0x164>
 800538c:	6823      	ldr	r3, [r4, #0]
 800538e:	079b      	lsls	r3, r3, #30
 8005390:	d413      	bmi.n	80053ba <_printf_i+0x23a>
 8005392:	68e0      	ldr	r0, [r4, #12]
 8005394:	9b03      	ldr	r3, [sp, #12]
 8005396:	4298      	cmp	r0, r3
 8005398:	bfb8      	it	lt
 800539a:	4618      	movlt	r0, r3
 800539c:	e7a4      	b.n	80052e8 <_printf_i+0x168>
 800539e:	2301      	movs	r3, #1
 80053a0:	4632      	mov	r2, r6
 80053a2:	4649      	mov	r1, r9
 80053a4:	4640      	mov	r0, r8
 80053a6:	47d0      	blx	sl
 80053a8:	3001      	adds	r0, #1
 80053aa:	d09b      	beq.n	80052e4 <_printf_i+0x164>
 80053ac:	3501      	adds	r5, #1
 80053ae:	68e3      	ldr	r3, [r4, #12]
 80053b0:	9903      	ldr	r1, [sp, #12]
 80053b2:	1a5b      	subs	r3, r3, r1
 80053b4:	42ab      	cmp	r3, r5
 80053b6:	dcf2      	bgt.n	800539e <_printf_i+0x21e>
 80053b8:	e7eb      	b.n	8005392 <_printf_i+0x212>
 80053ba:	2500      	movs	r5, #0
 80053bc:	f104 0619 	add.w	r6, r4, #25
 80053c0:	e7f5      	b.n	80053ae <_printf_i+0x22e>
 80053c2:	bf00      	nop
 80053c4:	08007906 	.word	0x08007906
 80053c8:	08007917 	.word	0x08007917

080053cc <sniprintf>:
 80053cc:	b40c      	push	{r2, r3}
 80053ce:	b530      	push	{r4, r5, lr}
 80053d0:	4b17      	ldr	r3, [pc, #92]	; (8005430 <sniprintf+0x64>)
 80053d2:	1e0c      	subs	r4, r1, #0
 80053d4:	681d      	ldr	r5, [r3, #0]
 80053d6:	b09d      	sub	sp, #116	; 0x74
 80053d8:	da08      	bge.n	80053ec <sniprintf+0x20>
 80053da:	238b      	movs	r3, #139	; 0x8b
 80053dc:	602b      	str	r3, [r5, #0]
 80053de:	f04f 30ff 	mov.w	r0, #4294967295
 80053e2:	b01d      	add	sp, #116	; 0x74
 80053e4:	e8bd 4030 	ldmia.w	sp!, {r4, r5, lr}
 80053e8:	b002      	add	sp, #8
 80053ea:	4770      	bx	lr
 80053ec:	f44f 7302 	mov.w	r3, #520	; 0x208
 80053f0:	f8ad 3014 	strh.w	r3, [sp, #20]
 80053f4:	bf14      	ite	ne
 80053f6:	f104 33ff 	addne.w	r3, r4, #4294967295
 80053fa:	4623      	moveq	r3, r4
 80053fc:	9304      	str	r3, [sp, #16]
 80053fe:	9307      	str	r3, [sp, #28]
 8005400:	f64f 73ff 	movw	r3, #65535	; 0xffff
 8005404:	9002      	str	r0, [sp, #8]
 8005406:	9006      	str	r0, [sp, #24]
 8005408:	f8ad 3016 	strh.w	r3, [sp, #22]
 800540c:	9a20      	ldr	r2, [sp, #128]	; 0x80
 800540e:	ab21      	add	r3, sp, #132	; 0x84
 8005410:	a902      	add	r1, sp, #8
 8005412:	4628      	mov	r0, r5
 8005414:	9301      	str	r3, [sp, #4]
 8005416:	f001 fb55 	bl	8006ac4 <_svfiprintf_r>
 800541a:	1c43      	adds	r3, r0, #1
 800541c:	bfbc      	itt	lt
 800541e:	238b      	movlt	r3, #139	; 0x8b
 8005420:	602b      	strlt	r3, [r5, #0]
 8005422:	2c00      	cmp	r4, #0
 8005424:	d0dd      	beq.n	80053e2 <sniprintf+0x16>
 8005426:	9b02      	ldr	r3, [sp, #8]
 8005428:	2200      	movs	r2, #0
 800542a:	701a      	strb	r2, [r3, #0]
 800542c:	e7d9      	b.n	80053e2 <sniprintf+0x16>
 800542e:	bf00      	nop
 8005430:	20000010 	.word	0x20000010

08005434 <siprintf>:
 8005434:	b40e      	push	{r1, r2, r3}
 8005436:	b500      	push	{lr}
 8005438:	b09c      	sub	sp, #112	; 0x70
 800543a:	ab1d      	add	r3, sp, #116	; 0x74
 800543c:	9002      	str	r0, [sp, #8]
 800543e:	9006      	str	r0, [sp, #24]
 8005440:	f06f 4100 	mvn.w	r1, #2147483648	; 0x80000000
 8005444:	4809      	ldr	r0, [pc, #36]	; (800546c <siprintf+0x38>)
 8005446:	9107      	str	r1, [sp, #28]
 8005448:	9104      	str	r1, [sp, #16]
 800544a:	4909      	ldr	r1, [pc, #36]	; (8005470 <siprintf+0x3c>)
 800544c:	f853 2b04 	ldr.w	r2, [r3], #4
 8005450:	9105      	str	r1, [sp, #20]
 8005452:	6800      	ldr	r0, [r0, #0]
 8005454:	9301      	str	r3, [sp, #4]
 8005456:	a902      	add	r1, sp, #8
 8005458:	f001 fb34 	bl	8006ac4 <_svfiprintf_r>
 800545c:	9b02      	ldr	r3, [sp, #8]
 800545e:	2200      	movs	r2, #0
 8005460:	701a      	strb	r2, [r3, #0]
 8005462:	b01c      	add	sp, #112	; 0x70
 8005464:	f85d eb04 	ldr.w	lr, [sp], #4
 8005468:	b003      	add	sp, #12
 800546a:	4770      	bx	lr
 800546c:	20000010 	.word	0x20000010
 8005470:	ffff0208 	.word	0xffff0208

08005474 <quorem>:
 8005474:	e92d 4ff7 	stmdb	sp!, {r0, r1, r2, r4, r5, r6, r7, r8, r9, sl, fp, lr}
 8005478:	6903      	ldr	r3, [r0, #16]
 800547a:	690c      	ldr	r4, [r1, #16]
 800547c:	42a3      	cmp	r3, r4
 800547e:	4607      	mov	r7, r0
 8005480:	f2c0 8081 	blt.w	8005586 <quorem+0x112>
 8005484:	3c01      	subs	r4, #1
 8005486:	f101 0814 	add.w	r8, r1, #20
 800548a:	f100 0514 	add.w	r5, r0, #20
 800548e:	eb05 0384 	add.w	r3, r5, r4, lsl #2
 8005492:	9301      	str	r3, [sp, #4]
 8005494:	f858 3024 	ldr.w	r3, [r8, r4, lsl #2]
 8005498:	f855 2024 	ldr.w	r2, [r5, r4, lsl #2]
 800549c:	3301      	adds	r3, #1
 800549e:	429a      	cmp	r2, r3
 80054a0:	ea4f 0b84 	mov.w	fp, r4, lsl #2
 80054a4:	eb08 0984 	add.w	r9, r8, r4, lsl #2
 80054a8:	fbb2 f6f3 	udiv	r6, r2, r3
 80054ac:	d331      	bcc.n	8005512 <quorem+0x9e>
 80054ae:	f04f 0e00 	mov.w	lr, #0
 80054b2:	4640      	mov	r0, r8
 80054b4:	46ac      	mov	ip, r5
 80054b6:	46f2      	mov	sl, lr
 80054b8:	f850 2b04 	ldr.w	r2, [r0], #4
 80054bc:	b293      	uxth	r3, r2
 80054be:	fb06 e303 	mla	r3, r6, r3, lr
 80054c2:	ea4f 4e13 	mov.w	lr, r3, lsr #16
 80054c6:	b29b      	uxth	r3, r3
 80054c8:	ebaa 0303 	sub.w	r3, sl, r3
 80054cc:	0c12      	lsrs	r2, r2, #16
 80054ce:	f8dc a000 	ldr.w	sl, [ip]
 80054d2:	fb06 e202 	mla	r2, r6, r2, lr
 80054d6:	fa13 f38a 	uxtah	r3, r3, sl
 80054da:	ea4f 4e12 	mov.w	lr, r2, lsr #16
 80054de:	fa1f fa82 	uxth.w	sl, r2
 80054e2:	f8dc 2000 	ldr.w	r2, [ip]
 80054e6:	ebca 4212 	rsb	r2, sl, r2, lsr #16
 80054ea:	eb02 4223 	add.w	r2, r2, r3, asr #16
 80054ee:	b29b      	uxth	r3, r3
 80054f0:	ea43 4302 	orr.w	r3, r3, r2, lsl #16
 80054f4:	4581      	cmp	r9, r0
 80054f6:	f84c 3b04 	str.w	r3, [ip], #4
 80054fa:	ea4f 4a22 	mov.w	sl, r2, asr #16
 80054fe:	d2db      	bcs.n	80054b8 <quorem+0x44>
 8005500:	f855 300b 	ldr.w	r3, [r5, fp]
 8005504:	b92b      	cbnz	r3, 8005512 <quorem+0x9e>
 8005506:	9b01      	ldr	r3, [sp, #4]
 8005508:	3b04      	subs	r3, #4
 800550a:	429d      	cmp	r5, r3
 800550c:	461a      	mov	r2, r3
 800550e:	d32e      	bcc.n	800556e <quorem+0xfa>
 8005510:	613c      	str	r4, [r7, #16]
 8005512:	4638      	mov	r0, r7
 8005514:	f001 f8c0 	bl	8006698 <__mcmp>
 8005518:	2800      	cmp	r0, #0
 800551a:	db24      	blt.n	8005566 <quorem+0xf2>
 800551c:	3601      	adds	r6, #1
 800551e:	4628      	mov	r0, r5
 8005520:	f04f 0c00 	mov.w	ip, #0
 8005524:	f858 2b04 	ldr.w	r2, [r8], #4
 8005528:	f8d0 e000 	ldr.w	lr, [r0]
 800552c:	b293      	uxth	r3, r2
 800552e:	ebac 0303 	sub.w	r3, ip, r3
 8005532:	0c12      	lsrs	r2, r2, #16
 8005534:	fa13 f38e 	uxtah	r3, r3, lr
 8005538:	ebc2 421e 	rsb	r2, r2, lr, lsr #16
 800553c:	eb02 4223 	add.w	r2, r2, r3, asr #16
 8005540:	b29b      	uxth	r3, r3
 8005542:	ea43 4302 	orr.w	r3, r3, r2, lsl #16
 8005546:	45c1      	cmp	r9, r8
 8005548:	f840 3b04 	str.w	r3, [r0], #4
 800554c:	ea4f 4c22 	mov.w	ip, r2, asr #16
 8005550:	d2e8      	bcs.n	8005524 <quorem+0xb0>
 8005552:	f855 2024 	ldr.w	r2, [r5, r4, lsl #2]
 8005556:	eb05 0384 	add.w	r3, r5, r4, lsl #2
 800555a:	b922      	cbnz	r2, 8005566 <quorem+0xf2>
 800555c:	3b04      	subs	r3, #4
 800555e:	429d      	cmp	r5, r3
 8005560:	461a      	mov	r2, r3
 8005562:	d30a      	bcc.n	800557a <quorem+0x106>
 8005564:	613c      	str	r4, [r7, #16]
 8005566:	4630      	mov	r0, r6
 8005568:	b003      	add	sp, #12
 800556a:	e8bd 8ff0 	ldmia.w	sp!, {r4, r5, r6, r7, r8, r9, sl, fp, pc}
 800556e:	6812      	ldr	r2, [r2, #0]
 8005570:	3b04      	subs	r3, #4
 8005572:	2a00      	cmp	r2, #0
 8005574:	d1cc      	bne.n	8005510 <quorem+0x9c>
 8005576:	3c01      	subs	r4, #1
 8005578:	e7c7      	b.n	800550a <quorem+0x96>
 800557a:	6812      	ldr	r2, [r2, #0]
 800557c:	3b04      	subs	r3, #4
 800557e:	2a00      	cmp	r2, #0
 8005580:	d1f0      	bne.n	8005564 <quorem+0xf0>
 8005582:	3c01      	subs	r4, #1
 8005584:	e7eb      	b.n	800555e <quorem+0xea>
 8005586:	2000      	movs	r0, #0
 8005588:	e7ee      	b.n	8005568 <quorem+0xf4>
 800558a:	0000      	movs	r0, r0
 800558c:	0000      	movs	r0, r0
	...

08005590 <_dtoa_r>:
 8005590:	e92d 4ff0 	stmdb	sp!, {r4, r5, r6, r7, r8, r9, sl, fp, lr}
 8005594:	ed2d 8b02 	vpush	{d8}
 8005598:	ec57 6b10 	vmov	r6, r7, d0
 800559c:	b095      	sub	sp, #84	; 0x54
 800559e:	6a45      	ldr	r5, [r0, #36]	; 0x24
 80055a0:	f8dd 8080 	ldr.w	r8, [sp, #128]	; 0x80
 80055a4:	9105      	str	r1, [sp, #20]
 80055a6:	e9cd 6702 	strd	r6, r7, [sp, #8]
 80055aa:	4604      	mov	r4, r0
 80055ac:	9209      	str	r2, [sp, #36]	; 0x24
 80055ae:	930f      	str	r3, [sp, #60]	; 0x3c
 80055b0:	b975      	cbnz	r5, 80055d0 <_dtoa_r+0x40>
 80055b2:	2010      	movs	r0, #16
 80055b4:	f000 fddc 	bl	8006170 <malloc>
 80055b8:	4602      	mov	r2, r0
 80055ba:	6260      	str	r0, [r4, #36]	; 0x24
 80055bc:	b920      	cbnz	r0, 80055c8 <_dtoa_r+0x38>
 80055be:	4bb2      	ldr	r3, [pc, #712]	; (8005888 <_dtoa_r+0x2f8>)
 80055c0:	21ea      	movs	r1, #234	; 0xea
 80055c2:	48b2      	ldr	r0, [pc, #712]	; (800588c <_dtoa_r+0x2fc>)
 80055c4:	f001 fb8e 	bl	8006ce4 <__assert_func>
 80055c8:	e9c0 5501 	strd	r5, r5, [r0, #4]
 80055cc:	6005      	str	r5, [r0, #0]
 80055ce:	60c5      	str	r5, [r0, #12]
 80055d0:	6a63      	ldr	r3, [r4, #36]	; 0x24
 80055d2:	6819      	ldr	r1, [r3, #0]
 80055d4:	b151      	cbz	r1, 80055ec <_dtoa_r+0x5c>
 80055d6:	685a      	ldr	r2, [r3, #4]
 80055d8:	604a      	str	r2, [r1, #4]
 80055da:	2301      	movs	r3, #1
 80055dc:	4093      	lsls	r3, r2
 80055de:	608b      	str	r3, [r1, #8]
 80055e0:	4620      	mov	r0, r4
 80055e2:	f000 fe1b 	bl	800621c <_Bfree>
 80055e6:	6a63      	ldr	r3, [r4, #36]	; 0x24
 80055e8:	2200      	movs	r2, #0
 80055ea:	601a      	str	r2, [r3, #0]
 80055ec:	1e3b      	subs	r3, r7, #0
 80055ee:	bfb9      	ittee	lt
 80055f0:	f023 4300 	biclt.w	r3, r3, #2147483648	; 0x80000000
 80055f4:	9303      	strlt	r3, [sp, #12]
 80055f6:	2300      	movge	r3, #0
 80055f8:	f8c8 3000 	strge.w	r3, [r8]
 80055fc:	f8dd 900c 	ldr.w	r9, [sp, #12]
 8005600:	4ba3      	ldr	r3, [pc, #652]	; (8005890 <_dtoa_r+0x300>)
 8005602:	bfbc      	itt	lt
 8005604:	2201      	movlt	r2, #1
 8005606:	f8c8 2000 	strlt.w	r2, [r8]
 800560a:	ea33 0309 	bics.w	r3, r3, r9
 800560e:	d11b      	bne.n	8005648 <_dtoa_r+0xb8>
 8005610:	9a0f      	ldr	r2, [sp, #60]	; 0x3c
 8005612:	f242 730f 	movw	r3, #9999	; 0x270f
 8005616:	6013      	str	r3, [r2, #0]
 8005618:	f3c9 0313 	ubfx	r3, r9, #0, #20
 800561c:	4333      	orrs	r3, r6
 800561e:	f000 857a 	beq.w	8006116 <_dtoa_r+0xb86>
 8005622:	9b21      	ldr	r3, [sp, #132]	; 0x84
 8005624:	b963      	cbnz	r3, 8005640 <_dtoa_r+0xb0>
 8005626:	4b9b      	ldr	r3, [pc, #620]	; (8005894 <_dtoa_r+0x304>)
 8005628:	e024      	b.n	8005674 <_dtoa_r+0xe4>
 800562a:	4b9b      	ldr	r3, [pc, #620]	; (8005898 <_dtoa_r+0x308>)
 800562c:	9300      	str	r3, [sp, #0]
 800562e:	3308      	adds	r3, #8
 8005630:	9a21      	ldr	r2, [sp, #132]	; 0x84
 8005632:	6013      	str	r3, [r2, #0]
 8005634:	9800      	ldr	r0, [sp, #0]
 8005636:	b015      	add	sp, #84	; 0x54
 8005638:	ecbd 8b02 	vpop	{d8}
 800563c:	e8bd 8ff0 	ldmia.w	sp!, {r4, r5, r6, r7, r8, r9, sl, fp, pc}
 8005640:	4b94      	ldr	r3, [pc, #592]	; (8005894 <_dtoa_r+0x304>)
 8005642:	9300      	str	r3, [sp, #0]
 8005644:	3303      	adds	r3, #3
 8005646:	e7f3      	b.n	8005630 <_dtoa_r+0xa0>
 8005648:	ed9d 7b02 	vldr	d7, [sp, #8]
 800564c:	2200      	movs	r2, #0
 800564e:	ec51 0b17 	vmov	r0, r1, d7
 8005652:	2300      	movs	r3, #0
 8005654:	ed8d 7b0a 	vstr	d7, [sp, #40]	; 0x28
 8005658:	f7fb fa56 	bl	8000b08 <__aeabi_dcmpeq>
 800565c:	4680      	mov	r8, r0
 800565e:	b158      	cbz	r0, 8005678 <_dtoa_r+0xe8>
 8005660:	9a0f      	ldr	r2, [sp, #60]	; 0x3c
 8005662:	2301      	movs	r3, #1
 8005664:	6013      	str	r3, [r2, #0]
 8005666:	9b21      	ldr	r3, [sp, #132]	; 0x84
 8005668:	2b00      	cmp	r3, #0
 800566a:	f000 8551 	beq.w	8006110 <_dtoa_r+0xb80>
 800566e:	488b      	ldr	r0, [pc, #556]	; (800589c <_dtoa_r+0x30c>)
 8005670:	6018      	str	r0, [r3, #0]
 8005672:	1e43      	subs	r3, r0, #1
 8005674:	9300      	str	r3, [sp, #0]
 8005676:	e7dd      	b.n	8005634 <_dtoa_r+0xa4>
 8005678:	ed9d 0b0a 	vldr	d0, [sp, #40]	; 0x28
 800567c:	aa12      	add	r2, sp, #72	; 0x48
 800567e:	a913      	add	r1, sp, #76	; 0x4c
 8005680:	4620      	mov	r0, r4
 8005682:	f001 f8ad 	bl	80067e0 <__d2b>
 8005686:	f3c9 550a 	ubfx	r5, r9, #20, #11
 800568a:	4683      	mov	fp, r0
 800568c:	2d00      	cmp	r5, #0
 800568e:	d07c      	beq.n	800578a <_dtoa_r+0x1fa>
 8005690:	9b0b      	ldr	r3, [sp, #44]	; 0x2c
 8005692:	f8cd 8040 	str.w	r8, [sp, #64]	; 0x40
 8005696:	f3c3 0313 	ubfx	r3, r3, #0, #20
 800569a:	e9dd 670a 	ldrd	r6, r7, [sp, #40]	; 0x28
 800569e:	f043 577f 	orr.w	r7, r3, #1069547520	; 0x3fc00000
 80056a2:	f447 1740 	orr.w	r7, r7, #3145728	; 0x300000
 80056a6:	f2a5 35ff 	subw	r5, r5, #1023	; 0x3ff
 80056aa:	4b7d      	ldr	r3, [pc, #500]	; (80058a0 <_dtoa_r+0x310>)
 80056ac:	2200      	movs	r2, #0
 80056ae:	4630      	mov	r0, r6
 80056b0:	4639      	mov	r1, r7
 80056b2:	f7fa fe09 	bl	80002c8 <__aeabi_dsub>
 80056b6:	a36e      	add	r3, pc, #440	; (adr r3, 8005870 <_dtoa_r+0x2e0>)
 80056b8:	e9d3 2300 	ldrd	r2, r3, [r3]
 80056bc:	f7fa ffbc 	bl	8000638 <__aeabi_dmul>
 80056c0:	a36d      	add	r3, pc, #436	; (adr r3, 8005878 <_dtoa_r+0x2e8>)
 80056c2:	e9d3 2300 	ldrd	r2, r3, [r3]
 80056c6:	f7fa fe01 	bl	80002cc <__adddf3>
 80056ca:	4606      	mov	r6, r0
 80056cc:	4628      	mov	r0, r5
 80056ce:	460f      	mov	r7, r1
 80056d0:	f7fa ff48 	bl	8000564 <__aeabi_i2d>
 80056d4:	a36a      	add	r3, pc, #424	; (adr r3, 8005880 <_dtoa_r+0x2f0>)
 80056d6:	e9d3 2300 	ldrd	r2, r3, [r3]
 80056da:	f7fa ffad 	bl	8000638 <__aeabi_dmul>
 80056de:	4602      	mov	r2, r0
 80056e0:	460b      	mov	r3, r1
 80056e2:	4630      	mov	r0, r6
 80056e4:	4639      	mov	r1, r7
 80056e6:	f7fa fdf1 	bl	80002cc <__adddf3>
 80056ea:	4606      	mov	r6, r0
 80056ec:	460f      	mov	r7, r1
 80056ee:	f7fb fa53 	bl	8000b98 <__aeabi_d2iz>
 80056f2:	2200      	movs	r2, #0
 80056f4:	4682      	mov	sl, r0
 80056f6:	2300      	movs	r3, #0
 80056f8:	4630      	mov	r0, r6
 80056fa:	4639      	mov	r1, r7
 80056fc:	f7fb fa0e 	bl	8000b1c <__aeabi_dcmplt>
 8005700:	b148      	cbz	r0, 8005716 <_dtoa_r+0x186>
 8005702:	4650      	mov	r0, sl
 8005704:	f7fa ff2e 	bl	8000564 <__aeabi_i2d>
 8005708:	4632      	mov	r2, r6
 800570a:	463b      	mov	r3, r7
 800570c:	f7fb f9fc 	bl	8000b08 <__aeabi_dcmpeq>
 8005710:	b908      	cbnz	r0, 8005716 <_dtoa_r+0x186>
 8005712:	f10a 3aff 	add.w	sl, sl, #4294967295
 8005716:	f1ba 0f16 	cmp.w	sl, #22
 800571a:	d854      	bhi.n	80057c6 <_dtoa_r+0x236>
 800571c:	4b61      	ldr	r3, [pc, #388]	; (80058a4 <_dtoa_r+0x314>)
 800571e:	eb03 03ca 	add.w	r3, r3, sl, lsl #3
 8005722:	e9d3 2300 	ldrd	r2, r3, [r3]
 8005726:	e9dd 010a 	ldrd	r0, r1, [sp, #40]	; 0x28
 800572a:	f7fb f9f7 	bl	8000b1c <__aeabi_dcmplt>
 800572e:	2800      	cmp	r0, #0
 8005730:	d04b      	beq.n	80057ca <_dtoa_r+0x23a>
 8005732:	f10a 3aff 	add.w	sl, sl, #4294967295
 8005736:	2300      	movs	r3, #0
 8005738:	930e      	str	r3, [sp, #56]	; 0x38
 800573a:	9b12      	ldr	r3, [sp, #72]	; 0x48
 800573c:	1b5d      	subs	r5, r3, r5
 800573e:	1e6b      	subs	r3, r5, #1
 8005740:	9304      	str	r3, [sp, #16]
 8005742:	bf43      	ittte	mi
 8005744:	2300      	movmi	r3, #0
 8005746:	f1c5 0801 	rsbmi	r8, r5, #1
 800574a:	9304      	strmi	r3, [sp, #16]
 800574c:	f04f 0800 	movpl.w	r8, #0
 8005750:	f1ba 0f00 	cmp.w	sl, #0
 8005754:	db3b      	blt.n	80057ce <_dtoa_r+0x23e>
 8005756:	9b04      	ldr	r3, [sp, #16]
 8005758:	f8cd a034 	str.w	sl, [sp, #52]	; 0x34
 800575c:	4453      	add	r3, sl
 800575e:	9304      	str	r3, [sp, #16]
 8005760:	2300      	movs	r3, #0
 8005762:	9306      	str	r3, [sp, #24]
 8005764:	9b05      	ldr	r3, [sp, #20]
 8005766:	2b09      	cmp	r3, #9
 8005768:	d869      	bhi.n	800583e <_dtoa_r+0x2ae>
 800576a:	2b05      	cmp	r3, #5
 800576c:	bfc4      	itt	gt
 800576e:	3b04      	subgt	r3, #4
 8005770:	9305      	strgt	r3, [sp, #20]
 8005772:	9b05      	ldr	r3, [sp, #20]
 8005774:	f1a3 0302 	sub.w	r3, r3, #2
 8005778:	bfcc      	ite	gt
 800577a:	2500      	movgt	r5, #0
 800577c:	2501      	movle	r5, #1
 800577e:	2b03      	cmp	r3, #3
 8005780:	d869      	bhi.n	8005856 <_dtoa_r+0x2c6>
 8005782:	e8df f003 	tbb	[pc, r3]
 8005786:	4e2c      	.short	0x4e2c
 8005788:	5a4c      	.short	0x5a4c
 800578a:	e9dd 5312 	ldrd	r5, r3, [sp, #72]	; 0x48
 800578e:	441d      	add	r5, r3
 8005790:	f205 4332 	addw	r3, r5, #1074	; 0x432
 8005794:	2b20      	cmp	r3, #32
 8005796:	bfc1      	itttt	gt
 8005798:	f1c3 0340 	rsbgt	r3, r3, #64	; 0x40
 800579c:	f205 4012 	addwgt	r0, r5, #1042	; 0x412
 80057a0:	fa09 f303 	lslgt.w	r3, r9, r3
 80057a4:	fa26 f000 	lsrgt.w	r0, r6, r0
 80057a8:	bfda      	itte	le
 80057aa:	f1c3 0320 	rsble	r3, r3, #32
 80057ae:	fa06 f003 	lslle.w	r0, r6, r3
 80057b2:	4318      	orrgt	r0, r3
 80057b4:	f7fa fec6 	bl	8000544 <__aeabi_ui2d>
 80057b8:	2301      	movs	r3, #1
 80057ba:	4606      	mov	r6, r0
 80057bc:	f1a1 77f8 	sub.w	r7, r1, #32505856	; 0x1f00000
 80057c0:	3d01      	subs	r5, #1
 80057c2:	9310      	str	r3, [sp, #64]	; 0x40
 80057c4:	e771      	b.n	80056aa <_dtoa_r+0x11a>
 80057c6:	2301      	movs	r3, #1
 80057c8:	e7b6      	b.n	8005738 <_dtoa_r+0x1a8>
 80057ca:	900e      	str	r0, [sp, #56]	; 0x38
 80057cc:	e7b5      	b.n	800573a <_dtoa_r+0x1aa>
 80057ce:	f1ca 0300 	rsb	r3, sl, #0
 80057d2:	9306      	str	r3, [sp, #24]
 80057d4:	2300      	movs	r3, #0
 80057d6:	eba8 080a 	sub.w	r8, r8, sl
 80057da:	930d      	str	r3, [sp, #52]	; 0x34
 80057dc:	e7c2      	b.n	8005764 <_dtoa_r+0x1d4>
 80057de:	2300      	movs	r3, #0
 80057e0:	9308      	str	r3, [sp, #32]
 80057e2:	9b09      	ldr	r3, [sp, #36]	; 0x24
 80057e4:	2b00      	cmp	r3, #0
 80057e6:	dc39      	bgt.n	800585c <_dtoa_r+0x2cc>
 80057e8:	f04f 0901 	mov.w	r9, #1
 80057ec:	f8cd 9004 	str.w	r9, [sp, #4]
 80057f0:	464b      	mov	r3, r9
 80057f2:	f8cd 9024 	str.w	r9, [sp, #36]	; 0x24
 80057f6:	6a60      	ldr	r0, [r4, #36]	; 0x24
 80057f8:	2200      	movs	r2, #0
 80057fa:	6042      	str	r2, [r0, #4]
 80057fc:	2204      	movs	r2, #4
 80057fe:	f102 0614 	add.w	r6, r2, #20
 8005802:	429e      	cmp	r6, r3
 8005804:	6841      	ldr	r1, [r0, #4]
 8005806:	d92f      	bls.n	8005868 <_dtoa_r+0x2d8>
 8005808:	4620      	mov	r0, r4
 800580a:	f000 fcc7 	bl	800619c <_Balloc>
 800580e:	9000      	str	r0, [sp, #0]
 8005810:	2800      	cmp	r0, #0
 8005812:	d14b      	bne.n	80058ac <_dtoa_r+0x31c>
 8005814:	4b24      	ldr	r3, [pc, #144]	; (80058a8 <_dtoa_r+0x318>)
 8005816:	4602      	mov	r2, r0
 8005818:	f44f 71d5 	mov.w	r1, #426	; 0x1aa
 800581c:	e6d1      	b.n	80055c2 <_dtoa_r+0x32>
 800581e:	2301      	movs	r3, #1
 8005820:	e7de      	b.n	80057e0 <_dtoa_r+0x250>
 8005822:	2300      	movs	r3, #0
 8005824:	9308      	str	r3, [sp, #32]
 8005826:	9b09      	ldr	r3, [sp, #36]	; 0x24
 8005828:	eb0a 0903 	add.w	r9, sl, r3
 800582c:	f109 0301 	add.w	r3, r9, #1
 8005830:	2b01      	cmp	r3, #1
 8005832:	9301      	str	r3, [sp, #4]
 8005834:	bfb8      	it	lt
 8005836:	2301      	movlt	r3, #1
 8005838:	e7dd      	b.n	80057f6 <_dtoa_r+0x266>
 800583a:	2301      	movs	r3, #1
 800583c:	e7f2      	b.n	8005824 <_dtoa_r+0x294>
 800583e:	2501      	movs	r5, #1
 8005840:	2300      	movs	r3, #0
 8005842:	9305      	str	r3, [sp, #20]
 8005844:	9508      	str	r5, [sp, #32]
 8005846:	f04f 39ff 	mov.w	r9, #4294967295
 800584a:	2200      	movs	r2, #0
 800584c:	f8cd 9004 	str.w	r9, [sp, #4]
 8005850:	2312      	movs	r3, #18
 8005852:	9209      	str	r2, [sp, #36]	; 0x24
 8005854:	e7cf      	b.n	80057f6 <_dtoa_r+0x266>
 8005856:	2301      	movs	r3, #1
 8005858:	9308      	str	r3, [sp, #32]
 800585a:	e7f4      	b.n	8005846 <_dtoa_r+0x2b6>
 800585c:	f8dd 9024 	ldr.w	r9, [sp, #36]	; 0x24
 8005860:	f8cd 9004 	str.w	r9, [sp, #4]
 8005864:	464b      	mov	r3, r9
 8005866:	e7c6      	b.n	80057f6 <_dtoa_r+0x266>
 8005868:	3101      	adds	r1, #1
 800586a:	6041      	str	r1, [r0, #4]
 800586c:	0052      	lsls	r2, r2, #1
 800586e:	e7c6      	b.n	80057fe <_dtoa_r+0x26e>
 8005870:	636f4361 	.word	0x636f4361
 8005874:	3fd287a7 	.word	0x3fd287a7
 8005878:	8b60c8b3 	.word	0x8b60c8b3
 800587c:	3fc68a28 	.word	0x3fc68a28
 8005880:	509f79fb 	.word	0x509f79fb
 8005884:	3fd34413 	.word	0x3fd34413
 8005888:	08007935 	.word	0x08007935
 800588c:	0800794c 	.word	0x0800794c
 8005890:	7ff00000 	.word	0x7ff00000
 8005894:	08007931 	.word	0x08007931
 8005898:	08007928 	.word	0x08007928
 800589c:	08007905 	.word	0x08007905
 80058a0:	3ff80000 	.word	0x3ff80000
 80058a4:	08007a48 	.word	0x08007a48
 80058a8:	080079ab 	.word	0x080079ab
 80058ac:	6a63      	ldr	r3, [r4, #36]	; 0x24
 80058ae:	9a00      	ldr	r2, [sp, #0]
 80058b0:	601a      	str	r2, [r3, #0]
 80058b2:	9b01      	ldr	r3, [sp, #4]
 80058b4:	2b0e      	cmp	r3, #14
 80058b6:	f200 80ad 	bhi.w	8005a14 <_dtoa_r+0x484>
 80058ba:	2d00      	cmp	r5, #0
 80058bc:	f000 80aa 	beq.w	8005a14 <_dtoa_r+0x484>
 80058c0:	f1ba 0f00 	cmp.w	sl, #0
 80058c4:	dd36      	ble.n	8005934 <_dtoa_r+0x3a4>
 80058c6:	4ac3      	ldr	r2, [pc, #780]	; (8005bd4 <_dtoa_r+0x644>)
 80058c8:	f00a 030f 	and.w	r3, sl, #15
 80058cc:	eb02 03c3 	add.w	r3, r2, r3, lsl #3
 80058d0:	ed93 7b00 	vldr	d7, [r3]
 80058d4:	f41a 7f80 	tst.w	sl, #256	; 0x100
 80058d8:	ea4f 172a 	mov.w	r7, sl, asr #4
 80058dc:	eeb0 8a47 	vmov.f32	s16, s14
 80058e0:	eef0 8a67 	vmov.f32	s17, s15
 80058e4:	d016      	beq.n	8005914 <_dtoa_r+0x384>
 80058e6:	4bbc      	ldr	r3, [pc, #752]	; (8005bd8 <_dtoa_r+0x648>)
 80058e8:	e9dd 010a 	ldrd	r0, r1, [sp, #40]	; 0x28
 80058ec:	e9d3 2308 	ldrd	r2, r3, [r3, #32]
 80058f0:	f7fa ffcc 	bl	800088c <__aeabi_ddiv>
 80058f4:	e9cd 0102 	strd	r0, r1, [sp, #8]
 80058f8:	f007 070f 	and.w	r7, r7, #15
 80058fc:	2503      	movs	r5, #3
 80058fe:	4eb6      	ldr	r6, [pc, #728]	; (8005bd8 <_dtoa_r+0x648>)
 8005900:	b957      	cbnz	r7, 8005918 <_dtoa_r+0x388>
 8005902:	e9dd 0102 	ldrd	r0, r1, [sp, #8]
 8005906:	ec53 2b18 	vmov	r2, r3, d8
 800590a:	f7fa ffbf 	bl	800088c <__aeabi_ddiv>
 800590e:	e9cd 0102 	strd	r0, r1, [sp, #8]
 8005912:	e029      	b.n	8005968 <_dtoa_r+0x3d8>
 8005914:	2502      	movs	r5, #2
 8005916:	e7f2      	b.n	80058fe <_dtoa_r+0x36e>
 8005918:	07f9      	lsls	r1, r7, #31
 800591a:	d508      	bpl.n	800592e <_dtoa_r+0x39e>
 800591c:	ec51 0b18 	vmov	r0, r1, d8
 8005920:	e9d6 2300 	ldrd	r2, r3, [r6]
 8005924:	f7fa fe88 	bl	8000638 <__aeabi_dmul>
 8005928:	ec41 0b18 	vmov	d8, r0, r1
 800592c:	3501      	adds	r5, #1
 800592e:	107f      	asrs	r7, r7, #1
 8005930:	3608      	adds	r6, #8
 8005932:	e7e5      	b.n	8005900 <_dtoa_r+0x370>
 8005934:	f000 80a6 	beq.w	8005a84 <_dtoa_r+0x4f4>
 8005938:	f1ca 0600 	rsb	r6, sl, #0
 800593c:	4ba5      	ldr	r3, [pc, #660]	; (8005bd4 <_dtoa_r+0x644>)
 800593e:	4fa6      	ldr	r7, [pc, #664]	; (8005bd8 <_dtoa_r+0x648>)
 8005940:	f006 020f 	and.w	r2, r6, #15
 8005944:	eb03 03c2 	add.w	r3, r3, r2, lsl #3
 8005948:	e9d3 2300 	ldrd	r2, r3, [r3]
 800594c:	e9dd 010a 	ldrd	r0, r1, [sp, #40]	; 0x28
 8005950:	f7fa fe72 	bl	8000638 <__aeabi_dmul>
 8005954:	e9cd 0102 	strd	r0, r1, [sp, #8]
 8005958:	1136      	asrs	r6, r6, #4
 800595a:	2300      	movs	r3, #0
 800595c:	2502      	movs	r5, #2
 800595e:	2e00      	cmp	r6, #0
 8005960:	f040 8085 	bne.w	8005a6e <_dtoa_r+0x4de>
 8005964:	2b00      	cmp	r3, #0
 8005966:	d1d2      	bne.n	800590e <_dtoa_r+0x37e>
 8005968:	9b0e      	ldr	r3, [sp, #56]	; 0x38
 800596a:	2b00      	cmp	r3, #0
 800596c:	f000 808c 	beq.w	8005a88 <_dtoa_r+0x4f8>
 8005970:	e9dd 6702 	ldrd	r6, r7, [sp, #8]
 8005974:	4b99      	ldr	r3, [pc, #612]	; (8005bdc <_dtoa_r+0x64c>)
 8005976:	2200      	movs	r2, #0
 8005978:	4630      	mov	r0, r6
 800597a:	4639      	mov	r1, r7
 800597c:	f7fb f8ce 	bl	8000b1c <__aeabi_dcmplt>
 8005980:	2800      	cmp	r0, #0
 8005982:	f000 8081 	beq.w	8005a88 <_dtoa_r+0x4f8>
 8005986:	9b01      	ldr	r3, [sp, #4]
 8005988:	2b00      	cmp	r3, #0
 800598a:	d07d      	beq.n	8005a88 <_dtoa_r+0x4f8>
 800598c:	f1b9 0f00 	cmp.w	r9, #0
 8005990:	dd3c      	ble.n	8005a0c <_dtoa_r+0x47c>
 8005992:	f10a 33ff 	add.w	r3, sl, #4294967295
 8005996:	9307      	str	r3, [sp, #28]
 8005998:	2200      	movs	r2, #0
 800599a:	4b91      	ldr	r3, [pc, #580]	; (8005be0 <_dtoa_r+0x650>)
 800599c:	4630      	mov	r0, r6
 800599e:	4639      	mov	r1, r7
 80059a0:	f7fa fe4a 	bl	8000638 <__aeabi_dmul>
 80059a4:	e9cd 0102 	strd	r0, r1, [sp, #8]
 80059a8:	3501      	adds	r5, #1
 80059aa:	f8cd 9030 	str.w	r9, [sp, #48]	; 0x30
 80059ae:	e9dd 6702 	ldrd	r6, r7, [sp, #8]
 80059b2:	4628      	mov	r0, r5
 80059b4:	f7fa fdd6 	bl	8000564 <__aeabi_i2d>
 80059b8:	4632      	mov	r2, r6
 80059ba:	463b      	mov	r3, r7
 80059bc:	f7fa fe3c 	bl	8000638 <__aeabi_dmul>
 80059c0:	4b88      	ldr	r3, [pc, #544]	; (8005be4 <_dtoa_r+0x654>)
 80059c2:	2200      	movs	r2, #0
 80059c4:	f7fa fc82 	bl	80002cc <__adddf3>
 80059c8:	f1a1 7350 	sub.w	r3, r1, #54525952	; 0x3400000
 80059cc:	e9cd 0102 	strd	r0, r1, [sp, #8]
 80059d0:	9303      	str	r3, [sp, #12]
 80059d2:	9b0c      	ldr	r3, [sp, #48]	; 0x30
 80059d4:	2b00      	cmp	r3, #0
 80059d6:	d15c      	bne.n	8005a92 <_dtoa_r+0x502>
 80059d8:	4b83      	ldr	r3, [pc, #524]	; (8005be8 <_dtoa_r+0x658>)
 80059da:	2200      	movs	r2, #0
 80059dc:	4630      	mov	r0, r6
 80059de:	4639      	mov	r1, r7
 80059e0:	f7fa fc72 	bl	80002c8 <__aeabi_dsub>
 80059e4:	e9dd 2302 	ldrd	r2, r3, [sp, #8]
 80059e8:	4606      	mov	r6, r0
 80059ea:	460f      	mov	r7, r1
 80059ec:	f7fb f8b4 	bl	8000b58 <__aeabi_dcmpgt>
 80059f0:	2800      	cmp	r0, #0
 80059f2:	f040 8296 	bne.w	8005f22 <_dtoa_r+0x992>
 80059f6:	e9dd 2102 	ldrd	r2, r1, [sp, #8]
 80059fa:	4630      	mov	r0, r6
 80059fc:	f101 4300 	add.w	r3, r1, #2147483648	; 0x80000000
 8005a00:	4639      	mov	r1, r7
 8005a02:	f7fb f88b 	bl	8000b1c <__aeabi_dcmplt>
 8005a06:	2800      	cmp	r0, #0
 8005a08:	f040 8288 	bne.w	8005f1c <_dtoa_r+0x98c>
 8005a0c:	e9dd 230a 	ldrd	r2, r3, [sp, #40]	; 0x28
 8005a10:	e9cd 2302 	strd	r2, r3, [sp, #8]
 8005a14:	9b13      	ldr	r3, [sp, #76]	; 0x4c
 8005a16:	2b00      	cmp	r3, #0
 8005a18:	f2c0 8158 	blt.w	8005ccc <_dtoa_r+0x73c>
 8005a1c:	f1ba 0f0e 	cmp.w	sl, #14
 8005a20:	f300 8154 	bgt.w	8005ccc <_dtoa_r+0x73c>
 8005a24:	4b6b      	ldr	r3, [pc, #428]	; (8005bd4 <_dtoa_r+0x644>)
 8005a26:	eb03 03ca 	add.w	r3, r3, sl, lsl #3
 8005a2a:	e9d3 8900 	ldrd	r8, r9, [r3]
 8005a2e:	9b09      	ldr	r3, [sp, #36]	; 0x24
 8005a30:	2b00      	cmp	r3, #0
 8005a32:	f280 80e3 	bge.w	8005bfc <_dtoa_r+0x66c>
 8005a36:	9b01      	ldr	r3, [sp, #4]
 8005a38:	2b00      	cmp	r3, #0
 8005a3a:	f300 80df 	bgt.w	8005bfc <_dtoa_r+0x66c>
 8005a3e:	f040 826d 	bne.w	8005f1c <_dtoa_r+0x98c>
 8005a42:	4b69      	ldr	r3, [pc, #420]	; (8005be8 <_dtoa_r+0x658>)
 8005a44:	2200      	movs	r2, #0
 8005a46:	4640      	mov	r0, r8
 8005a48:	4649      	mov	r1, r9
 8005a4a:	f7fa fdf5 	bl	8000638 <__aeabi_dmul>
 8005a4e:	e9dd 2302 	ldrd	r2, r3, [sp, #8]
 8005a52:	f7fb f877 	bl	8000b44 <__aeabi_dcmpge>
 8005a56:	9e01      	ldr	r6, [sp, #4]
 8005a58:	4637      	mov	r7, r6
 8005a5a:	2800      	cmp	r0, #0
 8005a5c:	f040 8243 	bne.w	8005ee6 <_dtoa_r+0x956>
 8005a60:	9d00      	ldr	r5, [sp, #0]
 8005a62:	2331      	movs	r3, #49	; 0x31
 8005a64:	f805 3b01 	strb.w	r3, [r5], #1
 8005a68:	f10a 0a01 	add.w	sl, sl, #1
 8005a6c:	e23f      	b.n	8005eee <_dtoa_r+0x95e>
 8005a6e:	07f2      	lsls	r2, r6, #31
 8005a70:	d505      	bpl.n	8005a7e <_dtoa_r+0x4ee>
 8005a72:	e9d7 2300 	ldrd	r2, r3, [r7]
 8005a76:	f7fa fddf 	bl	8000638 <__aeabi_dmul>
 8005a7a:	3501      	adds	r5, #1
 8005a7c:	2301      	movs	r3, #1
 8005a7e:	1076      	asrs	r6, r6, #1
 8005a80:	3708      	adds	r7, #8
 8005a82:	e76c      	b.n	800595e <_dtoa_r+0x3ce>
 8005a84:	2502      	movs	r5, #2
 8005a86:	e76f      	b.n	8005968 <_dtoa_r+0x3d8>
 8005a88:	9b01      	ldr	r3, [sp, #4]
 8005a8a:	f8cd a01c 	str.w	sl, [sp, #28]
 8005a8e:	930c      	str	r3, [sp, #48]	; 0x30
 8005a90:	e78d      	b.n	80059ae <_dtoa_r+0x41e>
 8005a92:	9900      	ldr	r1, [sp, #0]
 8005a94:	980c      	ldr	r0, [sp, #48]	; 0x30
 8005a96:	9a0c      	ldr	r2, [sp, #48]	; 0x30
 8005a98:	4b4e      	ldr	r3, [pc, #312]	; (8005bd4 <_dtoa_r+0x644>)
 8005a9a:	ed9d 7b02 	vldr	d7, [sp, #8]
 8005a9e:	4401      	add	r1, r0
 8005aa0:	9102      	str	r1, [sp, #8]
 8005aa2:	9908      	ldr	r1, [sp, #32]
 8005aa4:	eeb0 8a47 	vmov.f32	s16, s14
 8005aa8:	eef0 8a67 	vmov.f32	s17, s15
 8005aac:	eb03 03c2 	add.w	r3, r3, r2, lsl #3
 8005ab0:	e953 2302 	ldrd	r2, r3, [r3, #-8]
 8005ab4:	2900      	cmp	r1, #0
 8005ab6:	d045      	beq.n	8005b44 <_dtoa_r+0x5b4>
 8005ab8:	494c      	ldr	r1, [pc, #304]	; (8005bec <_dtoa_r+0x65c>)
 8005aba:	2000      	movs	r0, #0
 8005abc:	f7fa fee6 	bl	800088c <__aeabi_ddiv>
 8005ac0:	ec53 2b18 	vmov	r2, r3, d8
 8005ac4:	f7fa fc00 	bl	80002c8 <__aeabi_dsub>
 8005ac8:	9d00      	ldr	r5, [sp, #0]
 8005aca:	ec41 0b18 	vmov	d8, r0, r1
 8005ace:	4639      	mov	r1, r7
 8005ad0:	4630      	mov	r0, r6
 8005ad2:	f7fb f861 	bl	8000b98 <__aeabi_d2iz>
 8005ad6:	900c      	str	r0, [sp, #48]	; 0x30
 8005ad8:	f7fa fd44 	bl	8000564 <__aeabi_i2d>
 8005adc:	4602      	mov	r2, r0
 8005ade:	460b      	mov	r3, r1
 8005ae0:	4630      	mov	r0, r6
 8005ae2:	4639      	mov	r1, r7
 8005ae4:	f7fa fbf0 	bl	80002c8 <__aeabi_dsub>
 8005ae8:	9b0c      	ldr	r3, [sp, #48]	; 0x30
 8005aea:	3330      	adds	r3, #48	; 0x30
 8005aec:	f805 3b01 	strb.w	r3, [r5], #1
 8005af0:	ec53 2b18 	vmov	r2, r3, d8
 8005af4:	4606      	mov	r6, r0
 8005af6:	460f      	mov	r7, r1
 8005af8:	f7fb f810 	bl	8000b1c <__aeabi_dcmplt>
 8005afc:	2800      	cmp	r0, #0
 8005afe:	d165      	bne.n	8005bcc <_dtoa_r+0x63c>
 8005b00:	4632      	mov	r2, r6
 8005b02:	463b      	mov	r3, r7
 8005b04:	4935      	ldr	r1, [pc, #212]	; (8005bdc <_dtoa_r+0x64c>)
 8005b06:	2000      	movs	r0, #0
 8005b08:	f7fa fbde 	bl	80002c8 <__aeabi_dsub>
 8005b0c:	ec53 2b18 	vmov	r2, r3, d8
 8005b10:	f7fb f804 	bl	8000b1c <__aeabi_dcmplt>
 8005b14:	2800      	cmp	r0, #0
 8005b16:	f040 80b9 	bne.w	8005c8c <_dtoa_r+0x6fc>
 8005b1a:	9b02      	ldr	r3, [sp, #8]
 8005b1c:	429d      	cmp	r5, r3
 8005b1e:	f43f af75 	beq.w	8005a0c <_dtoa_r+0x47c>
 8005b22:	4b2f      	ldr	r3, [pc, #188]	; (8005be0 <_dtoa_r+0x650>)
 8005b24:	ec51 0b18 	vmov	r0, r1, d8
 8005b28:	2200      	movs	r2, #0
 8005b2a:	f7fa fd85 	bl	8000638 <__aeabi_dmul>
 8005b2e:	4b2c      	ldr	r3, [pc, #176]	; (8005be0 <_dtoa_r+0x650>)
 8005b30:	ec41 0b18 	vmov	d8, r0, r1
 8005b34:	2200      	movs	r2, #0
 8005b36:	4630      	mov	r0, r6
 8005b38:	4639      	mov	r1, r7
 8005b3a:	f7fa fd7d 	bl	8000638 <__aeabi_dmul>
 8005b3e:	4606      	mov	r6, r0
 8005b40:	460f      	mov	r7, r1
 8005b42:	e7c4      	b.n	8005ace <_dtoa_r+0x53e>
 8005b44:	ec51 0b17 	vmov	r0, r1, d7
 8005b48:	f7fa fd76 	bl	8000638 <__aeabi_dmul>
 8005b4c:	9b02      	ldr	r3, [sp, #8]
 8005b4e:	9d00      	ldr	r5, [sp, #0]
 8005b50:	930c      	str	r3, [sp, #48]	; 0x30
 8005b52:	ec41 0b18 	vmov	d8, r0, r1
 8005b56:	4639      	mov	r1, r7
 8005b58:	4630      	mov	r0, r6
 8005b5a:	f7fb f81d 	bl	8000b98 <__aeabi_d2iz>
 8005b5e:	9011      	str	r0, [sp, #68]	; 0x44
 8005b60:	f7fa fd00 	bl	8000564 <__aeabi_i2d>
 8005b64:	4602      	mov	r2, r0
 8005b66:	460b      	mov	r3, r1
 8005b68:	4630      	mov	r0, r6
 8005b6a:	4639      	mov	r1, r7
 8005b6c:	f7fa fbac 	bl	80002c8 <__aeabi_dsub>
 8005b70:	9b11      	ldr	r3, [sp, #68]	; 0x44
 8005b72:	3330      	adds	r3, #48	; 0x30
 8005b74:	f805 3b01 	strb.w	r3, [r5], #1
 8005b78:	9b02      	ldr	r3, [sp, #8]
 8005b7a:	429d      	cmp	r5, r3
 8005b7c:	4606      	mov	r6, r0
 8005b7e:	460f      	mov	r7, r1
 8005b80:	f04f 0200 	mov.w	r2, #0
 8005b84:	d134      	bne.n	8005bf0 <_dtoa_r+0x660>
 8005b86:	4b19      	ldr	r3, [pc, #100]	; (8005bec <_dtoa_r+0x65c>)
 8005b88:	ec51 0b18 	vmov	r0, r1, d8
 8005b8c:	f7fa fb9e 	bl	80002cc <__adddf3>
 8005b90:	4602      	mov	r2, r0
 8005b92:	460b      	mov	r3, r1
 8005b94:	4630      	mov	r0, r6
 8005b96:	4639      	mov	r1, r7
 8005b98:	f7fa ffde 	bl	8000b58 <__aeabi_dcmpgt>
 8005b9c:	2800      	cmp	r0, #0
 8005b9e:	d175      	bne.n	8005c8c <_dtoa_r+0x6fc>
 8005ba0:	ec53 2b18 	vmov	r2, r3, d8
 8005ba4:	4911      	ldr	r1, [pc, #68]	; (8005bec <_dtoa_r+0x65c>)
 8005ba6:	2000      	movs	r0, #0
 8005ba8:	f7fa fb8e 	bl	80002c8 <__aeabi_dsub>
 8005bac:	4602      	mov	r2, r0
 8005bae:	460b      	mov	r3, r1
 8005bb0:	4630      	mov	r0, r6
 8005bb2:	4639      	mov	r1, r7
 8005bb4:	f7fa ffb2 	bl	8000b1c <__aeabi_dcmplt>
 8005bb8:	2800      	cmp	r0, #0
 8005bba:	f43f af27 	beq.w	8005a0c <_dtoa_r+0x47c>
 8005bbe:	9d0c      	ldr	r5, [sp, #48]	; 0x30
 8005bc0:	1e6b      	subs	r3, r5, #1
 8005bc2:	930c      	str	r3, [sp, #48]	; 0x30
 8005bc4:	f815 3c01 	ldrb.w	r3, [r5, #-1]
 8005bc8:	2b30      	cmp	r3, #48	; 0x30
 8005bca:	d0f8      	beq.n	8005bbe <_dtoa_r+0x62e>
 8005bcc:	f8dd a01c 	ldr.w	sl, [sp, #28]
 8005bd0:	e04a      	b.n	8005c68 <_dtoa_r+0x6d8>
 8005bd2:	bf00      	nop
 8005bd4:	08007a48 	.word	0x08007a48
 8005bd8:	08007a20 	.word	0x08007a20
 8005bdc:	3ff00000 	.word	0x3ff00000
 8005be0:	40240000 	.word	0x40240000
 8005be4:	401c0000 	.word	0x401c0000
 8005be8:	40140000 	.word	0x40140000
 8005bec:	3fe00000 	.word	0x3fe00000
 8005bf0:	4baf      	ldr	r3, [pc, #700]	; (8005eb0 <_dtoa_r+0x920>)
 8005bf2:	f7fa fd21 	bl	8000638 <__aeabi_dmul>
 8005bf6:	4606      	mov	r6, r0
 8005bf8:	460f      	mov	r7, r1
 8005bfa:	e7ac      	b.n	8005b56 <_dtoa_r+0x5c6>
 8005bfc:	e9dd 6702 	ldrd	r6, r7, [sp, #8]
 8005c00:	9d00      	ldr	r5, [sp, #0]
 8005c02:	4642      	mov	r2, r8
 8005c04:	464b      	mov	r3, r9
 8005c06:	4630      	mov	r0, r6
 8005c08:	4639      	mov	r1, r7
 8005c0a:	f7fa fe3f 	bl	800088c <__aeabi_ddiv>
 8005c0e:	f7fa ffc3 	bl	8000b98 <__aeabi_d2iz>
 8005c12:	9002      	str	r0, [sp, #8]
 8005c14:	f7fa fca6 	bl	8000564 <__aeabi_i2d>
 8005c18:	4642      	mov	r2, r8
 8005c1a:	464b      	mov	r3, r9
 8005c1c:	f7fa fd0c 	bl	8000638 <__aeabi_dmul>
 8005c20:	4602      	mov	r2, r0
 8005c22:	460b      	mov	r3, r1
 8005c24:	4630      	mov	r0, r6
 8005c26:	4639      	mov	r1, r7
 8005c28:	f7fa fb4e 	bl	80002c8 <__aeabi_dsub>
 8005c2c:	9e02      	ldr	r6, [sp, #8]
 8005c2e:	9f01      	ldr	r7, [sp, #4]
 8005c30:	3630      	adds	r6, #48	; 0x30
 8005c32:	f805 6b01 	strb.w	r6, [r5], #1
 8005c36:	9e00      	ldr	r6, [sp, #0]
 8005c38:	1bae      	subs	r6, r5, r6
 8005c3a:	42b7      	cmp	r7, r6
 8005c3c:	4602      	mov	r2, r0
 8005c3e:	460b      	mov	r3, r1
 8005c40:	d137      	bne.n	8005cb2 <_dtoa_r+0x722>
 8005c42:	f7fa fb43 	bl	80002cc <__adddf3>
 8005c46:	4642      	mov	r2, r8
 8005c48:	464b      	mov	r3, r9
 8005c4a:	4606      	mov	r6, r0
 8005c4c:	460f      	mov	r7, r1
 8005c4e:	f7fa ff83 	bl	8000b58 <__aeabi_dcmpgt>
 8005c52:	b9c8      	cbnz	r0, 8005c88 <_dtoa_r+0x6f8>
 8005c54:	4642      	mov	r2, r8
 8005c56:	464b      	mov	r3, r9
 8005c58:	4630      	mov	r0, r6
 8005c5a:	4639      	mov	r1, r7
 8005c5c:	f7fa ff54 	bl	8000b08 <__aeabi_dcmpeq>
 8005c60:	b110      	cbz	r0, 8005c68 <_dtoa_r+0x6d8>
 8005c62:	9b02      	ldr	r3, [sp, #8]
 8005c64:	07d9      	lsls	r1, r3, #31
 8005c66:	d40f      	bmi.n	8005c88 <_dtoa_r+0x6f8>
 8005c68:	4620      	mov	r0, r4
 8005c6a:	4659      	mov	r1, fp
 8005c6c:	f000 fad6 	bl	800621c <_Bfree>
 8005c70:	2300      	movs	r3, #0
 8005c72:	702b      	strb	r3, [r5, #0]
 8005c74:	9b0f      	ldr	r3, [sp, #60]	; 0x3c
 8005c76:	f10a 0001 	add.w	r0, sl, #1
 8005c7a:	6018      	str	r0, [r3, #0]
 8005c7c:	9b21      	ldr	r3, [sp, #132]	; 0x84
 8005c7e:	2b00      	cmp	r3, #0
 8005c80:	f43f acd8 	beq.w	8005634 <_dtoa_r+0xa4>
 8005c84:	601d      	str	r5, [r3, #0]
 8005c86:	e4d5      	b.n	8005634 <_dtoa_r+0xa4>
 8005c88:	f8cd a01c 	str.w	sl, [sp, #28]
 8005c8c:	462b      	mov	r3, r5
 8005c8e:	461d      	mov	r5, r3
 8005c90:	f813 2d01 	ldrb.w	r2, [r3, #-1]!
 8005c94:	2a39      	cmp	r2, #57	; 0x39
 8005c96:	d108      	bne.n	8005caa <_dtoa_r+0x71a>
 8005c98:	9a00      	ldr	r2, [sp, #0]
 8005c9a:	429a      	cmp	r2, r3
 8005c9c:	d1f7      	bne.n	8005c8e <_dtoa_r+0x6fe>
 8005c9e:	9a07      	ldr	r2, [sp, #28]
 8005ca0:	9900      	ldr	r1, [sp, #0]
 8005ca2:	3201      	adds	r2, #1
 8005ca4:	9207      	str	r2, [sp, #28]
 8005ca6:	2230      	movs	r2, #48	; 0x30
 8005ca8:	700a      	strb	r2, [r1, #0]
 8005caa:	781a      	ldrb	r2, [r3, #0]
 8005cac:	3201      	adds	r2, #1
 8005cae:	701a      	strb	r2, [r3, #0]
 8005cb0:	e78c      	b.n	8005bcc <_dtoa_r+0x63c>
 8005cb2:	4b7f      	ldr	r3, [pc, #508]	; (8005eb0 <_dtoa_r+0x920>)
 8005cb4:	2200      	movs	r2, #0
 8005cb6:	f7fa fcbf 	bl	8000638 <__aeabi_dmul>
 8005cba:	2200      	movs	r2, #0
 8005cbc:	2300      	movs	r3, #0
 8005cbe:	4606      	mov	r6, r0
 8005cc0:	460f      	mov	r7, r1
 8005cc2:	f7fa ff21 	bl	8000b08 <__aeabi_dcmpeq>
 8005cc6:	2800      	cmp	r0, #0
 8005cc8:	d09b      	beq.n	8005c02 <_dtoa_r+0x672>
 8005cca:	e7cd      	b.n	8005c68 <_dtoa_r+0x6d8>
 8005ccc:	9a08      	ldr	r2, [sp, #32]
 8005cce:	2a00      	cmp	r2, #0
 8005cd0:	f000 80c4 	beq.w	8005e5c <_dtoa_r+0x8cc>
 8005cd4:	9a05      	ldr	r2, [sp, #20]
 8005cd6:	2a01      	cmp	r2, #1
 8005cd8:	f300 80a8 	bgt.w	8005e2c <_dtoa_r+0x89c>
 8005cdc:	9a10      	ldr	r2, [sp, #64]	; 0x40
 8005cde:	2a00      	cmp	r2, #0
 8005ce0:	f000 80a0 	beq.w	8005e24 <_dtoa_r+0x894>
 8005ce4:	f203 4333 	addw	r3, r3, #1075	; 0x433
 8005ce8:	9e06      	ldr	r6, [sp, #24]
 8005cea:	4645      	mov	r5, r8
 8005cec:	9a04      	ldr	r2, [sp, #16]
 8005cee:	2101      	movs	r1, #1
 8005cf0:	441a      	add	r2, r3
 8005cf2:	4620      	mov	r0, r4
 8005cf4:	4498      	add	r8, r3
 8005cf6:	9204      	str	r2, [sp, #16]
 8005cf8:	f000 fb4c 	bl	8006394 <__i2b>
 8005cfc:	4607      	mov	r7, r0
 8005cfe:	2d00      	cmp	r5, #0
 8005d00:	dd0b      	ble.n	8005d1a <_dtoa_r+0x78a>
 8005d02:	9b04      	ldr	r3, [sp, #16]
 8005d04:	2b00      	cmp	r3, #0
 8005d06:	dd08      	ble.n	8005d1a <_dtoa_r+0x78a>
 8005d08:	42ab      	cmp	r3, r5
 8005d0a:	9a04      	ldr	r2, [sp, #16]
 8005d0c:	bfa8      	it	ge
 8005d0e:	462b      	movge	r3, r5
 8005d10:	eba8 0803 	sub.w	r8, r8, r3
 8005d14:	1aed      	subs	r5, r5, r3
 8005d16:	1ad3      	subs	r3, r2, r3
 8005d18:	9304      	str	r3, [sp, #16]
 8005d1a:	9b06      	ldr	r3, [sp, #24]
 8005d1c:	b1fb      	cbz	r3, 8005d5e <_dtoa_r+0x7ce>
 8005d1e:	9b08      	ldr	r3, [sp, #32]
 8005d20:	2b00      	cmp	r3, #0
 8005d22:	f000 809f 	beq.w	8005e64 <_dtoa_r+0x8d4>
 8005d26:	2e00      	cmp	r6, #0
 8005d28:	dd11      	ble.n	8005d4e <_dtoa_r+0x7be>
 8005d2a:	4639      	mov	r1, r7
 8005d2c:	4632      	mov	r2, r6
 8005d2e:	4620      	mov	r0, r4
 8005d30:	f000 fbec 	bl	800650c <__pow5mult>
 8005d34:	465a      	mov	r2, fp
 8005d36:	4601      	mov	r1, r0
 8005d38:	4607      	mov	r7, r0
 8005d3a:	4620      	mov	r0, r4
 8005d3c:	f000 fb40 	bl	80063c0 <__multiply>
 8005d40:	4659      	mov	r1, fp
 8005d42:	9007      	str	r0, [sp, #28]
 8005d44:	4620      	mov	r0, r4
 8005d46:	f000 fa69 	bl	800621c <_Bfree>
 8005d4a:	9b07      	ldr	r3, [sp, #28]
 8005d4c:	469b      	mov	fp, r3
 8005d4e:	9b06      	ldr	r3, [sp, #24]
 8005d50:	1b9a      	subs	r2, r3, r6
 8005d52:	d004      	beq.n	8005d5e <_dtoa_r+0x7ce>
 8005d54:	4659      	mov	r1, fp
 8005d56:	4620      	mov	r0, r4
 8005d58:	f000 fbd8 	bl	800650c <__pow5mult>
 8005d5c:	4683      	mov	fp, r0
 8005d5e:	2101      	movs	r1, #1
 8005d60:	4620      	mov	r0, r4
 8005d62:	f000 fb17 	bl	8006394 <__i2b>
 8005d66:	9b0d      	ldr	r3, [sp, #52]	; 0x34
 8005d68:	2b00      	cmp	r3, #0
 8005d6a:	4606      	mov	r6, r0
 8005d6c:	dd7c      	ble.n	8005e68 <_dtoa_r+0x8d8>
 8005d6e:	461a      	mov	r2, r3
 8005d70:	4601      	mov	r1, r0
 8005d72:	4620      	mov	r0, r4
 8005d74:	f000 fbca 	bl	800650c <__pow5mult>
 8005d78:	9b05      	ldr	r3, [sp, #20]
 8005d7a:	2b01      	cmp	r3, #1
 8005d7c:	4606      	mov	r6, r0
 8005d7e:	dd76      	ble.n	8005e6e <_dtoa_r+0x8de>
 8005d80:	2300      	movs	r3, #0
 8005d82:	9306      	str	r3, [sp, #24]
 8005d84:	6933      	ldr	r3, [r6, #16]
 8005d86:	eb06 0383 	add.w	r3, r6, r3, lsl #2
 8005d8a:	6918      	ldr	r0, [r3, #16]
 8005d8c:	f000 fab2 	bl	80062f4 <__hi0bits>
 8005d90:	f1c0 0020 	rsb	r0, r0, #32
 8005d94:	9b04      	ldr	r3, [sp, #16]
 8005d96:	4418      	add	r0, r3
 8005d98:	f010 001f 	ands.w	r0, r0, #31
 8005d9c:	f000 8086 	beq.w	8005eac <_dtoa_r+0x91c>
 8005da0:	f1c0 0320 	rsb	r3, r0, #32
 8005da4:	2b04      	cmp	r3, #4
 8005da6:	dd7f      	ble.n	8005ea8 <_dtoa_r+0x918>
 8005da8:	f1c0 001c 	rsb	r0, r0, #28
 8005dac:	9b04      	ldr	r3, [sp, #16]
 8005dae:	4403      	add	r3, r0
 8005db0:	4480      	add	r8, r0
 8005db2:	4405      	add	r5, r0
 8005db4:	9304      	str	r3, [sp, #16]
 8005db6:	f1b8 0f00 	cmp.w	r8, #0
 8005dba:	dd05      	ble.n	8005dc8 <_dtoa_r+0x838>
 8005dbc:	4659      	mov	r1, fp
 8005dbe:	4642      	mov	r2, r8
 8005dc0:	4620      	mov	r0, r4
 8005dc2:	f000 fbfd 	bl	80065c0 <__lshift>
 8005dc6:	4683      	mov	fp, r0
 8005dc8:	9b04      	ldr	r3, [sp, #16]
 8005dca:	2b00      	cmp	r3, #0
 8005dcc:	dd05      	ble.n	8005dda <_dtoa_r+0x84a>
 8005dce:	4631      	mov	r1, r6
 8005dd0:	461a      	mov	r2, r3
 8005dd2:	4620      	mov	r0, r4
 8005dd4:	f000 fbf4 	bl	80065c0 <__lshift>
 8005dd8:	4606      	mov	r6, r0
 8005dda:	9b0e      	ldr	r3, [sp, #56]	; 0x38
 8005ddc:	2b00      	cmp	r3, #0
 8005dde:	d069      	beq.n	8005eb4 <_dtoa_r+0x924>
 8005de0:	4631      	mov	r1, r6
 8005de2:	4658      	mov	r0, fp
 8005de4:	f000 fc58 	bl	8006698 <__mcmp>
 8005de8:	2800      	cmp	r0, #0
 8005dea:	da63      	bge.n	8005eb4 <_dtoa_r+0x924>
 8005dec:	2300      	movs	r3, #0
 8005dee:	4659      	mov	r1, fp
 8005df0:	220a      	movs	r2, #10
 8005df2:	4620      	mov	r0, r4
 8005df4:	f000 fa34 	bl	8006260 <__multadd>
 8005df8:	9b08      	ldr	r3, [sp, #32]
 8005dfa:	f10a 3aff 	add.w	sl, sl, #4294967295
 8005dfe:	4683      	mov	fp, r0
 8005e00:	2b00      	cmp	r3, #0
 8005e02:	f000 818f 	beq.w	8006124 <_dtoa_r+0xb94>
 8005e06:	4639      	mov	r1, r7
 8005e08:	2300      	movs	r3, #0
 8005e0a:	220a      	movs	r2, #10
 8005e0c:	4620      	mov	r0, r4
 8005e0e:	f000 fa27 	bl	8006260 <__multadd>
 8005e12:	f1b9 0f00 	cmp.w	r9, #0
 8005e16:	4607      	mov	r7, r0
 8005e18:	f300 808e 	bgt.w	8005f38 <_dtoa_r+0x9a8>
 8005e1c:	9b05      	ldr	r3, [sp, #20]
 8005e1e:	2b02      	cmp	r3, #2
 8005e20:	dc50      	bgt.n	8005ec4 <_dtoa_r+0x934>
 8005e22:	e089      	b.n	8005f38 <_dtoa_r+0x9a8>
 8005e24:	9b12      	ldr	r3, [sp, #72]	; 0x48
 8005e26:	f1c3 0336 	rsb	r3, r3, #54	; 0x36
 8005e2a:	e75d      	b.n	8005ce8 <_dtoa_r+0x758>
 8005e2c:	9b01      	ldr	r3, [sp, #4]
 8005e2e:	1e5e      	subs	r6, r3, #1
 8005e30:	9b06      	ldr	r3, [sp, #24]
 8005e32:	42b3      	cmp	r3, r6
 8005e34:	bfbf      	itttt	lt
 8005e36:	9b06      	ldrlt	r3, [sp, #24]
 8005e38:	9606      	strlt	r6, [sp, #24]
 8005e3a:	1af2      	sublt	r2, r6, r3
 8005e3c:	9b0d      	ldrlt	r3, [sp, #52]	; 0x34
 8005e3e:	bfb6      	itet	lt
 8005e40:	189b      	addlt	r3, r3, r2
 8005e42:	1b9e      	subge	r6, r3, r6
 8005e44:	930d      	strlt	r3, [sp, #52]	; 0x34
 8005e46:	9b01      	ldr	r3, [sp, #4]
 8005e48:	bfb8      	it	lt
 8005e4a:	2600      	movlt	r6, #0
 8005e4c:	2b00      	cmp	r3, #0
 8005e4e:	bfb5      	itete	lt
 8005e50:	eba8 0503 	sublt.w	r5, r8, r3
 8005e54:	9b01      	ldrge	r3, [sp, #4]
 8005e56:	2300      	movlt	r3, #0
 8005e58:	4645      	movge	r5, r8
 8005e5a:	e747      	b.n	8005cec <_dtoa_r+0x75c>
 8005e5c:	9e06      	ldr	r6, [sp, #24]
 8005e5e:	9f08      	ldr	r7, [sp, #32]
 8005e60:	4645      	mov	r5, r8
 8005e62:	e74c      	b.n	8005cfe <_dtoa_r+0x76e>
 8005e64:	9a06      	ldr	r2, [sp, #24]
 8005e66:	e775      	b.n	8005d54 <_dtoa_r+0x7c4>
 8005e68:	9b05      	ldr	r3, [sp, #20]
 8005e6a:	2b01      	cmp	r3, #1
 8005e6c:	dc18      	bgt.n	8005ea0 <_dtoa_r+0x910>
 8005e6e:	9b02      	ldr	r3, [sp, #8]
 8005e70:	b9b3      	cbnz	r3, 8005ea0 <_dtoa_r+0x910>
 8005e72:	9b03      	ldr	r3, [sp, #12]
 8005e74:	f3c3 0313 	ubfx	r3, r3, #0, #20
 8005e78:	b9a3      	cbnz	r3, 8005ea4 <_dtoa_r+0x914>
 8005e7a:	9b03      	ldr	r3, [sp, #12]
 8005e7c:	f023 4300 	bic.w	r3, r3, #2147483648	; 0x80000000
 8005e80:	0d1b      	lsrs	r3, r3, #20
 8005e82:	051b      	lsls	r3, r3, #20
 8005e84:	b12b      	cbz	r3, 8005e92 <_dtoa_r+0x902>
 8005e86:	9b04      	ldr	r3, [sp, #16]
 8005e88:	3301      	adds	r3, #1
 8005e8a:	9304      	str	r3, [sp, #16]
 8005e8c:	f108 0801 	add.w	r8, r8, #1
 8005e90:	2301      	movs	r3, #1
 8005e92:	9306      	str	r3, [sp, #24]
 8005e94:	9b0d      	ldr	r3, [sp, #52]	; 0x34
 8005e96:	2b00      	cmp	r3, #0
 8005e98:	f47f af74 	bne.w	8005d84 <_dtoa_r+0x7f4>
 8005e9c:	2001      	movs	r0, #1
 8005e9e:	e779      	b.n	8005d94 <_dtoa_r+0x804>
 8005ea0:	2300      	movs	r3, #0
 8005ea2:	e7f6      	b.n	8005e92 <_dtoa_r+0x902>
 8005ea4:	9b02      	ldr	r3, [sp, #8]
 8005ea6:	e7f4      	b.n	8005e92 <_dtoa_r+0x902>
 8005ea8:	d085      	beq.n	8005db6 <_dtoa_r+0x826>
 8005eaa:	4618      	mov	r0, r3
 8005eac:	301c      	adds	r0, #28
 8005eae:	e77d      	b.n	8005dac <_dtoa_r+0x81c>
 8005eb0:	40240000 	.word	0x40240000
 8005eb4:	9b01      	ldr	r3, [sp, #4]
 8005eb6:	2b00      	cmp	r3, #0
 8005eb8:	dc38      	bgt.n	8005f2c <_dtoa_r+0x99c>
 8005eba:	9b05      	ldr	r3, [sp, #20]
 8005ebc:	2b02      	cmp	r3, #2
 8005ebe:	dd35      	ble.n	8005f2c <_dtoa_r+0x99c>
 8005ec0:	f8dd 9004 	ldr.w	r9, [sp, #4]
 8005ec4:	f1b9 0f00 	cmp.w	r9, #0
 8005ec8:	d10d      	bne.n	8005ee6 <_dtoa_r+0x956>
 8005eca:	4631      	mov	r1, r6
 8005ecc:	464b      	mov	r3, r9
 8005ece:	2205      	movs	r2, #5
 8005ed0:	4620      	mov	r0, r4
 8005ed2:	f000 f9c5 	bl	8006260 <__multadd>
 8005ed6:	4601      	mov	r1, r0
 8005ed8:	4606      	mov	r6, r0
 8005eda:	4658      	mov	r0, fp
 8005edc:	f000 fbdc 	bl	8006698 <__mcmp>
 8005ee0:	2800      	cmp	r0, #0
 8005ee2:	f73f adbd 	bgt.w	8005a60 <_dtoa_r+0x4d0>
 8005ee6:	9b09      	ldr	r3, [sp, #36]	; 0x24
 8005ee8:	9d00      	ldr	r5, [sp, #0]
 8005eea:	ea6f 0a03 	mvn.w	sl, r3
 8005eee:	f04f 0800 	mov.w	r8, #0
 8005ef2:	4631      	mov	r1, r6
 8005ef4:	4620      	mov	r0, r4
 8005ef6:	f000 f991 	bl	800621c <_Bfree>
 8005efa:	2f00      	cmp	r7, #0
 8005efc:	f43f aeb4 	beq.w	8005c68 <_dtoa_r+0x6d8>
 8005f00:	f1b8 0f00 	cmp.w	r8, #0
 8005f04:	d005      	beq.n	8005f12 <_dtoa_r+0x982>
 8005f06:	45b8      	cmp	r8, r7
 8005f08:	d003      	beq.n	8005f12 <_dtoa_r+0x982>
 8005f0a:	4641      	mov	r1, r8
 8005f0c:	4620      	mov	r0, r4
 8005f0e:	f000 f985 	bl	800621c <_Bfree>
 8005f12:	4639      	mov	r1, r7
 8005f14:	4620      	mov	r0, r4
 8005f16:	f000 f981 	bl	800621c <_Bfree>
 8005f1a:	e6a5      	b.n	8005c68 <_dtoa_r+0x6d8>
 8005f1c:	2600      	movs	r6, #0
 8005f1e:	4637      	mov	r7, r6
 8005f20:	e7e1      	b.n	8005ee6 <_dtoa_r+0x956>
 8005f22:	9e0c      	ldr	r6, [sp, #48]	; 0x30
 8005f24:	f8dd a01c 	ldr.w	sl, [sp, #28]
 8005f28:	4637      	mov	r7, r6
 8005f2a:	e599      	b.n	8005a60 <_dtoa_r+0x4d0>
 8005f2c:	9b08      	ldr	r3, [sp, #32]
 8005f2e:	f8dd 9004 	ldr.w	r9, [sp, #4]
 8005f32:	2b00      	cmp	r3, #0
 8005f34:	f000 80fd 	beq.w	8006132 <_dtoa_r+0xba2>
 8005f38:	2d00      	cmp	r5, #0
 8005f3a:	dd05      	ble.n	8005f48 <_dtoa_r+0x9b8>
 8005f3c:	4639      	mov	r1, r7
 8005f3e:	462a      	mov	r2, r5
 8005f40:	4620      	mov	r0, r4
 8005f42:	f000 fb3d 	bl	80065c0 <__lshift>
 8005f46:	4607      	mov	r7, r0
 8005f48:	9b06      	ldr	r3, [sp, #24]
 8005f4a:	2b00      	cmp	r3, #0
 8005f4c:	d05c      	beq.n	8006008 <_dtoa_r+0xa78>
 8005f4e:	6879      	ldr	r1, [r7, #4]
 8005f50:	4620      	mov	r0, r4
 8005f52:	f000 f923 	bl	800619c <_Balloc>
 8005f56:	4605      	mov	r5, r0
 8005f58:	b928      	cbnz	r0, 8005f66 <_dtoa_r+0x9d6>
 8005f5a:	4b80      	ldr	r3, [pc, #512]	; (800615c <_dtoa_r+0xbcc>)
 8005f5c:	4602      	mov	r2, r0
 8005f5e:	f240 21ea 	movw	r1, #746	; 0x2ea
 8005f62:	f7ff bb2e 	b.w	80055c2 <_dtoa_r+0x32>
 8005f66:	693a      	ldr	r2, [r7, #16]
 8005f68:	3202      	adds	r2, #2
 8005f6a:	0092      	lsls	r2, r2, #2
 8005f6c:	f107 010c 	add.w	r1, r7, #12
 8005f70:	300c      	adds	r0, #12
 8005f72:	f000 f905 	bl	8006180 <memcpy>
 8005f76:	2201      	movs	r2, #1
 8005f78:	4629      	mov	r1, r5
 8005f7a:	4620      	mov	r0, r4
 8005f7c:	f000 fb20 	bl	80065c0 <__lshift>
 8005f80:	9b00      	ldr	r3, [sp, #0]
 8005f82:	3301      	adds	r3, #1
 8005f84:	9301      	str	r3, [sp, #4]
 8005f86:	9b00      	ldr	r3, [sp, #0]
 8005f88:	444b      	add	r3, r9
 8005f8a:	9307      	str	r3, [sp, #28]
 8005f8c:	9b02      	ldr	r3, [sp, #8]
 8005f8e:	f003 0301 	and.w	r3, r3, #1
 8005f92:	46b8      	mov	r8, r7
 8005f94:	9306      	str	r3, [sp, #24]
 8005f96:	4607      	mov	r7, r0
 8005f98:	9b01      	ldr	r3, [sp, #4]
 8005f9a:	4631      	mov	r1, r6
 8005f9c:	3b01      	subs	r3, #1
 8005f9e:	4658      	mov	r0, fp
 8005fa0:	9302      	str	r3, [sp, #8]
 8005fa2:	f7ff fa67 	bl	8005474 <quorem>
 8005fa6:	4603      	mov	r3, r0
 8005fa8:	3330      	adds	r3, #48	; 0x30
 8005faa:	9004      	str	r0, [sp, #16]
 8005fac:	4641      	mov	r1, r8
 8005fae:	4658      	mov	r0, fp
 8005fb0:	9308      	str	r3, [sp, #32]
 8005fb2:	f000 fb71 	bl	8006698 <__mcmp>
 8005fb6:	463a      	mov	r2, r7
 8005fb8:	4681      	mov	r9, r0
 8005fba:	4631      	mov	r1, r6
 8005fbc:	4620      	mov	r0, r4
 8005fbe:	f000 fb87 	bl	80066d0 <__mdiff>
 8005fc2:	68c2      	ldr	r2, [r0, #12]
 8005fc4:	9b08      	ldr	r3, [sp, #32]
 8005fc6:	4605      	mov	r5, r0
 8005fc8:	bb02      	cbnz	r2, 800600c <_dtoa_r+0xa7c>
 8005fca:	4601      	mov	r1, r0
 8005fcc:	4658      	mov	r0, fp
 8005fce:	f000 fb63 	bl	8006698 <__mcmp>
 8005fd2:	9b08      	ldr	r3, [sp, #32]
 8005fd4:	4602      	mov	r2, r0
 8005fd6:	4629      	mov	r1, r5
 8005fd8:	4620      	mov	r0, r4
 8005fda:	e9cd 3208 	strd	r3, r2, [sp, #32]
 8005fde:	f000 f91d 	bl	800621c <_Bfree>
 8005fe2:	9b05      	ldr	r3, [sp, #20]
 8005fe4:	9a09      	ldr	r2, [sp, #36]	; 0x24
 8005fe6:	9d01      	ldr	r5, [sp, #4]
 8005fe8:	ea43 0102 	orr.w	r1, r3, r2
 8005fec:	9b06      	ldr	r3, [sp, #24]
 8005fee:	430b      	orrs	r3, r1
 8005ff0:	9b08      	ldr	r3, [sp, #32]
 8005ff2:	d10d      	bne.n	8006010 <_dtoa_r+0xa80>
 8005ff4:	2b39      	cmp	r3, #57	; 0x39
 8005ff6:	d029      	beq.n	800604c <_dtoa_r+0xabc>
 8005ff8:	f1b9 0f00 	cmp.w	r9, #0
 8005ffc:	dd01      	ble.n	8006002 <_dtoa_r+0xa72>
 8005ffe:	9b04      	ldr	r3, [sp, #16]
 8006000:	3331      	adds	r3, #49	; 0x31
 8006002:	9a02      	ldr	r2, [sp, #8]
 8006004:	7013      	strb	r3, [r2, #0]
 8006006:	e774      	b.n	8005ef2 <_dtoa_r+0x962>
 8006008:	4638      	mov	r0, r7
 800600a:	e7b9      	b.n	8005f80 <_dtoa_r+0x9f0>
 800600c:	2201      	movs	r2, #1
 800600e:	e7e2      	b.n	8005fd6 <_dtoa_r+0xa46>
 8006010:	f1b9 0f00 	cmp.w	r9, #0
 8006014:	db06      	blt.n	8006024 <_dtoa_r+0xa94>
 8006016:	9905      	ldr	r1, [sp, #20]
 8006018:	ea41 0909 	orr.w	r9, r1, r9
 800601c:	9906      	ldr	r1, [sp, #24]
 800601e:	ea59 0101 	orrs.w	r1, r9, r1
 8006022:	d120      	bne.n	8006066 <_dtoa_r+0xad6>
 8006024:	2a00      	cmp	r2, #0
 8006026:	ddec      	ble.n	8006002 <_dtoa_r+0xa72>
 8006028:	4659      	mov	r1, fp
 800602a:	2201      	movs	r2, #1
 800602c:	4620      	mov	r0, r4
 800602e:	9301      	str	r3, [sp, #4]
 8006030:	f000 fac6 	bl	80065c0 <__lshift>
 8006034:	4631      	mov	r1, r6
 8006036:	4683      	mov	fp, r0
 8006038:	f000 fb2e 	bl	8006698 <__mcmp>
 800603c:	2800      	cmp	r0, #0
 800603e:	9b01      	ldr	r3, [sp, #4]
 8006040:	dc02      	bgt.n	8006048 <_dtoa_r+0xab8>
 8006042:	d1de      	bne.n	8006002 <_dtoa_r+0xa72>
 8006044:	07da      	lsls	r2, r3, #31
 8006046:	d5dc      	bpl.n	8006002 <_dtoa_r+0xa72>
 8006048:	2b39      	cmp	r3, #57	; 0x39
 800604a:	d1d8      	bne.n	8005ffe <_dtoa_r+0xa6e>
 800604c:	9a02      	ldr	r2, [sp, #8]
 800604e:	2339      	movs	r3, #57	; 0x39
 8006050:	7013      	strb	r3, [r2, #0]
 8006052:	462b      	mov	r3, r5
 8006054:	461d      	mov	r5, r3
 8006056:	3b01      	subs	r3, #1
 8006058:	f815 2c01 	ldrb.w	r2, [r5, #-1]
 800605c:	2a39      	cmp	r2, #57	; 0x39
 800605e:	d050      	beq.n	8006102 <_dtoa_r+0xb72>
 8006060:	3201      	adds	r2, #1
 8006062:	701a      	strb	r2, [r3, #0]
 8006064:	e745      	b.n	8005ef2 <_dtoa_r+0x962>
 8006066:	2a00      	cmp	r2, #0
 8006068:	dd03      	ble.n	8006072 <_dtoa_r+0xae2>
 800606a:	2b39      	cmp	r3, #57	; 0x39
 800606c:	d0ee      	beq.n	800604c <_dtoa_r+0xabc>
 800606e:	3301      	adds	r3, #1
 8006070:	e7c7      	b.n	8006002 <_dtoa_r+0xa72>
 8006072:	9a01      	ldr	r2, [sp, #4]
 8006074:	9907      	ldr	r1, [sp, #28]
 8006076:	f802 3c01 	strb.w	r3, [r2, #-1]
 800607a:	428a      	cmp	r2, r1
 800607c:	d02a      	beq.n	80060d4 <_dtoa_r+0xb44>
 800607e:	4659      	mov	r1, fp
 8006080:	2300      	movs	r3, #0
 8006082:	220a      	movs	r2, #10
 8006084:	4620      	mov	r0, r4
 8006086:	f000 f8eb 	bl	8006260 <__multadd>
 800608a:	45b8      	cmp	r8, r7
 800608c:	4683      	mov	fp, r0
 800608e:	f04f 0300 	mov.w	r3, #0
 8006092:	f04f 020a 	mov.w	r2, #10
 8006096:	4641      	mov	r1, r8
 8006098:	4620      	mov	r0, r4
 800609a:	d107      	bne.n	80060ac <_dtoa_r+0xb1c>
 800609c:	f000 f8e0 	bl	8006260 <__multadd>
 80060a0:	4680      	mov	r8, r0
 80060a2:	4607      	mov	r7, r0
 80060a4:	9b01      	ldr	r3, [sp, #4]
 80060a6:	3301      	adds	r3, #1
 80060a8:	9301      	str	r3, [sp, #4]
 80060aa:	e775      	b.n	8005f98 <_dtoa_r+0xa08>
 80060ac:	f000 f8d8 	bl	8006260 <__multadd>
 80060b0:	4639      	mov	r1, r7
 80060b2:	4680      	mov	r8, r0
 80060b4:	2300      	movs	r3, #0
 80060b6:	220a      	movs	r2, #10
 80060b8:	4620      	mov	r0, r4
 80060ba:	f000 f8d1 	bl	8006260 <__multadd>
 80060be:	4607      	mov	r7, r0
 80060c0:	e7f0      	b.n	80060a4 <_dtoa_r+0xb14>
 80060c2:	f1b9 0f00 	cmp.w	r9, #0
 80060c6:	9a00      	ldr	r2, [sp, #0]
 80060c8:	bfcc      	ite	gt
 80060ca:	464d      	movgt	r5, r9
 80060cc:	2501      	movle	r5, #1
 80060ce:	4415      	add	r5, r2
 80060d0:	f04f 0800 	mov.w	r8, #0
 80060d4:	4659      	mov	r1, fp
 80060d6:	2201      	movs	r2, #1
 80060d8:	4620      	mov	r0, r4
 80060da:	9301      	str	r3, [sp, #4]
 80060dc:	f000 fa70 	bl	80065c0 <__lshift>
 80060e0:	4631      	mov	r1, r6
 80060e2:	4683      	mov	fp, r0
 80060e4:	f000 fad8 	bl	8006698 <__mcmp>
 80060e8:	2800      	cmp	r0, #0
 80060ea:	dcb2      	bgt.n	8006052 <_dtoa_r+0xac2>
 80060ec:	d102      	bne.n	80060f4 <_dtoa_r+0xb64>
 80060ee:	9b01      	ldr	r3, [sp, #4]
 80060f0:	07db      	lsls	r3, r3, #31
 80060f2:	d4ae      	bmi.n	8006052 <_dtoa_r+0xac2>
 80060f4:	462b      	mov	r3, r5
 80060f6:	461d      	mov	r5, r3
 80060f8:	f813 2d01 	ldrb.w	r2, [r3, #-1]!
 80060fc:	2a30      	cmp	r2, #48	; 0x30
 80060fe:	d0fa      	beq.n	80060f6 <_dtoa_r+0xb66>
 8006100:	e6f7      	b.n	8005ef2 <_dtoa_r+0x962>
 8006102:	9a00      	ldr	r2, [sp, #0]
 8006104:	429a      	cmp	r2, r3
 8006106:	d1a5      	bne.n	8006054 <_dtoa_r+0xac4>
 8006108:	f10a 0a01 	add.w	sl, sl, #1
 800610c:	2331      	movs	r3, #49	; 0x31
 800610e:	e779      	b.n	8006004 <_dtoa_r+0xa74>
 8006110:	4b13      	ldr	r3, [pc, #76]	; (8006160 <_dtoa_r+0xbd0>)
 8006112:	f7ff baaf 	b.w	8005674 <_dtoa_r+0xe4>
 8006116:	9b21      	ldr	r3, [sp, #132]	; 0x84
 8006118:	2b00      	cmp	r3, #0
 800611a:	f47f aa86 	bne.w	800562a <_dtoa_r+0x9a>
 800611e:	4b11      	ldr	r3, [pc, #68]	; (8006164 <_dtoa_r+0xbd4>)
 8006120:	f7ff baa8 	b.w	8005674 <_dtoa_r+0xe4>
 8006124:	f1b9 0f00 	cmp.w	r9, #0
 8006128:	dc03      	bgt.n	8006132 <_dtoa_r+0xba2>
 800612a:	9b05      	ldr	r3, [sp, #20]
 800612c:	2b02      	cmp	r3, #2
 800612e:	f73f aec9 	bgt.w	8005ec4 <_dtoa_r+0x934>
 8006132:	9d00      	ldr	r5, [sp, #0]
 8006134:	4631      	mov	r1, r6
 8006136:	4658      	mov	r0, fp
 8006138:	f7ff f99c 	bl	8005474 <quorem>
 800613c:	f100 0330 	add.w	r3, r0, #48	; 0x30
 8006140:	f805 3b01 	strb.w	r3, [r5], #1
 8006144:	9a00      	ldr	r2, [sp, #0]
 8006146:	1aaa      	subs	r2, r5, r2
 8006148:	4591      	cmp	r9, r2
 800614a:	ddba      	ble.n	80060c2 <_dtoa_r+0xb32>
 800614c:	4659      	mov	r1, fp
 800614e:	2300      	movs	r3, #0
 8006150:	220a      	movs	r2, #10
 8006152:	4620      	mov	r0, r4
 8006154:	f000 f884 	bl	8006260 <__multadd>
 8006158:	4683      	mov	fp, r0
 800615a:	e7eb      	b.n	8006134 <_dtoa_r+0xba4>
 800615c:	080079ab 	.word	0x080079ab
 8006160:	08007904 	.word	0x08007904
 8006164:	08007928 	.word	0x08007928

08006168 <_localeconv_r>:
 8006168:	4800      	ldr	r0, [pc, #0]	; (800616c <_localeconv_r+0x4>)
 800616a:	4770      	bx	lr
 800616c:	20000164 	.word	0x20000164

08006170 <malloc>:
 8006170:	4b02      	ldr	r3, [pc, #8]	; (800617c <malloc+0xc>)
 8006172:	4601      	mov	r1, r0
 8006174:	6818      	ldr	r0, [r3, #0]
 8006176:	f000 bbef 	b.w	8006958 <_malloc_r>
 800617a:	bf00      	nop
 800617c:	20000010 	.word	0x20000010

08006180 <memcpy>:
 8006180:	440a      	add	r2, r1
 8006182:	4291      	cmp	r1, r2
 8006184:	f100 33ff 	add.w	r3, r0, #4294967295
 8006188:	d100      	bne.n	800618c <memcpy+0xc>
 800618a:	4770      	bx	lr
 800618c:	b510      	push	{r4, lr}
 800618e:	f811 4b01 	ldrb.w	r4, [r1], #1
 8006192:	f803 4f01 	strb.w	r4, [r3, #1]!
 8006196:	4291      	cmp	r1, r2
 8006198:	d1f9      	bne.n	800618e <memcpy+0xe>
 800619a:	bd10      	pop	{r4, pc}

0800619c <_Balloc>:
 800619c:	b570      	push	{r4, r5, r6, lr}
 800619e:	6a46      	ldr	r6, [r0, #36]	; 0x24
 80061a0:	4604      	mov	r4, r0
 80061a2:	460d      	mov	r5, r1
 80061a4:	b976      	cbnz	r6, 80061c4 <_Balloc+0x28>
 80061a6:	2010      	movs	r0, #16
 80061a8:	f7ff ffe2 	bl	8006170 <malloc>
 80061ac:	4602      	mov	r2, r0
 80061ae:	6260      	str	r0, [r4, #36]	; 0x24
 80061b0:	b920      	cbnz	r0, 80061bc <_Balloc+0x20>
 80061b2:	4b18      	ldr	r3, [pc, #96]	; (8006214 <_Balloc+0x78>)
 80061b4:	4818      	ldr	r0, [pc, #96]	; (8006218 <_Balloc+0x7c>)
 80061b6:	2166      	movs	r1, #102	; 0x66
 80061b8:	f000 fd94 	bl	8006ce4 <__assert_func>
 80061bc:	e9c0 6601 	strd	r6, r6, [r0, #4]
 80061c0:	6006      	str	r6, [r0, #0]
 80061c2:	60c6      	str	r6, [r0, #12]
 80061c4:	6a66      	ldr	r6, [r4, #36]	; 0x24
 80061c6:	68f3      	ldr	r3, [r6, #12]
 80061c8:	b183      	cbz	r3, 80061ec <_Balloc+0x50>
 80061ca:	6a63      	ldr	r3, [r4, #36]	; 0x24
 80061cc:	68db      	ldr	r3, [r3, #12]
 80061ce:	f853 0025 	ldr.w	r0, [r3, r5, lsl #2]
 80061d2:	b9b8      	cbnz	r0, 8006204 <_Balloc+0x68>
 80061d4:	2101      	movs	r1, #1
 80061d6:	fa01 f605 	lsl.w	r6, r1, r5
 80061da:	1d72      	adds	r2, r6, #5
 80061dc:	0092      	lsls	r2, r2, #2
 80061de:	4620      	mov	r0, r4
 80061e0:	f000 fb5a 	bl	8006898 <_calloc_r>
 80061e4:	b160      	cbz	r0, 8006200 <_Balloc+0x64>
 80061e6:	e9c0 5601 	strd	r5, r6, [r0, #4]
 80061ea:	e00e      	b.n	800620a <_Balloc+0x6e>
 80061ec:	2221      	movs	r2, #33	; 0x21
 80061ee:	2104      	movs	r1, #4
 80061f0:	4620      	mov	r0, r4
 80061f2:	f000 fb51 	bl	8006898 <_calloc_r>
 80061f6:	6a63      	ldr	r3, [r4, #36]	; 0x24
 80061f8:	60f0      	str	r0, [r6, #12]
 80061fa:	68db      	ldr	r3, [r3, #12]
 80061fc:	2b00      	cmp	r3, #0
 80061fe:	d1e4      	bne.n	80061ca <_Balloc+0x2e>
 8006200:	2000      	movs	r0, #0
 8006202:	bd70      	pop	{r4, r5, r6, pc}
 8006204:	6802      	ldr	r2, [r0, #0]
 8006206:	f843 2025 	str.w	r2, [r3, r5, lsl #2]
 800620a:	2300      	movs	r3, #0
 800620c:	e9c0 3303 	strd	r3, r3, [r0, #12]
 8006210:	e7f7      	b.n	8006202 <_Balloc+0x66>
 8006212:	bf00      	nop
 8006214:	08007935 	.word	0x08007935
 8006218:	080079bc 	.word	0x080079bc

0800621c <_Bfree>:
 800621c:	b570      	push	{r4, r5, r6, lr}
 800621e:	6a46      	ldr	r6, [r0, #36]	; 0x24
 8006220:	4605      	mov	r5, r0
 8006222:	460c      	mov	r4, r1
 8006224:	b976      	cbnz	r6, 8006244 <_Bfree+0x28>
 8006226:	2010      	movs	r0, #16
 8006228:	f7ff ffa2 	bl	8006170 <malloc>
 800622c:	4602      	mov	r2, r0
 800622e:	6268      	str	r0, [r5, #36]	; 0x24
 8006230:	b920      	cbnz	r0, 800623c <_Bfree+0x20>
 8006232:	4b09      	ldr	r3, [pc, #36]	; (8006258 <_Bfree+0x3c>)
 8006234:	4809      	ldr	r0, [pc, #36]	; (800625c <_Bfree+0x40>)
 8006236:	218a      	movs	r1, #138	; 0x8a
 8006238:	f000 fd54 	bl	8006ce4 <__assert_func>
 800623c:	e9c0 6601 	strd	r6, r6, [r0, #4]
 8006240:	6006      	str	r6, [r0, #0]
 8006242:	60c6      	str	r6, [r0, #12]
 8006244:	b13c      	cbz	r4, 8006256 <_Bfree+0x3a>
 8006246:	6a6b      	ldr	r3, [r5, #36]	; 0x24
 8006248:	6862      	ldr	r2, [r4, #4]
 800624a:	68db      	ldr	r3, [r3, #12]
 800624c:	f853 1022 	ldr.w	r1, [r3, r2, lsl #2]
 8006250:	6021      	str	r1, [r4, #0]
 8006252:	f843 4022 	str.w	r4, [r3, r2, lsl #2]
 8006256:	bd70      	pop	{r4, r5, r6, pc}
 8006258:	08007935 	.word	0x08007935
 800625c:	080079bc 	.word	0x080079bc

08006260 <__multadd>:
 8006260:	e92d 41f0 	stmdb	sp!, {r4, r5, r6, r7, r8, lr}
 8006264:	690e      	ldr	r6, [r1, #16]
 8006266:	4607      	mov	r7, r0
 8006268:	4698      	mov	r8, r3
 800626a:	460c      	mov	r4, r1
 800626c:	f101 0014 	add.w	r0, r1, #20
 8006270:	2300      	movs	r3, #0
 8006272:	6805      	ldr	r5, [r0, #0]
 8006274:	b2a9      	uxth	r1, r5
 8006276:	fb02 8101 	mla	r1, r2, r1, r8
 800627a:	ea4f 4c11 	mov.w	ip, r1, lsr #16
 800627e:	0c2d      	lsrs	r5, r5, #16
 8006280:	fb02 c505 	mla	r5, r2, r5, ip
 8006284:	b289      	uxth	r1, r1
 8006286:	3301      	adds	r3, #1
 8006288:	eb01 4105 	add.w	r1, r1, r5, lsl #16
 800628c:	429e      	cmp	r6, r3
 800628e:	f840 1b04 	str.w	r1, [r0], #4
 8006292:	ea4f 4815 	mov.w	r8, r5, lsr #16
 8006296:	dcec      	bgt.n	8006272 <__multadd+0x12>
 8006298:	f1b8 0f00 	cmp.w	r8, #0
 800629c:	d022      	beq.n	80062e4 <__multadd+0x84>
 800629e:	68a3      	ldr	r3, [r4, #8]
 80062a0:	42b3      	cmp	r3, r6
 80062a2:	dc19      	bgt.n	80062d8 <__multadd+0x78>
 80062a4:	6861      	ldr	r1, [r4, #4]
 80062a6:	4638      	mov	r0, r7
 80062a8:	3101      	adds	r1, #1
 80062aa:	f7ff ff77 	bl	800619c <_Balloc>
 80062ae:	4605      	mov	r5, r0
 80062b0:	b928      	cbnz	r0, 80062be <__multadd+0x5e>
 80062b2:	4602      	mov	r2, r0
 80062b4:	4b0d      	ldr	r3, [pc, #52]	; (80062ec <__multadd+0x8c>)
 80062b6:	480e      	ldr	r0, [pc, #56]	; (80062f0 <__multadd+0x90>)
 80062b8:	21b5      	movs	r1, #181	; 0xb5
 80062ba:	f000 fd13 	bl	8006ce4 <__assert_func>
 80062be:	6922      	ldr	r2, [r4, #16]
 80062c0:	3202      	adds	r2, #2
 80062c2:	f104 010c 	add.w	r1, r4, #12
 80062c6:	0092      	lsls	r2, r2, #2
 80062c8:	300c      	adds	r0, #12
 80062ca:	f7ff ff59 	bl	8006180 <memcpy>
 80062ce:	4621      	mov	r1, r4
 80062d0:	4638      	mov	r0, r7
 80062d2:	f7ff ffa3 	bl	800621c <_Bfree>
 80062d6:	462c      	mov	r4, r5
 80062d8:	eb04 0386 	add.w	r3, r4, r6, lsl #2
 80062dc:	3601      	adds	r6, #1
 80062de:	f8c3 8014 	str.w	r8, [r3, #20]
 80062e2:	6126      	str	r6, [r4, #16]
 80062e4:	4620      	mov	r0, r4
 80062e6:	e8bd 81f0 	ldmia.w	sp!, {r4, r5, r6, r7, r8, pc}
 80062ea:	bf00      	nop
 80062ec:	080079ab 	.word	0x080079ab
 80062f0:	080079bc 	.word	0x080079bc

080062f4 <__hi0bits>:
 80062f4:	0c03      	lsrs	r3, r0, #16
 80062f6:	041b      	lsls	r3, r3, #16
 80062f8:	b9d3      	cbnz	r3, 8006330 <__hi0bits+0x3c>
 80062fa:	0400      	lsls	r0, r0, #16
 80062fc:	2310      	movs	r3, #16
 80062fe:	f010 4f7f 	tst.w	r0, #4278190080	; 0xff000000
 8006302:	bf04      	itt	eq
 8006304:	0200      	lsleq	r0, r0, #8
 8006306:	3308      	addeq	r3, #8
 8006308:	f010 4f70 	tst.w	r0, #4026531840	; 0xf0000000
 800630c:	bf04      	itt	eq
 800630e:	0100      	lsleq	r0, r0, #4
 8006310:	3304      	addeq	r3, #4
 8006312:	f010 4f40 	tst.w	r0, #3221225472	; 0xc0000000
 8006316:	bf04      	itt	eq
 8006318:	0080      	lsleq	r0, r0, #2
 800631a:	3302      	addeq	r3, #2
 800631c:	2800      	cmp	r0, #0
 800631e:	db05      	blt.n	800632c <__hi0bits+0x38>
 8006320:	f010 4f80 	tst.w	r0, #1073741824	; 0x40000000
 8006324:	f103 0301 	add.w	r3, r3, #1
 8006328:	bf08      	it	eq
 800632a:	2320      	moveq	r3, #32
 800632c:	4618      	mov	r0, r3
 800632e:	4770      	bx	lr
 8006330:	2300      	movs	r3, #0
 8006332:	e7e4      	b.n	80062fe <__hi0bits+0xa>

08006334 <__lo0bits>:
 8006334:	6803      	ldr	r3, [r0, #0]
 8006336:	f013 0207 	ands.w	r2, r3, #7
 800633a:	4601      	mov	r1, r0
 800633c:	d00b      	beq.n	8006356 <__lo0bits+0x22>
 800633e:	07da      	lsls	r2, r3, #31
 8006340:	d424      	bmi.n	800638c <__lo0bits+0x58>
 8006342:	0798      	lsls	r0, r3, #30
 8006344:	bf49      	itett	mi
 8006346:	085b      	lsrmi	r3, r3, #1
 8006348:	089b      	lsrpl	r3, r3, #2
 800634a:	2001      	movmi	r0, #1
 800634c:	600b      	strmi	r3, [r1, #0]
 800634e:	bf5c      	itt	pl
 8006350:	600b      	strpl	r3, [r1, #0]
 8006352:	2002      	movpl	r0, #2
 8006354:	4770      	bx	lr
 8006356:	b298      	uxth	r0, r3
 8006358:	b9b0      	cbnz	r0, 8006388 <__lo0bits+0x54>
 800635a:	0c1b      	lsrs	r3, r3, #16
 800635c:	2010      	movs	r0, #16
 800635e:	f013 0fff 	tst.w	r3, #255	; 0xff
 8006362:	bf04      	itt	eq
 8006364:	0a1b      	lsreq	r3, r3, #8
 8006366:	3008      	addeq	r0, #8
 8006368:	071a      	lsls	r2, r3, #28
 800636a:	bf04      	itt	eq
 800636c:	091b      	lsreq	r3, r3, #4
 800636e:	3004      	addeq	r0, #4
 8006370:	079a      	lsls	r2, r3, #30
 8006372:	bf04      	itt	eq
 8006374:	089b      	lsreq	r3, r3, #2
 8006376:	3002      	addeq	r0, #2
 8006378:	07da      	lsls	r2, r3, #31
 800637a:	d403      	bmi.n	8006384 <__lo0bits+0x50>
 800637c:	085b      	lsrs	r3, r3, #1
 800637e:	f100 0001 	add.w	r0, r0, #1
 8006382:	d005      	beq.n	8006390 <__lo0bits+0x5c>
 8006384:	600b      	str	r3, [r1, #0]
 8006386:	4770      	bx	lr
 8006388:	4610      	mov	r0, r2
 800638a:	e7e8      	b.n	800635e <__lo0bits+0x2a>
 800638c:	2000      	movs	r0, #0
 800638e:	4770      	bx	lr
 8006390:	2020      	movs	r0, #32
 8006392:	4770      	bx	lr

08006394 <__i2b>:
 8006394:	b510      	push	{r4, lr}
 8006396:	460c      	mov	r4, r1
 8006398:	2101      	movs	r1, #1
 800639a:	f7ff feff 	bl	800619c <_Balloc>
 800639e:	4602      	mov	r2, r0
 80063a0:	b928      	cbnz	r0, 80063ae <__i2b+0x1a>
 80063a2:	4b05      	ldr	r3, [pc, #20]	; (80063b8 <__i2b+0x24>)
 80063a4:	4805      	ldr	r0, [pc, #20]	; (80063bc <__i2b+0x28>)
 80063a6:	f44f 71a0 	mov.w	r1, #320	; 0x140
 80063aa:	f000 fc9b 	bl	8006ce4 <__assert_func>
 80063ae:	2301      	movs	r3, #1
 80063b0:	6144      	str	r4, [r0, #20]
 80063b2:	6103      	str	r3, [r0, #16]
 80063b4:	bd10      	pop	{r4, pc}
 80063b6:	bf00      	nop
 80063b8:	080079ab 	.word	0x080079ab
 80063bc:	080079bc 	.word	0x080079bc

080063c0 <__multiply>:
 80063c0:	e92d 4ff0 	stmdb	sp!, {r4, r5, r6, r7, r8, r9, sl, fp, lr}
 80063c4:	4614      	mov	r4, r2
 80063c6:	690a      	ldr	r2, [r1, #16]
 80063c8:	6923      	ldr	r3, [r4, #16]
 80063ca:	429a      	cmp	r2, r3
 80063cc:	bfb8      	it	lt
 80063ce:	460b      	movlt	r3, r1
 80063d0:	460d      	mov	r5, r1
 80063d2:	bfbc      	itt	lt
 80063d4:	4625      	movlt	r5, r4
 80063d6:	461c      	movlt	r4, r3
 80063d8:	f8d5 a010 	ldr.w	sl, [r5, #16]
 80063dc:	f8d4 9010 	ldr.w	r9, [r4, #16]
 80063e0:	68ab      	ldr	r3, [r5, #8]
 80063e2:	6869      	ldr	r1, [r5, #4]
 80063e4:	eb0a 0709 	add.w	r7, sl, r9
 80063e8:	42bb      	cmp	r3, r7
 80063ea:	b085      	sub	sp, #20
 80063ec:	bfb8      	it	lt
 80063ee:	3101      	addlt	r1, #1
 80063f0:	f7ff fed4 	bl	800619c <_Balloc>
 80063f4:	b930      	cbnz	r0, 8006404 <__multiply+0x44>
 80063f6:	4602      	mov	r2, r0
 80063f8:	4b42      	ldr	r3, [pc, #264]	; (8006504 <__multiply+0x144>)
 80063fa:	4843      	ldr	r0, [pc, #268]	; (8006508 <__multiply+0x148>)
 80063fc:	f240 115d 	movw	r1, #349	; 0x15d
 8006400:	f000 fc70 	bl	8006ce4 <__assert_func>
 8006404:	f100 0614 	add.w	r6, r0, #20
 8006408:	eb06 0887 	add.w	r8, r6, r7, lsl #2
 800640c:	4633      	mov	r3, r6
 800640e:	2200      	movs	r2, #0
 8006410:	4543      	cmp	r3, r8
 8006412:	d31e      	bcc.n	8006452 <__multiply+0x92>
 8006414:	f105 0c14 	add.w	ip, r5, #20
 8006418:	f104 0314 	add.w	r3, r4, #20
 800641c:	eb0c 0c8a 	add.w	ip, ip, sl, lsl #2
 8006420:	eb03 0289 	add.w	r2, r3, r9, lsl #2
 8006424:	9202      	str	r2, [sp, #8]
 8006426:	ebac 0205 	sub.w	r2, ip, r5
 800642a:	3a15      	subs	r2, #21
 800642c:	f022 0203 	bic.w	r2, r2, #3
 8006430:	3204      	adds	r2, #4
 8006432:	f105 0115 	add.w	r1, r5, #21
 8006436:	458c      	cmp	ip, r1
 8006438:	bf38      	it	cc
 800643a:	2204      	movcc	r2, #4
 800643c:	9201      	str	r2, [sp, #4]
 800643e:	9a02      	ldr	r2, [sp, #8]
 8006440:	9303      	str	r3, [sp, #12]
 8006442:	429a      	cmp	r2, r3
 8006444:	d808      	bhi.n	8006458 <__multiply+0x98>
 8006446:	2f00      	cmp	r7, #0
 8006448:	dc55      	bgt.n	80064f6 <__multiply+0x136>
 800644a:	6107      	str	r7, [r0, #16]
 800644c:	b005      	add	sp, #20
 800644e:	e8bd 8ff0 	ldmia.w	sp!, {r4, r5, r6, r7, r8, r9, sl, fp, pc}
 8006452:	f843 2b04 	str.w	r2, [r3], #4
 8006456:	e7db      	b.n	8006410 <__multiply+0x50>
 8006458:	f8b3 a000 	ldrh.w	sl, [r3]
 800645c:	f1ba 0f00 	cmp.w	sl, #0
 8006460:	d020      	beq.n	80064a4 <__multiply+0xe4>
 8006462:	f105 0e14 	add.w	lr, r5, #20
 8006466:	46b1      	mov	r9, r6
 8006468:	2200      	movs	r2, #0
 800646a:	f85e 4b04 	ldr.w	r4, [lr], #4
 800646e:	f8d9 b000 	ldr.w	fp, [r9]
 8006472:	b2a1      	uxth	r1, r4
 8006474:	fa1f fb8b 	uxth.w	fp, fp
 8006478:	fb0a b101 	mla	r1, sl, r1, fp
 800647c:	4411      	add	r1, r2
 800647e:	f8d9 2000 	ldr.w	r2, [r9]
 8006482:	0c24      	lsrs	r4, r4, #16
 8006484:	0c12      	lsrs	r2, r2, #16
 8006486:	fb0a 2404 	mla	r4, sl, r4, r2
 800648a:	eb04 4411 	add.w	r4, r4, r1, lsr #16
 800648e:	b289      	uxth	r1, r1
 8006490:	ea41 4104 	orr.w	r1, r1, r4, lsl #16
 8006494:	45f4      	cmp	ip, lr
 8006496:	f849 1b04 	str.w	r1, [r9], #4
 800649a:	ea4f 4214 	mov.w	r2, r4, lsr #16
 800649e:	d8e4      	bhi.n	800646a <__multiply+0xaa>
 80064a0:	9901      	ldr	r1, [sp, #4]
 80064a2:	5072      	str	r2, [r6, r1]
 80064a4:	9a03      	ldr	r2, [sp, #12]
 80064a6:	f8b2 9002 	ldrh.w	r9, [r2, #2]
 80064aa:	3304      	adds	r3, #4
 80064ac:	f1b9 0f00 	cmp.w	r9, #0
 80064b0:	d01f      	beq.n	80064f2 <__multiply+0x132>
 80064b2:	6834      	ldr	r4, [r6, #0]
 80064b4:	f105 0114 	add.w	r1, r5, #20
 80064b8:	46b6      	mov	lr, r6
 80064ba:	f04f 0a00 	mov.w	sl, #0
 80064be:	880a      	ldrh	r2, [r1, #0]
 80064c0:	f8be b002 	ldrh.w	fp, [lr, #2]
 80064c4:	fb09 b202 	mla	r2, r9, r2, fp
 80064c8:	4492      	add	sl, r2
 80064ca:	b2a4      	uxth	r4, r4
 80064cc:	ea44 440a 	orr.w	r4, r4, sl, lsl #16
 80064d0:	f84e 4b04 	str.w	r4, [lr], #4
 80064d4:	f851 4b04 	ldr.w	r4, [r1], #4
 80064d8:	f8be 2000 	ldrh.w	r2, [lr]
 80064dc:	0c24      	lsrs	r4, r4, #16
 80064de:	fb09 2404 	mla	r4, r9, r4, r2
 80064e2:	eb04 441a 	add.w	r4, r4, sl, lsr #16
 80064e6:	458c      	cmp	ip, r1
 80064e8:	ea4f 4a14 	mov.w	sl, r4, lsr #16
 80064ec:	d8e7      	bhi.n	80064be <__multiply+0xfe>
 80064ee:	9a01      	ldr	r2, [sp, #4]
 80064f0:	50b4      	str	r4, [r6, r2]
 80064f2:	3604      	adds	r6, #4
 80064f4:	e7a3      	b.n	800643e <__multiply+0x7e>
 80064f6:	f858 3d04 	ldr.w	r3, [r8, #-4]!
 80064fa:	2b00      	cmp	r3, #0
 80064fc:	d1a5      	bne.n	800644a <__multiply+0x8a>
 80064fe:	3f01      	subs	r7, #1
 8006500:	e7a1      	b.n	8006446 <__multiply+0x86>
 8006502:	bf00      	nop
 8006504:	080079ab 	.word	0x080079ab
 8006508:	080079bc 	.word	0x080079bc

0800650c <__pow5mult>:
 800650c:	e92d 43f8 	stmdb	sp!, {r3, r4, r5, r6, r7, r8, r9, lr}
 8006510:	4615      	mov	r5, r2
 8006512:	f012 0203 	ands.w	r2, r2, #3
 8006516:	4606      	mov	r6, r0
 8006518:	460f      	mov	r7, r1
 800651a:	d007      	beq.n	800652c <__pow5mult+0x20>
 800651c:	4c25      	ldr	r4, [pc, #148]	; (80065b4 <__pow5mult+0xa8>)
 800651e:	3a01      	subs	r2, #1
 8006520:	2300      	movs	r3, #0
 8006522:	f854 2022 	ldr.w	r2, [r4, r2, lsl #2]
 8006526:	f7ff fe9b 	bl	8006260 <__multadd>
 800652a:	4607      	mov	r7, r0
 800652c:	10ad      	asrs	r5, r5, #2
 800652e:	d03d      	beq.n	80065ac <__pow5mult+0xa0>
 8006530:	6a74      	ldr	r4, [r6, #36]	; 0x24
 8006532:	b97c      	cbnz	r4, 8006554 <__pow5mult+0x48>
 8006534:	2010      	movs	r0, #16
 8006536:	f7ff fe1b 	bl	8006170 <malloc>
 800653a:	4602      	mov	r2, r0
 800653c:	6270      	str	r0, [r6, #36]	; 0x24
 800653e:	b928      	cbnz	r0, 800654c <__pow5mult+0x40>
 8006540:	4b1d      	ldr	r3, [pc, #116]	; (80065b8 <__pow5mult+0xac>)
 8006542:	481e      	ldr	r0, [pc, #120]	; (80065bc <__pow5mult+0xb0>)
 8006544:	f44f 71d7 	mov.w	r1, #430	; 0x1ae
 8006548:	f000 fbcc 	bl	8006ce4 <__assert_func>
 800654c:	e9c0 4401 	strd	r4, r4, [r0, #4]
 8006550:	6004      	str	r4, [r0, #0]
 8006552:	60c4      	str	r4, [r0, #12]
 8006554:	f8d6 8024 	ldr.w	r8, [r6, #36]	; 0x24
 8006558:	f8d8 4008 	ldr.w	r4, [r8, #8]
 800655c:	b94c      	cbnz	r4, 8006572 <__pow5mult+0x66>
 800655e:	f240 2171 	movw	r1, #625	; 0x271
 8006562:	4630      	mov	r0, r6
 8006564:	f7ff ff16 	bl	8006394 <__i2b>
 8006568:	2300      	movs	r3, #0
 800656a:	f8c8 0008 	str.w	r0, [r8, #8]
 800656e:	4604      	mov	r4, r0
 8006570:	6003      	str	r3, [r0, #0]
 8006572:	f04f 0900 	mov.w	r9, #0
 8006576:	07eb      	lsls	r3, r5, #31
 8006578:	d50a      	bpl.n	8006590 <__pow5mult+0x84>
 800657a:	4639      	mov	r1, r7
 800657c:	4622      	mov	r2, r4
 800657e:	4630      	mov	r0, r6
 8006580:	f7ff ff1e 	bl	80063c0 <__multiply>
 8006584:	4639      	mov	r1, r7
 8006586:	4680      	mov	r8, r0
 8006588:	4630      	mov	r0, r6
 800658a:	f7ff fe47 	bl	800621c <_Bfree>
 800658e:	4647      	mov	r7, r8
 8006590:	106d      	asrs	r5, r5, #1
 8006592:	d00b      	beq.n	80065ac <__pow5mult+0xa0>
 8006594:	6820      	ldr	r0, [r4, #0]
 8006596:	b938      	cbnz	r0, 80065a8 <__pow5mult+0x9c>
 8006598:	4622      	mov	r2, r4
 800659a:	4621      	mov	r1, r4
 800659c:	4630      	mov	r0, r6
 800659e:	f7ff ff0f 	bl	80063c0 <__multiply>
 80065a2:	6020      	str	r0, [r4, #0]
 80065a4:	f8c0 9000 	str.w	r9, [r0]
 80065a8:	4604      	mov	r4, r0
 80065aa:	e7e4      	b.n	8006576 <__pow5mult+0x6a>
 80065ac:	4638      	mov	r0, r7
 80065ae:	e8bd 83f8 	ldmia.w	sp!, {r3, r4, r5, r6, r7, r8, r9, pc}
 80065b2:	bf00      	nop
 80065b4:	08007b10 	.word	0x08007b10
 80065b8:	08007935 	.word	0x08007935
 80065bc:	080079bc 	.word	0x080079bc

080065c0 <__lshift>:
 80065c0:	e92d 47f0 	stmdb	sp!, {r4, r5, r6, r7, r8, r9, sl, lr}
 80065c4:	460c      	mov	r4, r1
 80065c6:	6849      	ldr	r1, [r1, #4]
 80065c8:	6923      	ldr	r3, [r4, #16]
 80065ca:	eb03 1862 	add.w	r8, r3, r2, asr #5
 80065ce:	68a3      	ldr	r3, [r4, #8]
 80065d0:	4607      	mov	r7, r0
 80065d2:	4691      	mov	r9, r2
 80065d4:	ea4f 1a62 	mov.w	sl, r2, asr #5
 80065d8:	f108 0601 	add.w	r6, r8, #1
 80065dc:	42b3      	cmp	r3, r6
 80065de:	db0b      	blt.n	80065f8 <__lshift+0x38>
 80065e0:	4638      	mov	r0, r7
 80065e2:	f7ff fddb 	bl	800619c <_Balloc>
 80065e6:	4605      	mov	r5, r0
 80065e8:	b948      	cbnz	r0, 80065fe <__lshift+0x3e>
 80065ea:	4602      	mov	r2, r0
 80065ec:	4b28      	ldr	r3, [pc, #160]	; (8006690 <__lshift+0xd0>)
 80065ee:	4829      	ldr	r0, [pc, #164]	; (8006694 <__lshift+0xd4>)
 80065f0:	f240 11d9 	movw	r1, #473	; 0x1d9
 80065f4:	f000 fb76 	bl	8006ce4 <__assert_func>
 80065f8:	3101      	adds	r1, #1
 80065fa:	005b      	lsls	r3, r3, #1
 80065fc:	e7ee      	b.n	80065dc <__lshift+0x1c>
 80065fe:	2300      	movs	r3, #0
 8006600:	f100 0114 	add.w	r1, r0, #20
 8006604:	f100 0210 	add.w	r2, r0, #16
 8006608:	4618      	mov	r0, r3
 800660a:	4553      	cmp	r3, sl
 800660c:	db33      	blt.n	8006676 <__lshift+0xb6>
 800660e:	6920      	ldr	r0, [r4, #16]
 8006610:	ea2a 7aea 	bic.w	sl, sl, sl, asr #31
 8006614:	f104 0314 	add.w	r3, r4, #20
 8006618:	f019 091f 	ands.w	r9, r9, #31
 800661c:	eb01 018a 	add.w	r1, r1, sl, lsl #2
 8006620:	eb03 0c80 	add.w	ip, r3, r0, lsl #2
 8006624:	d02b      	beq.n	800667e <__lshift+0xbe>
 8006626:	f1c9 0e20 	rsb	lr, r9, #32
 800662a:	468a      	mov	sl, r1
 800662c:	2200      	movs	r2, #0
 800662e:	6818      	ldr	r0, [r3, #0]
 8006630:	fa00 f009 	lsl.w	r0, r0, r9
 8006634:	4302      	orrs	r2, r0
 8006636:	f84a 2b04 	str.w	r2, [sl], #4
 800663a:	f853 2b04 	ldr.w	r2, [r3], #4
 800663e:	459c      	cmp	ip, r3
 8006640:	fa22 f20e 	lsr.w	r2, r2, lr
 8006644:	d8f3      	bhi.n	800662e <__lshift+0x6e>
 8006646:	ebac 0304 	sub.w	r3, ip, r4
 800664a:	3b15      	subs	r3, #21
 800664c:	f023 0303 	bic.w	r3, r3, #3
 8006650:	3304      	adds	r3, #4
 8006652:	f104 0015 	add.w	r0, r4, #21
 8006656:	4584      	cmp	ip, r0
 8006658:	bf38      	it	cc
 800665a:	2304      	movcc	r3, #4
 800665c:	50ca      	str	r2, [r1, r3]
 800665e:	b10a      	cbz	r2, 8006664 <__lshift+0xa4>
 8006660:	f108 0602 	add.w	r6, r8, #2
 8006664:	3e01      	subs	r6, #1
 8006666:	4638      	mov	r0, r7
 8006668:	612e      	str	r6, [r5, #16]
 800666a:	4621      	mov	r1, r4
 800666c:	f7ff fdd6 	bl	800621c <_Bfree>
 8006670:	4628      	mov	r0, r5
 8006672:	e8bd 87f0 	ldmia.w	sp!, {r4, r5, r6, r7, r8, r9, sl, pc}
 8006676:	f842 0f04 	str.w	r0, [r2, #4]!
 800667a:	3301      	adds	r3, #1
 800667c:	e7c5      	b.n	800660a <__lshift+0x4a>
 800667e:	3904      	subs	r1, #4
 8006680:	f853 2b04 	ldr.w	r2, [r3], #4
 8006684:	f841 2f04 	str.w	r2, [r1, #4]!
 8006688:	459c      	cmp	ip, r3
 800668a:	d8f9      	bhi.n	8006680 <__lshift+0xc0>
 800668c:	e7ea      	b.n	8006664 <__lshift+0xa4>
 800668e:	bf00      	nop
 8006690:	080079ab 	.word	0x080079ab
 8006694:	080079bc 	.word	0x080079bc

08006698 <__mcmp>:
 8006698:	b530      	push	{r4, r5, lr}
 800669a:	6902      	ldr	r2, [r0, #16]
 800669c:	690c      	ldr	r4, [r1, #16]
 800669e:	1b12      	subs	r2, r2, r4
 80066a0:	d10e      	bne.n	80066c0 <__mcmp+0x28>
 80066a2:	f100 0314 	add.w	r3, r0, #20
 80066a6:	3114      	adds	r1, #20
 80066a8:	eb03 0084 	add.w	r0, r3, r4, lsl #2
 80066ac:	eb01 0184 	add.w	r1, r1, r4, lsl #2
 80066b0:	f850 5d04 	ldr.w	r5, [r0, #-4]!
 80066b4:	f851 4d04 	ldr.w	r4, [r1, #-4]!
 80066b8:	42a5      	cmp	r5, r4
 80066ba:	d003      	beq.n	80066c4 <__mcmp+0x2c>
 80066bc:	d305      	bcc.n	80066ca <__mcmp+0x32>
 80066be:	2201      	movs	r2, #1
 80066c0:	4610      	mov	r0, r2
 80066c2:	bd30      	pop	{r4, r5, pc}
 80066c4:	4283      	cmp	r3, r0
 80066c6:	d3f3      	bcc.n	80066b0 <__mcmp+0x18>
 80066c8:	e7fa      	b.n	80066c0 <__mcmp+0x28>
 80066ca:	f04f 32ff 	mov.w	r2, #4294967295
 80066ce:	e7f7      	b.n	80066c0 <__mcmp+0x28>

080066d0 <__mdiff>:
 80066d0:	e92d 4ff8 	stmdb	sp!, {r3, r4, r5, r6, r7, r8, r9, sl, fp, lr}
 80066d4:	460c      	mov	r4, r1
 80066d6:	4606      	mov	r6, r0
 80066d8:	4611      	mov	r1, r2
 80066da:	4620      	mov	r0, r4
 80066dc:	4617      	mov	r7, r2
 80066de:	f7ff ffdb 	bl	8006698 <__mcmp>
 80066e2:	1e05      	subs	r5, r0, #0
 80066e4:	d110      	bne.n	8006708 <__mdiff+0x38>
 80066e6:	4629      	mov	r1, r5
 80066e8:	4630      	mov	r0, r6
 80066ea:	f7ff fd57 	bl	800619c <_Balloc>
 80066ee:	b930      	cbnz	r0, 80066fe <__mdiff+0x2e>
 80066f0:	4b39      	ldr	r3, [pc, #228]	; (80067d8 <__mdiff+0x108>)
 80066f2:	4602      	mov	r2, r0
 80066f4:	f240 2132 	movw	r1, #562	; 0x232
 80066f8:	4838      	ldr	r0, [pc, #224]	; (80067dc <__mdiff+0x10c>)
 80066fa:	f000 faf3 	bl	8006ce4 <__assert_func>
 80066fe:	2301      	movs	r3, #1
 8006700:	e9c0 3504 	strd	r3, r5, [r0, #16]
 8006704:	e8bd 8ff8 	ldmia.w	sp!, {r3, r4, r5, r6, r7, r8, r9, sl, fp, pc}
 8006708:	bfa4      	itt	ge
 800670a:	463b      	movge	r3, r7
 800670c:	4627      	movge	r7, r4
 800670e:	4630      	mov	r0, r6
 8006710:	6879      	ldr	r1, [r7, #4]
 8006712:	bfa6      	itte	ge
 8006714:	461c      	movge	r4, r3
 8006716:	2500      	movge	r5, #0
 8006718:	2501      	movlt	r5, #1
 800671a:	f7ff fd3f 	bl	800619c <_Balloc>
 800671e:	b920      	cbnz	r0, 800672a <__mdiff+0x5a>
 8006720:	4b2d      	ldr	r3, [pc, #180]	; (80067d8 <__mdiff+0x108>)
 8006722:	4602      	mov	r2, r0
 8006724:	f44f 7110 	mov.w	r1, #576	; 0x240
 8006728:	e7e6      	b.n	80066f8 <__mdiff+0x28>
 800672a:	693e      	ldr	r6, [r7, #16]
 800672c:	60c5      	str	r5, [r0, #12]
 800672e:	6925      	ldr	r5, [r4, #16]
 8006730:	f107 0114 	add.w	r1, r7, #20
 8006734:	f104 0914 	add.w	r9, r4, #20
 8006738:	f100 0e14 	add.w	lr, r0, #20
 800673c:	f107 0210 	add.w	r2, r7, #16
 8006740:	eb01 0c86 	add.w	ip, r1, r6, lsl #2
 8006744:	eb09 0585 	add.w	r5, r9, r5, lsl #2
 8006748:	46f2      	mov	sl, lr
 800674a:	2700      	movs	r7, #0
 800674c:	f859 3b04 	ldr.w	r3, [r9], #4
 8006750:	f852 bf04 	ldr.w	fp, [r2, #4]!
 8006754:	fa1f f883 	uxth.w	r8, r3
 8006758:	fa17 f78b 	uxtah	r7, r7, fp
 800675c:	0c1b      	lsrs	r3, r3, #16
 800675e:	eba7 0808 	sub.w	r8, r7, r8
 8006762:	ebc3 431b 	rsb	r3, r3, fp, lsr #16
 8006766:	eb03 4328 	add.w	r3, r3, r8, asr #16
 800676a:	fa1f f888 	uxth.w	r8, r8
 800676e:	141f      	asrs	r7, r3, #16
 8006770:	454d      	cmp	r5, r9
 8006772:	ea48 4303 	orr.w	r3, r8, r3, lsl #16
 8006776:	f84a 3b04 	str.w	r3, [sl], #4
 800677a:	d8e7      	bhi.n	800674c <__mdiff+0x7c>
 800677c:	1b2b      	subs	r3, r5, r4
 800677e:	3b15      	subs	r3, #21
 8006780:	f023 0303 	bic.w	r3, r3, #3
 8006784:	3304      	adds	r3, #4
 8006786:	3415      	adds	r4, #21
 8006788:	42a5      	cmp	r5, r4
 800678a:	bf38      	it	cc
 800678c:	2304      	movcc	r3, #4
 800678e:	4419      	add	r1, r3
 8006790:	4473      	add	r3, lr
 8006792:	469e      	mov	lr, r3
 8006794:	460d      	mov	r5, r1
 8006796:	4565      	cmp	r5, ip
 8006798:	d30e      	bcc.n	80067b8 <__mdiff+0xe8>
 800679a:	f10c 0203 	add.w	r2, ip, #3
 800679e:	1a52      	subs	r2, r2, r1
 80067a0:	f022 0203 	bic.w	r2, r2, #3
 80067a4:	3903      	subs	r1, #3
 80067a6:	458c      	cmp	ip, r1
 80067a8:	bf38      	it	cc
 80067aa:	2200      	movcc	r2, #0
 80067ac:	441a      	add	r2, r3
 80067ae:	f852 3d04 	ldr.w	r3, [r2, #-4]!
 80067b2:	b17b      	cbz	r3, 80067d4 <__mdiff+0x104>
 80067b4:	6106      	str	r6, [r0, #16]
 80067b6:	e7a5      	b.n	8006704 <__mdiff+0x34>
 80067b8:	f855 8b04 	ldr.w	r8, [r5], #4
 80067bc:	fa17 f488 	uxtah	r4, r7, r8
 80067c0:	1422      	asrs	r2, r4, #16
 80067c2:	eb02 4218 	add.w	r2, r2, r8, lsr #16
 80067c6:	b2a4      	uxth	r4, r4
 80067c8:	ea44 4402 	orr.w	r4, r4, r2, lsl #16
 80067cc:	f84e 4b04 	str.w	r4, [lr], #4
 80067d0:	1417      	asrs	r7, r2, #16
 80067d2:	e7e0      	b.n	8006796 <__mdiff+0xc6>
 80067d4:	3e01      	subs	r6, #1
 80067d6:	e7ea      	b.n	80067ae <__mdiff+0xde>
 80067d8:	080079ab 	.word	0x080079ab
 80067dc:	080079bc 	.word	0x080079bc

080067e0 <__d2b>:
 80067e0:	e92d 43f7 	stmdb	sp!, {r0, r1, r2, r4, r5, r6, r7, r8, r9, lr}
 80067e4:	4689      	mov	r9, r1
 80067e6:	2101      	movs	r1, #1
 80067e8:	ec57 6b10 	vmov	r6, r7, d0
 80067ec:	4690      	mov	r8, r2
 80067ee:	f7ff fcd5 	bl	800619c <_Balloc>
 80067f2:	4604      	mov	r4, r0
 80067f4:	b930      	cbnz	r0, 8006804 <__d2b+0x24>
 80067f6:	4602      	mov	r2, r0
 80067f8:	4b25      	ldr	r3, [pc, #148]	; (8006890 <__d2b+0xb0>)
 80067fa:	4826      	ldr	r0, [pc, #152]	; (8006894 <__d2b+0xb4>)
 80067fc:	f240 310a 	movw	r1, #778	; 0x30a
 8006800:	f000 fa70 	bl	8006ce4 <__assert_func>
 8006804:	f3c7 550a 	ubfx	r5, r7, #20, #11
 8006808:	f3c7 0313 	ubfx	r3, r7, #0, #20
 800680c:	bb35      	cbnz	r5, 800685c <__d2b+0x7c>
 800680e:	2e00      	cmp	r6, #0
 8006810:	9301      	str	r3, [sp, #4]
 8006812:	d028      	beq.n	8006866 <__d2b+0x86>
 8006814:	4668      	mov	r0, sp
 8006816:	9600      	str	r6, [sp, #0]
 8006818:	f7ff fd8c 	bl	8006334 <__lo0bits>
 800681c:	9900      	ldr	r1, [sp, #0]
 800681e:	b300      	cbz	r0, 8006862 <__d2b+0x82>
 8006820:	9a01      	ldr	r2, [sp, #4]
 8006822:	f1c0 0320 	rsb	r3, r0, #32
 8006826:	fa02 f303 	lsl.w	r3, r2, r3
 800682a:	430b      	orrs	r3, r1
 800682c:	40c2      	lsrs	r2, r0
 800682e:	6163      	str	r3, [r4, #20]
 8006830:	9201      	str	r2, [sp, #4]
 8006832:	9b01      	ldr	r3, [sp, #4]
 8006834:	61a3      	str	r3, [r4, #24]
 8006836:	2b00      	cmp	r3, #0
 8006838:	bf14      	ite	ne
 800683a:	2202      	movne	r2, #2
 800683c:	2201      	moveq	r2, #1
 800683e:	6122      	str	r2, [r4, #16]
 8006840:	b1d5      	cbz	r5, 8006878 <__d2b+0x98>
 8006842:	f2a5 4533 	subw	r5, r5, #1075	; 0x433
 8006846:	4405      	add	r5, r0
 8006848:	f8c9 5000 	str.w	r5, [r9]
 800684c:	f1c0 0035 	rsb	r0, r0, #53	; 0x35
 8006850:	f8c8 0000 	str.w	r0, [r8]
 8006854:	4620      	mov	r0, r4
 8006856:	b003      	add	sp, #12
 8006858:	e8bd 83f0 	ldmia.w	sp!, {r4, r5, r6, r7, r8, r9, pc}
 800685c:	f443 1380 	orr.w	r3, r3, #1048576	; 0x100000
 8006860:	e7d5      	b.n	800680e <__d2b+0x2e>
 8006862:	6161      	str	r1, [r4, #20]
 8006864:	e7e5      	b.n	8006832 <__d2b+0x52>
 8006866:	a801      	add	r0, sp, #4
 8006868:	f7ff fd64 	bl	8006334 <__lo0bits>
 800686c:	9b01      	ldr	r3, [sp, #4]
 800686e:	6163      	str	r3, [r4, #20]
 8006870:	2201      	movs	r2, #1
 8006872:	6122      	str	r2, [r4, #16]
 8006874:	3020      	adds	r0, #32
 8006876:	e7e3      	b.n	8006840 <__d2b+0x60>
 8006878:	eb04 0382 	add.w	r3, r4, r2, lsl #2
 800687c:	f2a0 4032 	subw	r0, r0, #1074	; 0x432
 8006880:	f8c9 0000 	str.w	r0, [r9]
 8006884:	6918      	ldr	r0, [r3, #16]
 8006886:	f7ff fd35 	bl	80062f4 <__hi0bits>
 800688a:	ebc0 1042 	rsb	r0, r0, r2, lsl #5
 800688e:	e7df      	b.n	8006850 <__d2b+0x70>
 8006890:	080079ab 	.word	0x080079ab
 8006894:	080079bc 	.word	0x080079bc

08006898 <_calloc_r>:
 8006898:	b513      	push	{r0, r1, r4, lr}
 800689a:	434a      	muls	r2, r1
 800689c:	4611      	mov	r1, r2
 800689e:	9201      	str	r2, [sp, #4]
 80068a0:	f000 f85a 	bl	8006958 <_malloc_r>
 80068a4:	4604      	mov	r4, r0
 80068a6:	b118      	cbz	r0, 80068b0 <_calloc_r+0x18>
 80068a8:	9a01      	ldr	r2, [sp, #4]
 80068aa:	2100      	movs	r1, #0
 80068ac:	f7fe f91c 	bl	8004ae8 <memset>
 80068b0:	4620      	mov	r0, r4
 80068b2:	b002      	add	sp, #8
 80068b4:	bd10      	pop	{r4, pc}
	...

080068b8 <_free_r>:
 80068b8:	b537      	push	{r0, r1, r2, r4, r5, lr}
 80068ba:	2900      	cmp	r1, #0
 80068bc:	d048      	beq.n	8006950 <_free_r+0x98>
 80068be:	f851 3c04 	ldr.w	r3, [r1, #-4]
 80068c2:	9001      	str	r0, [sp, #4]
 80068c4:	2b00      	cmp	r3, #0
 80068c6:	f1a1 0404 	sub.w	r4, r1, #4
 80068ca:	bfb8      	it	lt
 80068cc:	18e4      	addlt	r4, r4, r3
 80068ce:	f000 fa65 	bl	8006d9c <__malloc_lock>
 80068d2:	4a20      	ldr	r2, [pc, #128]	; (8006954 <_free_r+0x9c>)
 80068d4:	9801      	ldr	r0, [sp, #4]
 80068d6:	6813      	ldr	r3, [r2, #0]
 80068d8:	4615      	mov	r5, r2
 80068da:	b933      	cbnz	r3, 80068ea <_free_r+0x32>
 80068dc:	6063      	str	r3, [r4, #4]
 80068de:	6014      	str	r4, [r2, #0]
 80068e0:	b003      	add	sp, #12
 80068e2:	e8bd 4030 	ldmia.w	sp!, {r4, r5, lr}
 80068e6:	f000 ba5f 	b.w	8006da8 <__malloc_unlock>
 80068ea:	42a3      	cmp	r3, r4
 80068ec:	d90b      	bls.n	8006906 <_free_r+0x4e>
 80068ee:	6821      	ldr	r1, [r4, #0]
 80068f0:	1862      	adds	r2, r4, r1
 80068f2:	4293      	cmp	r3, r2
 80068f4:	bf04      	itt	eq
 80068f6:	681a      	ldreq	r2, [r3, #0]
 80068f8:	685b      	ldreq	r3, [r3, #4]
 80068fa:	6063      	str	r3, [r4, #4]
 80068fc:	bf04      	itt	eq
 80068fe:	1852      	addeq	r2, r2, r1
 8006900:	6022      	streq	r2, [r4, #0]
 8006902:	602c      	str	r4, [r5, #0]
 8006904:	e7ec      	b.n	80068e0 <_free_r+0x28>
 8006906:	461a      	mov	r2, r3
 8006908:	685b      	ldr	r3, [r3, #4]
 800690a:	b10b      	cbz	r3, 8006910 <_free_r+0x58>
 800690c:	42a3      	cmp	r3, r4
 800690e:	d9fa      	bls.n	8006906 <_free_r+0x4e>
 8006910:	6811      	ldr	r1, [r2, #0]
 8006912:	1855      	adds	r5, r2, r1
 8006914:	42a5      	cmp	r5, r4
 8006916:	d10b      	bne.n	8006930 <_free_r+0x78>
 8006918:	6824      	ldr	r4, [r4, #0]
 800691a:	4421      	add	r1, r4
 800691c:	1854      	adds	r4, r2, r1
 800691e:	42a3      	cmp	r3, r4
 8006920:	6011      	str	r1, [r2, #0]
 8006922:	d1dd      	bne.n	80068e0 <_free_r+0x28>
 8006924:	681c      	ldr	r4, [r3, #0]
 8006926:	685b      	ldr	r3, [r3, #4]
 8006928:	6053      	str	r3, [r2, #4]
 800692a:	4421      	add	r1, r4
 800692c:	6011      	str	r1, [r2, #0]
 800692e:	e7d7      	b.n	80068e0 <_free_r+0x28>
 8006930:	d902      	bls.n	8006938 <_free_r+0x80>
 8006932:	230c      	movs	r3, #12
 8006934:	6003      	str	r3, [r0, #0]
 8006936:	e7d3      	b.n	80068e0 <_free_r+0x28>
 8006938:	6825      	ldr	r5, [r4, #0]
 800693a:	1961      	adds	r1, r4, r5
 800693c:	428b      	cmp	r3, r1
 800693e:	bf04      	itt	eq
 8006940:	6819      	ldreq	r1, [r3, #0]
 8006942:	685b      	ldreq	r3, [r3, #4]
 8006944:	6063      	str	r3, [r4, #4]
 8006946:	bf04      	itt	eq
 8006948:	1949      	addeq	r1, r1, r5
 800694a:	6021      	streq	r1, [r4, #0]
 800694c:	6054      	str	r4, [r2, #4]
 800694e:	e7c7      	b.n	80068e0 <_free_r+0x28>
 8006950:	b003      	add	sp, #12
 8006952:	bd30      	pop	{r4, r5, pc}
 8006954:	2000022c 	.word	0x2000022c

08006958 <_malloc_r>:
 8006958:	b5f8      	push	{r3, r4, r5, r6, r7, lr}
 800695a:	1ccd      	adds	r5, r1, #3
 800695c:	f025 0503 	bic.w	r5, r5, #3
 8006960:	3508      	adds	r5, #8
 8006962:	2d0c      	cmp	r5, #12
 8006964:	bf38      	it	cc
 8006966:	250c      	movcc	r5, #12
 8006968:	2d00      	cmp	r5, #0
 800696a:	4606      	mov	r6, r0
 800696c:	db01      	blt.n	8006972 <_malloc_r+0x1a>
 800696e:	42a9      	cmp	r1, r5
 8006970:	d903      	bls.n	800697a <_malloc_r+0x22>
 8006972:	230c      	movs	r3, #12
 8006974:	6033      	str	r3, [r6, #0]
 8006976:	2000      	movs	r0, #0
 8006978:	bdf8      	pop	{r3, r4, r5, r6, r7, pc}
 800697a:	f000 fa0f 	bl	8006d9c <__malloc_lock>
 800697e:	4921      	ldr	r1, [pc, #132]	; (8006a04 <_malloc_r+0xac>)
 8006980:	680a      	ldr	r2, [r1, #0]
 8006982:	4614      	mov	r4, r2
 8006984:	b99c      	cbnz	r4, 80069ae <_malloc_r+0x56>
 8006986:	4f20      	ldr	r7, [pc, #128]	; (8006a08 <_malloc_r+0xb0>)
 8006988:	683b      	ldr	r3, [r7, #0]
 800698a:	b923      	cbnz	r3, 8006996 <_malloc_r+0x3e>
 800698c:	4621      	mov	r1, r4
 800698e:	4630      	mov	r0, r6
 8006990:	f000 f998 	bl	8006cc4 <_sbrk_r>
 8006994:	6038      	str	r0, [r7, #0]
 8006996:	4629      	mov	r1, r5
 8006998:	4630      	mov	r0, r6
 800699a:	f000 f993 	bl	8006cc4 <_sbrk_r>
 800699e:	1c43      	adds	r3, r0, #1
 80069a0:	d123      	bne.n	80069ea <_malloc_r+0x92>
 80069a2:	230c      	movs	r3, #12
 80069a4:	6033      	str	r3, [r6, #0]
 80069a6:	4630      	mov	r0, r6
 80069a8:	f000 f9fe 	bl	8006da8 <__malloc_unlock>
 80069ac:	e7e3      	b.n	8006976 <_malloc_r+0x1e>
 80069ae:	6823      	ldr	r3, [r4, #0]
 80069b0:	1b5b      	subs	r3, r3, r5
 80069b2:	d417      	bmi.n	80069e4 <_malloc_r+0x8c>
 80069b4:	2b0b      	cmp	r3, #11
 80069b6:	d903      	bls.n	80069c0 <_malloc_r+0x68>
 80069b8:	6023      	str	r3, [r4, #0]
 80069ba:	441c      	add	r4, r3
 80069bc:	6025      	str	r5, [r4, #0]
 80069be:	e004      	b.n	80069ca <_malloc_r+0x72>
 80069c0:	6863      	ldr	r3, [r4, #4]
 80069c2:	42a2      	cmp	r2, r4
 80069c4:	bf0c      	ite	eq
 80069c6:	600b      	streq	r3, [r1, #0]
 80069c8:	6053      	strne	r3, [r2, #4]
 80069ca:	4630      	mov	r0, r6
 80069cc:	f000 f9ec 	bl	8006da8 <__malloc_unlock>
 80069d0:	f104 000b 	add.w	r0, r4, #11
 80069d4:	1d23      	adds	r3, r4, #4
 80069d6:	f020 0007 	bic.w	r0, r0, #7
 80069da:	1ac2      	subs	r2, r0, r3
 80069dc:	d0cc      	beq.n	8006978 <_malloc_r+0x20>
 80069de:	1a1b      	subs	r3, r3, r0
 80069e0:	50a3      	str	r3, [r4, r2]
 80069e2:	e7c9      	b.n	8006978 <_malloc_r+0x20>
 80069e4:	4622      	mov	r2, r4
 80069e6:	6864      	ldr	r4, [r4, #4]
 80069e8:	e7cc      	b.n	8006984 <_malloc_r+0x2c>
 80069ea:	1cc4      	adds	r4, r0, #3
 80069ec:	f024 0403 	bic.w	r4, r4, #3
 80069f0:	42a0      	cmp	r0, r4
 80069f2:	d0e3      	beq.n	80069bc <_malloc_r+0x64>
 80069f4:	1a21      	subs	r1, r4, r0
 80069f6:	4630      	mov	r0, r6
 80069f8:	f000 f964 	bl	8006cc4 <_sbrk_r>
 80069fc:	3001      	adds	r0, #1
 80069fe:	d1dd      	bne.n	80069bc <_malloc_r+0x64>
 8006a00:	e7cf      	b.n	80069a2 <_malloc_r+0x4a>
 8006a02:	bf00      	nop
 8006a04:	2000022c 	.word	0x2000022c
 8006a08:	20000230 	.word	0x20000230

08006a0c <__ssputs_r>:
 8006a0c:	e92d 47f0 	stmdb	sp!, {r4, r5, r6, r7, r8, r9, sl, lr}
 8006a10:	688e      	ldr	r6, [r1, #8]
 8006a12:	429e      	cmp	r6, r3
 8006a14:	4682      	mov	sl, r0
 8006a16:	460c      	mov	r4, r1
 8006a18:	4690      	mov	r8, r2
 8006a1a:	461f      	mov	r7, r3
 8006a1c:	d838      	bhi.n	8006a90 <__ssputs_r+0x84>
 8006a1e:	898a      	ldrh	r2, [r1, #12]
 8006a20:	f412 6f90 	tst.w	r2, #1152	; 0x480
 8006a24:	d032      	beq.n	8006a8c <__ssputs_r+0x80>
 8006a26:	6825      	ldr	r5, [r4, #0]
 8006a28:	6909      	ldr	r1, [r1, #16]
 8006a2a:	eba5 0901 	sub.w	r9, r5, r1
 8006a2e:	6965      	ldr	r5, [r4, #20]
 8006a30:	eb05 0545 	add.w	r5, r5, r5, lsl #1
 8006a34:	eb05 75d5 	add.w	r5, r5, r5, lsr #31
 8006a38:	3301      	adds	r3, #1
 8006a3a:	444b      	add	r3, r9
 8006a3c:	106d      	asrs	r5, r5, #1
 8006a3e:	429d      	cmp	r5, r3
 8006a40:	bf38      	it	cc
 8006a42:	461d      	movcc	r5, r3
 8006a44:	0553      	lsls	r3, r2, #21
 8006a46:	d531      	bpl.n	8006aac <__ssputs_r+0xa0>
 8006a48:	4629      	mov	r1, r5
 8006a4a:	f7ff ff85 	bl	8006958 <_malloc_r>
 8006a4e:	4606      	mov	r6, r0
 8006a50:	b950      	cbnz	r0, 8006a68 <__ssputs_r+0x5c>
 8006a52:	230c      	movs	r3, #12
 8006a54:	f8ca 3000 	str.w	r3, [sl]
 8006a58:	89a3      	ldrh	r3, [r4, #12]
 8006a5a:	f043 0340 	orr.w	r3, r3, #64	; 0x40
 8006a5e:	81a3      	strh	r3, [r4, #12]
 8006a60:	f04f 30ff 	mov.w	r0, #4294967295
 8006a64:	e8bd 87f0 	ldmia.w	sp!, {r4, r5, r6, r7, r8, r9, sl, pc}
 8006a68:	6921      	ldr	r1, [r4, #16]
 8006a6a:	464a      	mov	r2, r9
 8006a6c:	f7ff fb88 	bl	8006180 <memcpy>
 8006a70:	89a3      	ldrh	r3, [r4, #12]
 8006a72:	f423 6390 	bic.w	r3, r3, #1152	; 0x480
 8006a76:	f043 0380 	orr.w	r3, r3, #128	; 0x80
 8006a7a:	81a3      	strh	r3, [r4, #12]
 8006a7c:	6126      	str	r6, [r4, #16]
 8006a7e:	6165      	str	r5, [r4, #20]
 8006a80:	444e      	add	r6, r9
 8006a82:	eba5 0509 	sub.w	r5, r5, r9
 8006a86:	6026      	str	r6, [r4, #0]
 8006a88:	60a5      	str	r5, [r4, #8]
 8006a8a:	463e      	mov	r6, r7
 8006a8c:	42be      	cmp	r6, r7
 8006a8e:	d900      	bls.n	8006a92 <__ssputs_r+0x86>
 8006a90:	463e      	mov	r6, r7
 8006a92:	4632      	mov	r2, r6
 8006a94:	6820      	ldr	r0, [r4, #0]
 8006a96:	4641      	mov	r1, r8
 8006a98:	f000 f966 	bl	8006d68 <memmove>
 8006a9c:	68a3      	ldr	r3, [r4, #8]
 8006a9e:	6822      	ldr	r2, [r4, #0]
 8006aa0:	1b9b      	subs	r3, r3, r6
 8006aa2:	4432      	add	r2, r6
 8006aa4:	60a3      	str	r3, [r4, #8]
 8006aa6:	6022      	str	r2, [r4, #0]
 8006aa8:	2000      	movs	r0, #0
 8006aaa:	e7db      	b.n	8006a64 <__ssputs_r+0x58>
 8006aac:	462a      	mov	r2, r5
 8006aae:	f000 f981 	bl	8006db4 <_realloc_r>
 8006ab2:	4606      	mov	r6, r0
 8006ab4:	2800      	cmp	r0, #0
 8006ab6:	d1e1      	bne.n	8006a7c <__ssputs_r+0x70>
 8006ab8:	6921      	ldr	r1, [r4, #16]
 8006aba:	4650      	mov	r0, sl
 8006abc:	f7ff fefc 	bl	80068b8 <_free_r>
 8006ac0:	e7c7      	b.n	8006a52 <__ssputs_r+0x46>
	...

08006ac4 <_svfiprintf_r>:
 8006ac4:	e92d 4ff0 	stmdb	sp!, {r4, r5, r6, r7, r8, r9, sl, fp, lr}
 8006ac8:	4698      	mov	r8, r3
 8006aca:	898b      	ldrh	r3, [r1, #12]
 8006acc:	061b      	lsls	r3, r3, #24
 8006ace:	b09d      	sub	sp, #116	; 0x74
 8006ad0:	4607      	mov	r7, r0
 8006ad2:	460d      	mov	r5, r1
 8006ad4:	4614      	mov	r4, r2
 8006ad6:	d50e      	bpl.n	8006af6 <_svfiprintf_r+0x32>
 8006ad8:	690b      	ldr	r3, [r1, #16]
 8006ada:	b963      	cbnz	r3, 8006af6 <_svfiprintf_r+0x32>
 8006adc:	2140      	movs	r1, #64	; 0x40
 8006ade:	f7ff ff3b 	bl	8006958 <_malloc_r>
 8006ae2:	6028      	str	r0, [r5, #0]
 8006ae4:	6128      	str	r0, [r5, #16]
 8006ae6:	b920      	cbnz	r0, 8006af2 <_svfiprintf_r+0x2e>
 8006ae8:	230c      	movs	r3, #12
 8006aea:	603b      	str	r3, [r7, #0]
 8006aec:	f04f 30ff 	mov.w	r0, #4294967295
 8006af0:	e0d1      	b.n	8006c96 <_svfiprintf_r+0x1d2>
 8006af2:	2340      	movs	r3, #64	; 0x40
 8006af4:	616b      	str	r3, [r5, #20]
 8006af6:	2300      	movs	r3, #0
 8006af8:	9309      	str	r3, [sp, #36]	; 0x24
 8006afa:	2320      	movs	r3, #32
 8006afc:	f88d 3029 	strb.w	r3, [sp, #41]	; 0x29
 8006b00:	f8cd 800c 	str.w	r8, [sp, #12]
 8006b04:	2330      	movs	r3, #48	; 0x30
 8006b06:	f8df 81a8 	ldr.w	r8, [pc, #424]	; 8006cb0 <_svfiprintf_r+0x1ec>
 8006b0a:	f88d 302a 	strb.w	r3, [sp, #42]	; 0x2a
 8006b0e:	f04f 0901 	mov.w	r9, #1
 8006b12:	4623      	mov	r3, r4
 8006b14:	469a      	mov	sl, r3
 8006b16:	f813 2b01 	ldrb.w	r2, [r3], #1
 8006b1a:	b10a      	cbz	r2, 8006b20 <_svfiprintf_r+0x5c>
 8006b1c:	2a25      	cmp	r2, #37	; 0x25
 8006b1e:	d1f9      	bne.n	8006b14 <_svfiprintf_r+0x50>
 8006b20:	ebba 0b04 	subs.w	fp, sl, r4
 8006b24:	d00b      	beq.n	8006b3e <_svfiprintf_r+0x7a>
 8006b26:	465b      	mov	r3, fp
 8006b28:	4622      	mov	r2, r4
 8006b2a:	4629      	mov	r1, r5
 8006b2c:	4638      	mov	r0, r7
 8006b2e:	f7ff ff6d 	bl	8006a0c <__ssputs_r>
 8006b32:	3001      	adds	r0, #1
 8006b34:	f000 80aa 	beq.w	8006c8c <_svfiprintf_r+0x1c8>
 8006b38:	9a09      	ldr	r2, [sp, #36]	; 0x24
 8006b3a:	445a      	add	r2, fp
 8006b3c:	9209      	str	r2, [sp, #36]	; 0x24
 8006b3e:	f89a 3000 	ldrb.w	r3, [sl]
 8006b42:	2b00      	cmp	r3, #0
 8006b44:	f000 80a2 	beq.w	8006c8c <_svfiprintf_r+0x1c8>
 8006b48:	2300      	movs	r3, #0
 8006b4a:	f04f 32ff 	mov.w	r2, #4294967295
 8006b4e:	e9cd 2305 	strd	r2, r3, [sp, #20]
 8006b52:	f10a 0a01 	add.w	sl, sl, #1
 8006b56:	9304      	str	r3, [sp, #16]
 8006b58:	9307      	str	r3, [sp, #28]
 8006b5a:	f88d 3053 	strb.w	r3, [sp, #83]	; 0x53
 8006b5e:	931a      	str	r3, [sp, #104]	; 0x68
 8006b60:	4654      	mov	r4, sl
 8006b62:	2205      	movs	r2, #5
 8006b64:	f814 1b01 	ldrb.w	r1, [r4], #1
 8006b68:	4851      	ldr	r0, [pc, #324]	; (8006cb0 <_svfiprintf_r+0x1ec>)
 8006b6a:	f7f9 fb59 	bl	8000220 <memchr>
 8006b6e:	9a04      	ldr	r2, [sp, #16]
 8006b70:	b9d8      	cbnz	r0, 8006baa <_svfiprintf_r+0xe6>
 8006b72:	06d0      	lsls	r0, r2, #27
 8006b74:	bf44      	itt	mi
 8006b76:	2320      	movmi	r3, #32
 8006b78:	f88d 3053 	strbmi.w	r3, [sp, #83]	; 0x53
 8006b7c:	0711      	lsls	r1, r2, #28
 8006b7e:	bf44      	itt	mi
 8006b80:	232b      	movmi	r3, #43	; 0x2b
 8006b82:	f88d 3053 	strbmi.w	r3, [sp, #83]	; 0x53
 8006b86:	f89a 3000 	ldrb.w	r3, [sl]
 8006b8a:	2b2a      	cmp	r3, #42	; 0x2a
 8006b8c:	d015      	beq.n	8006bba <_svfiprintf_r+0xf6>
 8006b8e:	9a07      	ldr	r2, [sp, #28]
 8006b90:	4654      	mov	r4, sl
 8006b92:	2000      	movs	r0, #0
 8006b94:	f04f 0c0a 	mov.w	ip, #10
 8006b98:	4621      	mov	r1, r4
 8006b9a:	f811 3b01 	ldrb.w	r3, [r1], #1
 8006b9e:	3b30      	subs	r3, #48	; 0x30
 8006ba0:	2b09      	cmp	r3, #9
 8006ba2:	d94e      	bls.n	8006c42 <_svfiprintf_r+0x17e>
 8006ba4:	b1b0      	cbz	r0, 8006bd4 <_svfiprintf_r+0x110>
 8006ba6:	9207      	str	r2, [sp, #28]
 8006ba8:	e014      	b.n	8006bd4 <_svfiprintf_r+0x110>
 8006baa:	eba0 0308 	sub.w	r3, r0, r8
 8006bae:	fa09 f303 	lsl.w	r3, r9, r3
 8006bb2:	4313      	orrs	r3, r2
 8006bb4:	9304      	str	r3, [sp, #16]
 8006bb6:	46a2      	mov	sl, r4
 8006bb8:	e7d2      	b.n	8006b60 <_svfiprintf_r+0x9c>
 8006bba:	9b03      	ldr	r3, [sp, #12]
 8006bbc:	1d19      	adds	r1, r3, #4
 8006bbe:	681b      	ldr	r3, [r3, #0]
 8006bc0:	9103      	str	r1, [sp, #12]
 8006bc2:	2b00      	cmp	r3, #0
 8006bc4:	bfbb      	ittet	lt
 8006bc6:	425b      	neglt	r3, r3
 8006bc8:	f042 0202 	orrlt.w	r2, r2, #2
 8006bcc:	9307      	strge	r3, [sp, #28]
 8006bce:	9307      	strlt	r3, [sp, #28]
 8006bd0:	bfb8      	it	lt
 8006bd2:	9204      	strlt	r2, [sp, #16]
 8006bd4:	7823      	ldrb	r3, [r4, #0]
 8006bd6:	2b2e      	cmp	r3, #46	; 0x2e
 8006bd8:	d10c      	bne.n	8006bf4 <_svfiprintf_r+0x130>
 8006bda:	7863      	ldrb	r3, [r4, #1]
 8006bdc:	2b2a      	cmp	r3, #42	; 0x2a
 8006bde:	d135      	bne.n	8006c4c <_svfiprintf_r+0x188>
 8006be0:	9b03      	ldr	r3, [sp, #12]
 8006be2:	1d1a      	adds	r2, r3, #4
 8006be4:	681b      	ldr	r3, [r3, #0]
 8006be6:	9203      	str	r2, [sp, #12]
 8006be8:	2b00      	cmp	r3, #0
 8006bea:	bfb8      	it	lt
 8006bec:	f04f 33ff 	movlt.w	r3, #4294967295
 8006bf0:	3402      	adds	r4, #2
 8006bf2:	9305      	str	r3, [sp, #20]
 8006bf4:	f8df a0c8 	ldr.w	sl, [pc, #200]	; 8006cc0 <_svfiprintf_r+0x1fc>
 8006bf8:	7821      	ldrb	r1, [r4, #0]
 8006bfa:	2203      	movs	r2, #3
 8006bfc:	4650      	mov	r0, sl
 8006bfe:	f7f9 fb0f 	bl	8000220 <memchr>
 8006c02:	b140      	cbz	r0, 8006c16 <_svfiprintf_r+0x152>
 8006c04:	2340      	movs	r3, #64	; 0x40
 8006c06:	eba0 000a 	sub.w	r0, r0, sl
 8006c0a:	fa03 f000 	lsl.w	r0, r3, r0
 8006c0e:	9b04      	ldr	r3, [sp, #16]
 8006c10:	4303      	orrs	r3, r0
 8006c12:	3401      	adds	r4, #1
 8006c14:	9304      	str	r3, [sp, #16]
 8006c16:	f814 1b01 	ldrb.w	r1, [r4], #1
 8006c1a:	4826      	ldr	r0, [pc, #152]	; (8006cb4 <_svfiprintf_r+0x1f0>)
 8006c1c:	f88d 1028 	strb.w	r1, [sp, #40]	; 0x28
 8006c20:	2206      	movs	r2, #6
 8006c22:	f7f9 fafd 	bl	8000220 <memchr>
 8006c26:	2800      	cmp	r0, #0
 8006c28:	d038      	beq.n	8006c9c <_svfiprintf_r+0x1d8>
 8006c2a:	4b23      	ldr	r3, [pc, #140]	; (8006cb8 <_svfiprintf_r+0x1f4>)
 8006c2c:	bb1b      	cbnz	r3, 8006c76 <_svfiprintf_r+0x1b2>
 8006c2e:	9b03      	ldr	r3, [sp, #12]
 8006c30:	3307      	adds	r3, #7
 8006c32:	f023 0307 	bic.w	r3, r3, #7
 8006c36:	3308      	adds	r3, #8
 8006c38:	9303      	str	r3, [sp, #12]
 8006c3a:	9b09      	ldr	r3, [sp, #36]	; 0x24
 8006c3c:	4433      	add	r3, r6
 8006c3e:	9309      	str	r3, [sp, #36]	; 0x24
 8006c40:	e767      	b.n	8006b12 <_svfiprintf_r+0x4e>
 8006c42:	fb0c 3202 	mla	r2, ip, r2, r3
 8006c46:	460c      	mov	r4, r1
 8006c48:	2001      	movs	r0, #1
 8006c4a:	e7a5      	b.n	8006b98 <_svfiprintf_r+0xd4>
 8006c4c:	2300      	movs	r3, #0
 8006c4e:	3401      	adds	r4, #1
 8006c50:	9305      	str	r3, [sp, #20]
 8006c52:	4619      	mov	r1, r3
 8006c54:	f04f 0c0a 	mov.w	ip, #10
 8006c58:	4620      	mov	r0, r4
 8006c5a:	f810 2b01 	ldrb.w	r2, [r0], #1
 8006c5e:	3a30      	subs	r2, #48	; 0x30
 8006c60:	2a09      	cmp	r2, #9
 8006c62:	d903      	bls.n	8006c6c <_svfiprintf_r+0x1a8>
 8006c64:	2b00      	cmp	r3, #0
 8006c66:	d0c5      	beq.n	8006bf4 <_svfiprintf_r+0x130>
 8006c68:	9105      	str	r1, [sp, #20]
 8006c6a:	e7c3      	b.n	8006bf4 <_svfiprintf_r+0x130>
 8006c6c:	fb0c 2101 	mla	r1, ip, r1, r2
 8006c70:	4604      	mov	r4, r0
 8006c72:	2301      	movs	r3, #1
 8006c74:	e7f0      	b.n	8006c58 <_svfiprintf_r+0x194>
 8006c76:	ab03      	add	r3, sp, #12
 8006c78:	9300      	str	r3, [sp, #0]
 8006c7a:	462a      	mov	r2, r5
 8006c7c:	4b0f      	ldr	r3, [pc, #60]	; (8006cbc <_svfiprintf_r+0x1f8>)
 8006c7e:	a904      	add	r1, sp, #16
 8006c80:	4638      	mov	r0, r7
 8006c82:	f7fd ffd9 	bl	8004c38 <_printf_float>
 8006c86:	1c42      	adds	r2, r0, #1
 8006c88:	4606      	mov	r6, r0
 8006c8a:	d1d6      	bne.n	8006c3a <_svfiprintf_r+0x176>
 8006c8c:	89ab      	ldrh	r3, [r5, #12]
 8006c8e:	065b      	lsls	r3, r3, #25
 8006c90:	f53f af2c 	bmi.w	8006aec <_svfiprintf_r+0x28>
 8006c94:	9809      	ldr	r0, [sp, #36]	; 0x24
 8006c96:	b01d      	add	sp, #116	; 0x74
 8006c98:	e8bd 8ff0 	ldmia.w	sp!, {r4, r5, r6, r7, r8, r9, sl, fp, pc}
 8006c9c:	ab03      	add	r3, sp, #12
 8006c9e:	9300      	str	r3, [sp, #0]
 8006ca0:	462a      	mov	r2, r5
 8006ca2:	4b06      	ldr	r3, [pc, #24]	; (8006cbc <_svfiprintf_r+0x1f8>)
 8006ca4:	a904      	add	r1, sp, #16
 8006ca6:	4638      	mov	r0, r7
 8006ca8:	f7fe fa6a 	bl	8005180 <_printf_i>
 8006cac:	e7eb      	b.n	8006c86 <_svfiprintf_r+0x1c2>
 8006cae:	bf00      	nop
 8006cb0:	08007b1c 	.word	0x08007b1c
 8006cb4:	08007b26 	.word	0x08007b26
 8006cb8:	08004c39 	.word	0x08004c39
 8006cbc:	08006a0d 	.word	0x08006a0d
 8006cc0:	08007b22 	.word	0x08007b22

08006cc4 <_sbrk_r>:
 8006cc4:	b538      	push	{r3, r4, r5, lr}
 8006cc6:	4d06      	ldr	r5, [pc, #24]	; (8006ce0 <_sbrk_r+0x1c>)
 8006cc8:	2300      	movs	r3, #0
 8006cca:	4604      	mov	r4, r0
 8006ccc:	4608      	mov	r0, r1
 8006cce:	602b      	str	r3, [r5, #0]
 8006cd0:	f7fa fd72 	bl	80017b8 <_sbrk>
 8006cd4:	1c43      	adds	r3, r0, #1
 8006cd6:	d102      	bne.n	8006cde <_sbrk_r+0x1a>
 8006cd8:	682b      	ldr	r3, [r5, #0]
 8006cda:	b103      	cbz	r3, 8006cde <_sbrk_r+0x1a>
 8006cdc:	6023      	str	r3, [r4, #0]
 8006cde:	bd38      	pop	{r3, r4, r5, pc}
 8006ce0:	20000398 	.word	0x20000398

08006ce4 <__assert_func>:
 8006ce4:	b51f      	push	{r0, r1, r2, r3, r4, lr}
 8006ce6:	4614      	mov	r4, r2
 8006ce8:	461a      	mov	r2, r3
 8006cea:	4b09      	ldr	r3, [pc, #36]	; (8006d10 <__assert_func+0x2c>)
 8006cec:	681b      	ldr	r3, [r3, #0]
 8006cee:	4605      	mov	r5, r0
 8006cf0:	68d8      	ldr	r0, [r3, #12]
 8006cf2:	b14c      	cbz	r4, 8006d08 <__assert_func+0x24>
 8006cf4:	4b07      	ldr	r3, [pc, #28]	; (8006d14 <__assert_func+0x30>)
 8006cf6:	9100      	str	r1, [sp, #0]
 8006cf8:	e9cd 3401 	strd	r3, r4, [sp, #4]
 8006cfc:	4906      	ldr	r1, [pc, #24]	; (8006d18 <__assert_func+0x34>)
 8006cfe:	462b      	mov	r3, r5
 8006d00:	f000 f80e 	bl	8006d20 <fiprintf>
 8006d04:	f000 faa4 	bl	8007250 <abort>
 8006d08:	4b04      	ldr	r3, [pc, #16]	; (8006d1c <__assert_func+0x38>)
 8006d0a:	461c      	mov	r4, r3
 8006d0c:	e7f3      	b.n	8006cf6 <__assert_func+0x12>
 8006d0e:	bf00      	nop
 8006d10:	20000010 	.word	0x20000010
 8006d14:	08007b2d 	.word	0x08007b2d
 8006d18:	08007b3a 	.word	0x08007b3a
 8006d1c:	08007b68 	.word	0x08007b68

08006d20 <fiprintf>:
 8006d20:	b40e      	push	{r1, r2, r3}
 8006d22:	b503      	push	{r0, r1, lr}
 8006d24:	4601      	mov	r1, r0
 8006d26:	ab03      	add	r3, sp, #12
 8006d28:	4805      	ldr	r0, [pc, #20]	; (8006d40 <fiprintf+0x20>)
 8006d2a:	f853 2b04 	ldr.w	r2, [r3], #4
 8006d2e:	6800      	ldr	r0, [r0, #0]
 8006d30:	9301      	str	r3, [sp, #4]
 8006d32:	f000 f88f 	bl	8006e54 <_vfiprintf_r>
 8006d36:	b002      	add	sp, #8
 8006d38:	f85d eb04 	ldr.w	lr, [sp], #4
 8006d3c:	b003      	add	sp, #12
 8006d3e:	4770      	bx	lr
 8006d40:	20000010 	.word	0x20000010

08006d44 <__ascii_mbtowc>:
 8006d44:	b082      	sub	sp, #8
 8006d46:	b901      	cbnz	r1, 8006d4a <__ascii_mbtowc+0x6>
 8006d48:	a901      	add	r1, sp, #4
 8006d4a:	b142      	cbz	r2, 8006d5e <__ascii_mbtowc+0x1a>
 8006d4c:	b14b      	cbz	r3, 8006d62 <__ascii_mbtowc+0x1e>
 8006d4e:	7813      	ldrb	r3, [r2, #0]
 8006d50:	600b      	str	r3, [r1, #0]
 8006d52:	7812      	ldrb	r2, [r2, #0]
 8006d54:	1e10      	subs	r0, r2, #0
 8006d56:	bf18      	it	ne
 8006d58:	2001      	movne	r0, #1
 8006d5a:	b002      	add	sp, #8
 8006d5c:	4770      	bx	lr
 8006d5e:	4610      	mov	r0, r2
 8006d60:	e7fb      	b.n	8006d5a <__ascii_mbtowc+0x16>
 8006d62:	f06f 0001 	mvn.w	r0, #1
 8006d66:	e7f8      	b.n	8006d5a <__ascii_mbtowc+0x16>

08006d68 <memmove>:
 8006d68:	4288      	cmp	r0, r1
 8006d6a:	b510      	push	{r4, lr}
 8006d6c:	eb01 0402 	add.w	r4, r1, r2
 8006d70:	d902      	bls.n	8006d78 <memmove+0x10>
 8006d72:	4284      	cmp	r4, r0
 8006d74:	4623      	mov	r3, r4
 8006d76:	d807      	bhi.n	8006d88 <memmove+0x20>
 8006d78:	1e43      	subs	r3, r0, #1
 8006d7a:	42a1      	cmp	r1, r4
 8006d7c:	d008      	beq.n	8006d90 <memmove+0x28>
 8006d7e:	f811 2b01 	ldrb.w	r2, [r1], #1
 8006d82:	f803 2f01 	strb.w	r2, [r3, #1]!
 8006d86:	e7f8      	b.n	8006d7a <memmove+0x12>
 8006d88:	4402      	add	r2, r0
 8006d8a:	4601      	mov	r1, r0
 8006d8c:	428a      	cmp	r2, r1
 8006d8e:	d100      	bne.n	8006d92 <memmove+0x2a>
 8006d90:	bd10      	pop	{r4, pc}
 8006d92:	f813 4d01 	ldrb.w	r4, [r3, #-1]!
 8006d96:	f802 4d01 	strb.w	r4, [r2, #-1]!
 8006d9a:	e7f7      	b.n	8006d8c <memmove+0x24>

08006d9c <__malloc_lock>:
 8006d9c:	4801      	ldr	r0, [pc, #4]	; (8006da4 <__malloc_lock+0x8>)
 8006d9e:	f000 bc17 	b.w	80075d0 <__retarget_lock_acquire_recursive>
 8006da2:	bf00      	nop
 8006da4:	200003a0 	.word	0x200003a0

08006da8 <__malloc_unlock>:
 8006da8:	4801      	ldr	r0, [pc, #4]	; (8006db0 <__malloc_unlock+0x8>)
 8006daa:	f000 bc12 	b.w	80075d2 <__retarget_lock_release_recursive>
 8006dae:	bf00      	nop
 8006db0:	200003a0 	.word	0x200003a0

08006db4 <_realloc_r>:
 8006db4:	b5f8      	push	{r3, r4, r5, r6, r7, lr}
 8006db6:	4607      	mov	r7, r0
 8006db8:	4614      	mov	r4, r2
 8006dba:	460e      	mov	r6, r1
 8006dbc:	b921      	cbnz	r1, 8006dc8 <_realloc_r+0x14>
 8006dbe:	e8bd 40f8 	ldmia.w	sp!, {r3, r4, r5, r6, r7, lr}
 8006dc2:	4611      	mov	r1, r2
 8006dc4:	f7ff bdc8 	b.w	8006958 <_malloc_r>
 8006dc8:	b922      	cbnz	r2, 8006dd4 <_realloc_r+0x20>
 8006dca:	f7ff fd75 	bl	80068b8 <_free_r>
 8006dce:	4625      	mov	r5, r4
 8006dd0:	4628      	mov	r0, r5
 8006dd2:	bdf8      	pop	{r3, r4, r5, r6, r7, pc}
 8006dd4:	f000 fc62 	bl	800769c <_malloc_usable_size_r>
 8006dd8:	42a0      	cmp	r0, r4
 8006dda:	d20f      	bcs.n	8006dfc <_realloc_r+0x48>
 8006ddc:	4621      	mov	r1, r4
 8006dde:	4638      	mov	r0, r7
 8006de0:	f7ff fdba 	bl	8006958 <_malloc_r>
 8006de4:	4605      	mov	r5, r0
 8006de6:	2800      	cmp	r0, #0
 8006de8:	d0f2      	beq.n	8006dd0 <_realloc_r+0x1c>
 8006dea:	4631      	mov	r1, r6
 8006dec:	4622      	mov	r2, r4
 8006dee:	f7ff f9c7 	bl	8006180 <memcpy>
 8006df2:	4631      	mov	r1, r6
 8006df4:	4638      	mov	r0, r7
 8006df6:	f7ff fd5f 	bl	80068b8 <_free_r>
 8006dfa:	e7e9      	b.n	8006dd0 <_realloc_r+0x1c>
 8006dfc:	4635      	mov	r5, r6
 8006dfe:	e7e7      	b.n	8006dd0 <_realloc_r+0x1c>

08006e00 <__sfputc_r>:
 8006e00:	6893      	ldr	r3, [r2, #8]
 8006e02:	3b01      	subs	r3, #1
 8006e04:	2b00      	cmp	r3, #0
 8006e06:	b410      	push	{r4}
 8006e08:	6093      	str	r3, [r2, #8]
 8006e0a:	da08      	bge.n	8006e1e <__sfputc_r+0x1e>
 8006e0c:	6994      	ldr	r4, [r2, #24]
 8006e0e:	42a3      	cmp	r3, r4
 8006e10:	db01      	blt.n	8006e16 <__sfputc_r+0x16>
 8006e12:	290a      	cmp	r1, #10
 8006e14:	d103      	bne.n	8006e1e <__sfputc_r+0x1e>
 8006e16:	f85d 4b04 	ldr.w	r4, [sp], #4
 8006e1a:	f000 b94b 	b.w	80070b4 <__swbuf_r>
 8006e1e:	6813      	ldr	r3, [r2, #0]
 8006e20:	1c58      	adds	r0, r3, #1
 8006e22:	6010      	str	r0, [r2, #0]
 8006e24:	7019      	strb	r1, [r3, #0]
 8006e26:	4608      	mov	r0, r1
 8006e28:	f85d 4b04 	ldr.w	r4, [sp], #4
 8006e2c:	4770      	bx	lr

08006e2e <__sfputs_r>:
 8006e2e:	b5f8      	push	{r3, r4, r5, r6, r7, lr}
 8006e30:	4606      	mov	r6, r0
 8006e32:	460f      	mov	r7, r1
 8006e34:	4614      	mov	r4, r2
 8006e36:	18d5      	adds	r5, r2, r3
 8006e38:	42ac      	cmp	r4, r5
 8006e3a:	d101      	bne.n	8006e40 <__sfputs_r+0x12>
 8006e3c:	2000      	movs	r0, #0
 8006e3e:	e007      	b.n	8006e50 <__sfputs_r+0x22>
 8006e40:	f814 1b01 	ldrb.w	r1, [r4], #1
 8006e44:	463a      	mov	r2, r7
 8006e46:	4630      	mov	r0, r6
 8006e48:	f7ff ffda 	bl	8006e00 <__sfputc_r>
 8006e4c:	1c43      	adds	r3, r0, #1
 8006e4e:	d1f3      	bne.n	8006e38 <__sfputs_r+0xa>
 8006e50:	bdf8      	pop	{r3, r4, r5, r6, r7, pc}
	...

08006e54 <_vfiprintf_r>:
 8006e54:	e92d 4ff0 	stmdb	sp!, {r4, r5, r6, r7, r8, r9, sl, fp, lr}
 8006e58:	460d      	mov	r5, r1
 8006e5a:	b09d      	sub	sp, #116	; 0x74
 8006e5c:	4614      	mov	r4, r2
 8006e5e:	4698      	mov	r8, r3
 8006e60:	4606      	mov	r6, r0
 8006e62:	b118      	cbz	r0, 8006e6c <_vfiprintf_r+0x18>
 8006e64:	6983      	ldr	r3, [r0, #24]
 8006e66:	b90b      	cbnz	r3, 8006e6c <_vfiprintf_r+0x18>
 8006e68:	f000 fb14 	bl	8007494 <__sinit>
 8006e6c:	4b89      	ldr	r3, [pc, #548]	; (8007094 <_vfiprintf_r+0x240>)
 8006e6e:	429d      	cmp	r5, r3
 8006e70:	d11b      	bne.n	8006eaa <_vfiprintf_r+0x56>
 8006e72:	6875      	ldr	r5, [r6, #4]
 8006e74:	6e6b      	ldr	r3, [r5, #100]	; 0x64
 8006e76:	07d9      	lsls	r1, r3, #31
 8006e78:	d405      	bmi.n	8006e86 <_vfiprintf_r+0x32>
 8006e7a:	89ab      	ldrh	r3, [r5, #12]
 8006e7c:	059a      	lsls	r2, r3, #22
 8006e7e:	d402      	bmi.n	8006e86 <_vfiprintf_r+0x32>
 8006e80:	6da8      	ldr	r0, [r5, #88]	; 0x58
 8006e82:	f000 fba5 	bl	80075d0 <__retarget_lock_acquire_recursive>
 8006e86:	89ab      	ldrh	r3, [r5, #12]
 8006e88:	071b      	lsls	r3, r3, #28
 8006e8a:	d501      	bpl.n	8006e90 <_vfiprintf_r+0x3c>
 8006e8c:	692b      	ldr	r3, [r5, #16]
 8006e8e:	b9eb      	cbnz	r3, 8006ecc <_vfiprintf_r+0x78>
 8006e90:	4629      	mov	r1, r5
 8006e92:	4630      	mov	r0, r6
 8006e94:	f000 f96e 	bl	8007174 <__swsetup_r>
 8006e98:	b1c0      	cbz	r0, 8006ecc <_vfiprintf_r+0x78>
 8006e9a:	6e6b      	ldr	r3, [r5, #100]	; 0x64
 8006e9c:	07dc      	lsls	r4, r3, #31
 8006e9e:	d50e      	bpl.n	8006ebe <_vfiprintf_r+0x6a>
 8006ea0:	f04f 30ff 	mov.w	r0, #4294967295
 8006ea4:	b01d      	add	sp, #116	; 0x74
 8006ea6:	e8bd 8ff0 	ldmia.w	sp!, {r4, r5, r6, r7, r8, r9, sl, fp, pc}
 8006eaa:	4b7b      	ldr	r3, [pc, #492]	; (8007098 <_vfiprintf_r+0x244>)
 8006eac:	429d      	cmp	r5, r3
 8006eae:	d101      	bne.n	8006eb4 <_vfiprintf_r+0x60>
 8006eb0:	68b5      	ldr	r5, [r6, #8]
 8006eb2:	e7df      	b.n	8006e74 <_vfiprintf_r+0x20>
 8006eb4:	4b79      	ldr	r3, [pc, #484]	; (800709c <_vfiprintf_r+0x248>)
 8006eb6:	429d      	cmp	r5, r3
 8006eb8:	bf08      	it	eq
 8006eba:	68f5      	ldreq	r5, [r6, #12]
 8006ebc:	e7da      	b.n	8006e74 <_vfiprintf_r+0x20>
 8006ebe:	89ab      	ldrh	r3, [r5, #12]
 8006ec0:	0598      	lsls	r0, r3, #22
 8006ec2:	d4ed      	bmi.n	8006ea0 <_vfiprintf_r+0x4c>
 8006ec4:	6da8      	ldr	r0, [r5, #88]	; 0x58
 8006ec6:	f000 fb84 	bl	80075d2 <__retarget_lock_release_recursive>
 8006eca:	e7e9      	b.n	8006ea0 <_vfiprintf_r+0x4c>
 8006ecc:	2300      	movs	r3, #0
 8006ece:	9309      	str	r3, [sp, #36]	; 0x24
 8006ed0:	2320      	movs	r3, #32
 8006ed2:	f88d 3029 	strb.w	r3, [sp, #41]	; 0x29
 8006ed6:	f8cd 800c 	str.w	r8, [sp, #12]
 8006eda:	2330      	movs	r3, #48	; 0x30
 8006edc:	f8df 81c0 	ldr.w	r8, [pc, #448]	; 80070a0 <_vfiprintf_r+0x24c>
 8006ee0:	f88d 302a 	strb.w	r3, [sp, #42]	; 0x2a
 8006ee4:	f04f 0901 	mov.w	r9, #1
 8006ee8:	4623      	mov	r3, r4
 8006eea:	469a      	mov	sl, r3
 8006eec:	f813 2b01 	ldrb.w	r2, [r3], #1
 8006ef0:	b10a      	cbz	r2, 8006ef6 <_vfiprintf_r+0xa2>
 8006ef2:	2a25      	cmp	r2, #37	; 0x25
 8006ef4:	d1f9      	bne.n	8006eea <_vfiprintf_r+0x96>
 8006ef6:	ebba 0b04 	subs.w	fp, sl, r4
 8006efa:	d00b      	beq.n	8006f14 <_vfiprintf_r+0xc0>
 8006efc:	465b      	mov	r3, fp
 8006efe:	4622      	mov	r2, r4
 8006f00:	4629      	mov	r1, r5
 8006f02:	4630      	mov	r0, r6
 8006f04:	f7ff ff93 	bl	8006e2e <__sfputs_r>
 8006f08:	3001      	adds	r0, #1
 8006f0a:	f000 80aa 	beq.w	8007062 <_vfiprintf_r+0x20e>
 8006f0e:	9a09      	ldr	r2, [sp, #36]	; 0x24
 8006f10:	445a      	add	r2, fp
 8006f12:	9209      	str	r2, [sp, #36]	; 0x24
 8006f14:	f89a 3000 	ldrb.w	r3, [sl]
 8006f18:	2b00      	cmp	r3, #0
 8006f1a:	f000 80a2 	beq.w	8007062 <_vfiprintf_r+0x20e>
 8006f1e:	2300      	movs	r3, #0
 8006f20:	f04f 32ff 	mov.w	r2, #4294967295
 8006f24:	e9cd 2305 	strd	r2, r3, [sp, #20]
 8006f28:	f10a 0a01 	add.w	sl, sl, #1
 8006f2c:	9304      	str	r3, [sp, #16]
 8006f2e:	9307      	str	r3, [sp, #28]
 8006f30:	f88d 3053 	strb.w	r3, [sp, #83]	; 0x53
 8006f34:	931a      	str	r3, [sp, #104]	; 0x68
 8006f36:	4654      	mov	r4, sl
 8006f38:	2205      	movs	r2, #5
 8006f3a:	f814 1b01 	ldrb.w	r1, [r4], #1
 8006f3e:	4858      	ldr	r0, [pc, #352]	; (80070a0 <_vfiprintf_r+0x24c>)
 8006f40:	f7f9 f96e 	bl	8000220 <memchr>
 8006f44:	9a04      	ldr	r2, [sp, #16]
 8006f46:	b9d8      	cbnz	r0, 8006f80 <_vfiprintf_r+0x12c>
 8006f48:	06d1      	lsls	r1, r2, #27
 8006f4a:	bf44      	itt	mi
 8006f4c:	2320      	movmi	r3, #32
 8006f4e:	f88d 3053 	strbmi.w	r3, [sp, #83]	; 0x53
 8006f52:	0713      	lsls	r3, r2, #28
 8006f54:	bf44      	itt	mi
 8006f56:	232b      	movmi	r3, #43	; 0x2b
 8006f58:	f88d 3053 	strbmi.w	r3, [sp, #83]	; 0x53
 8006f5c:	f89a 3000 	ldrb.w	r3, [sl]
 8006f60:	2b2a      	cmp	r3, #42	; 0x2a
 8006f62:	d015      	beq.n	8006f90 <_vfiprintf_r+0x13c>
 8006f64:	9a07      	ldr	r2, [sp, #28]
 8006f66:	4654      	mov	r4, sl
 8006f68:	2000      	movs	r0, #0
 8006f6a:	f04f 0c0a 	mov.w	ip, #10
 8006f6e:	4621      	mov	r1, r4
 8006f70:	f811 3b01 	ldrb.w	r3, [r1], #1
 8006f74:	3b30      	subs	r3, #48	; 0x30
 8006f76:	2b09      	cmp	r3, #9
 8006f78:	d94e      	bls.n	8007018 <_vfiprintf_r+0x1c4>
 8006f7a:	b1b0      	cbz	r0, 8006faa <_vfiprintf_r+0x156>
 8006f7c:	9207      	str	r2, [sp, #28]
 8006f7e:	e014      	b.n	8006faa <_vfiprintf_r+0x156>
 8006f80:	eba0 0308 	sub.w	r3, r0, r8
 8006f84:	fa09 f303 	lsl.w	r3, r9, r3
 8006f88:	4313      	orrs	r3, r2
 8006f8a:	9304      	str	r3, [sp, #16]
 8006f8c:	46a2      	mov	sl, r4
 8006f8e:	e7d2      	b.n	8006f36 <_vfiprintf_r+0xe2>
 8006f90:	9b03      	ldr	r3, [sp, #12]
 8006f92:	1d19      	adds	r1, r3, #4
 8006f94:	681b      	ldr	r3, [r3, #0]
 8006f96:	9103      	str	r1, [sp, #12]
 8006f98:	2b00      	cmp	r3, #0
 8006f9a:	bfbb      	ittet	lt
 8006f9c:	425b      	neglt	r3, r3
 8006f9e:	f042 0202 	orrlt.w	r2, r2, #2
 8006fa2:	9307      	strge	r3, [sp, #28]
 8006fa4:	9307      	strlt	r3, [sp, #28]
 8006fa6:	bfb8      	it	lt
 8006fa8:	9204      	strlt	r2, [sp, #16]
 8006faa:	7823      	ldrb	r3, [r4, #0]
 8006fac:	2b2e      	cmp	r3, #46	; 0x2e
 8006fae:	d10c      	bne.n	8006fca <_vfiprintf_r+0x176>
 8006fb0:	7863      	ldrb	r3, [r4, #1]
 8006fb2:	2b2a      	cmp	r3, #42	; 0x2a
 8006fb4:	d135      	bne.n	8007022 <_vfiprintf_r+0x1ce>
 8006fb6:	9b03      	ldr	r3, [sp, #12]
 8006fb8:	1d1a      	adds	r2, r3, #4
 8006fba:	681b      	ldr	r3, [r3, #0]
 8006fbc:	9203      	str	r2, [sp, #12]
 8006fbe:	2b00      	cmp	r3, #0
 8006fc0:	bfb8      	it	lt
 8006fc2:	f04f 33ff 	movlt.w	r3, #4294967295
 8006fc6:	3402      	adds	r4, #2
 8006fc8:	9305      	str	r3, [sp, #20]
 8006fca:	f8df a0e4 	ldr.w	sl, [pc, #228]	; 80070b0 <_vfiprintf_r+0x25c>
 8006fce:	7821      	ldrb	r1, [r4, #0]
 8006fd0:	2203      	movs	r2, #3
 8006fd2:	4650      	mov	r0, sl
 8006fd4:	f7f9 f924 	bl	8000220 <memchr>
 8006fd8:	b140      	cbz	r0, 8006fec <_vfiprintf_r+0x198>
 8006fda:	2340      	movs	r3, #64	; 0x40
 8006fdc:	eba0 000a 	sub.w	r0, r0, sl
 8006fe0:	fa03 f000 	lsl.w	r0, r3, r0
 8006fe4:	9b04      	ldr	r3, [sp, #16]
 8006fe6:	4303      	orrs	r3, r0
 8006fe8:	3401      	adds	r4, #1
 8006fea:	9304      	str	r3, [sp, #16]
 8006fec:	f814 1b01 	ldrb.w	r1, [r4], #1
 8006ff0:	482c      	ldr	r0, [pc, #176]	; (80070a4 <_vfiprintf_r+0x250>)
 8006ff2:	f88d 1028 	strb.w	r1, [sp, #40]	; 0x28
 8006ff6:	2206      	movs	r2, #6
 8006ff8:	f7f9 f912 	bl	8000220 <memchr>
 8006ffc:	2800      	cmp	r0, #0
 8006ffe:	d03f      	beq.n	8007080 <_vfiprintf_r+0x22c>
 8007000:	4b29      	ldr	r3, [pc, #164]	; (80070a8 <_vfiprintf_r+0x254>)
 8007002:	bb1b      	cbnz	r3, 800704c <_vfiprintf_r+0x1f8>
 8007004:	9b03      	ldr	r3, [sp, #12]
 8007006:	3307      	adds	r3, #7
 8007008:	f023 0307 	bic.w	r3, r3, #7
 800700c:	3308      	adds	r3, #8
 800700e:	9303      	str	r3, [sp, #12]
 8007010:	9b09      	ldr	r3, [sp, #36]	; 0x24
 8007012:	443b      	add	r3, r7
 8007014:	9309      	str	r3, [sp, #36]	; 0x24
 8007016:	e767      	b.n	8006ee8 <_vfiprintf_r+0x94>
 8007018:	fb0c 3202 	mla	r2, ip, r2, r3
 800701c:	460c      	mov	r4, r1
 800701e:	2001      	movs	r0, #1
 8007020:	e7a5      	b.n	8006f6e <_vfiprintf_r+0x11a>
 8007022:	2300      	movs	r3, #0
 8007024:	3401      	adds	r4, #1
 8007026:	9305      	str	r3, [sp, #20]
 8007028:	4619      	mov	r1, r3
 800702a:	f04f 0c0a 	mov.w	ip, #10
 800702e:	4620      	mov	r0, r4
 8007030:	f810 2b01 	ldrb.w	r2, [r0], #1
 8007034:	3a30      	subs	r2, #48	; 0x30
 8007036:	2a09      	cmp	r2, #9
 8007038:	d903      	bls.n	8007042 <_vfiprintf_r+0x1ee>
 800703a:	2b00      	cmp	r3, #0
 800703c:	d0c5      	beq.n	8006fca <_vfiprintf_r+0x176>
 800703e:	9105      	str	r1, [sp, #20]
 8007040:	e7c3      	b.n	8006fca <_vfiprintf_r+0x176>
 8007042:	fb0c 2101 	mla	r1, ip, r1, r2
 8007046:	4604      	mov	r4, r0
 8007048:	2301      	movs	r3, #1
 800704a:	e7f0      	b.n	800702e <_vfiprintf_r+0x1da>
 800704c:	ab03      	add	r3, sp, #12
 800704e:	9300      	str	r3, [sp, #0]
 8007050:	462a      	mov	r2, r5
 8007052:	4b16      	ldr	r3, [pc, #88]	; (80070ac <_vfiprintf_r+0x258>)
 8007054:	a904      	add	r1, sp, #16
 8007056:	4630      	mov	r0, r6
 8007058:	f7fd fdee 	bl	8004c38 <_printf_float>
 800705c:	4607      	mov	r7, r0
 800705e:	1c78      	adds	r0, r7, #1
 8007060:	d1d6      	bne.n	8007010 <_vfiprintf_r+0x1bc>
 8007062:	6e6b      	ldr	r3, [r5, #100]	; 0x64
 8007064:	07d9      	lsls	r1, r3, #31
 8007066:	d405      	bmi.n	8007074 <_vfiprintf_r+0x220>
 8007068:	89ab      	ldrh	r3, [r5, #12]
 800706a:	059a      	lsls	r2, r3, #22
 800706c:	d402      	bmi.n	8007074 <_vfiprintf_r+0x220>
 800706e:	6da8      	ldr	r0, [r5, #88]	; 0x58
 8007070:	f000 faaf 	bl	80075d2 <__retarget_lock_release_recursive>
 8007074:	89ab      	ldrh	r3, [r5, #12]
 8007076:	065b      	lsls	r3, r3, #25
 8007078:	f53f af12 	bmi.w	8006ea0 <_vfiprintf_r+0x4c>
 800707c:	9809      	ldr	r0, [sp, #36]	; 0x24
 800707e:	e711      	b.n	8006ea4 <_vfiprintf_r+0x50>
 8007080:	ab03      	add	r3, sp, #12
 8007082:	9300      	str	r3, [sp, #0]
 8007084:	462a      	mov	r2, r5
 8007086:	4b09      	ldr	r3, [pc, #36]	; (80070ac <_vfiprintf_r+0x258>)
 8007088:	a904      	add	r1, sp, #16
 800708a:	4630      	mov	r0, r6
 800708c:	f7fe f878 	bl	8005180 <_printf_i>
 8007090:	e7e4      	b.n	800705c <_vfiprintf_r+0x208>
 8007092:	bf00      	nop
 8007094:	08007c94 	.word	0x08007c94
 8007098:	08007cb4 	.word	0x08007cb4
 800709c:	08007c74 	.word	0x08007c74
 80070a0:	08007b1c 	.word	0x08007b1c
 80070a4:	08007b26 	.word	0x08007b26
 80070a8:	08004c39 	.word	0x08004c39
 80070ac:	08006e2f 	.word	0x08006e2f
 80070b0:	08007b22 	.word	0x08007b22

080070b4 <__swbuf_r>:
 80070b4:	b5f8      	push	{r3, r4, r5, r6, r7, lr}
 80070b6:	460e      	mov	r6, r1
 80070b8:	4614      	mov	r4, r2
 80070ba:	4605      	mov	r5, r0
 80070bc:	b118      	cbz	r0, 80070c6 <__swbuf_r+0x12>
 80070be:	6983      	ldr	r3, [r0, #24]
 80070c0:	b90b      	cbnz	r3, 80070c6 <__swbuf_r+0x12>
 80070c2:	f000 f9e7 	bl	8007494 <__sinit>
 80070c6:	4b21      	ldr	r3, [pc, #132]	; (800714c <__swbuf_r+0x98>)
 80070c8:	429c      	cmp	r4, r3
 80070ca:	d12b      	bne.n	8007124 <__swbuf_r+0x70>
 80070cc:	686c      	ldr	r4, [r5, #4]
 80070ce:	69a3      	ldr	r3, [r4, #24]
 80070d0:	60a3      	str	r3, [r4, #8]
 80070d2:	89a3      	ldrh	r3, [r4, #12]
 80070d4:	071a      	lsls	r2, r3, #28
 80070d6:	d52f      	bpl.n	8007138 <__swbuf_r+0x84>
 80070d8:	6923      	ldr	r3, [r4, #16]
 80070da:	b36b      	cbz	r3, 8007138 <__swbuf_r+0x84>
 80070dc:	6923      	ldr	r3, [r4, #16]
 80070de:	6820      	ldr	r0, [r4, #0]
 80070e0:	1ac0      	subs	r0, r0, r3
 80070e2:	6963      	ldr	r3, [r4, #20]
 80070e4:	b2f6      	uxtb	r6, r6
 80070e6:	4283      	cmp	r3, r0
 80070e8:	4637      	mov	r7, r6
 80070ea:	dc04      	bgt.n	80070f6 <__swbuf_r+0x42>
 80070ec:	4621      	mov	r1, r4
 80070ee:	4628      	mov	r0, r5
 80070f0:	f000 f93c 	bl	800736c <_fflush_r>
 80070f4:	bb30      	cbnz	r0, 8007144 <__swbuf_r+0x90>
 80070f6:	68a3      	ldr	r3, [r4, #8]
 80070f8:	3b01      	subs	r3, #1
 80070fa:	60a3      	str	r3, [r4, #8]
 80070fc:	6823      	ldr	r3, [r4, #0]
 80070fe:	1c5a      	adds	r2, r3, #1
 8007100:	6022      	str	r2, [r4, #0]
 8007102:	701e      	strb	r6, [r3, #0]
 8007104:	6963      	ldr	r3, [r4, #20]
 8007106:	3001      	adds	r0, #1
 8007108:	4283      	cmp	r3, r0
 800710a:	d004      	beq.n	8007116 <__swbuf_r+0x62>
 800710c:	89a3      	ldrh	r3, [r4, #12]
 800710e:	07db      	lsls	r3, r3, #31
 8007110:	d506      	bpl.n	8007120 <__swbuf_r+0x6c>
 8007112:	2e0a      	cmp	r6, #10
 8007114:	d104      	bne.n	8007120 <__swbuf_r+0x6c>
 8007116:	4621      	mov	r1, r4
 8007118:	4628      	mov	r0, r5
 800711a:	f000 f927 	bl	800736c <_fflush_r>
 800711e:	b988      	cbnz	r0, 8007144 <__swbuf_r+0x90>
 8007120:	4638      	mov	r0, r7
 8007122:	bdf8      	pop	{r3, r4, r5, r6, r7, pc}
 8007124:	4b0a      	ldr	r3, [pc, #40]	; (8007150 <__swbuf_r+0x9c>)
 8007126:	429c      	cmp	r4, r3
 8007128:	d101      	bne.n	800712e <__swbuf_r+0x7a>
 800712a:	68ac      	ldr	r4, [r5, #8]
 800712c:	e7cf      	b.n	80070ce <__swbuf_r+0x1a>
 800712e:	4b09      	ldr	r3, [pc, #36]	; (8007154 <__swbuf_r+0xa0>)
 8007130:	429c      	cmp	r4, r3
 8007132:	bf08      	it	eq
 8007134:	68ec      	ldreq	r4, [r5, #12]
 8007136:	e7ca      	b.n	80070ce <__swbuf_r+0x1a>
 8007138:	4621      	mov	r1, r4
 800713a:	4628      	mov	r0, r5
 800713c:	f000 f81a 	bl	8007174 <__swsetup_r>
 8007140:	2800      	cmp	r0, #0
 8007142:	d0cb      	beq.n	80070dc <__swbuf_r+0x28>
 8007144:	f04f 37ff 	mov.w	r7, #4294967295
 8007148:	e7ea      	b.n	8007120 <__swbuf_r+0x6c>
 800714a:	bf00      	nop
 800714c:	08007c94 	.word	0x08007c94
 8007150:	08007cb4 	.word	0x08007cb4
 8007154:	08007c74 	.word	0x08007c74

08007158 <__ascii_wctomb>:
 8007158:	b149      	cbz	r1, 800716e <__ascii_wctomb+0x16>
 800715a:	2aff      	cmp	r2, #255	; 0xff
 800715c:	bf85      	ittet	hi
 800715e:	238a      	movhi	r3, #138	; 0x8a
 8007160:	6003      	strhi	r3, [r0, #0]
 8007162:	700a      	strbls	r2, [r1, #0]
 8007164:	f04f 30ff 	movhi.w	r0, #4294967295
 8007168:	bf98      	it	ls
 800716a:	2001      	movls	r0, #1
 800716c:	4770      	bx	lr
 800716e:	4608      	mov	r0, r1
 8007170:	4770      	bx	lr
	...

08007174 <__swsetup_r>:
 8007174:	4b32      	ldr	r3, [pc, #200]	; (8007240 <__swsetup_r+0xcc>)
 8007176:	b570      	push	{r4, r5, r6, lr}
 8007178:	681d      	ldr	r5, [r3, #0]
 800717a:	4606      	mov	r6, r0
 800717c:	460c      	mov	r4, r1
 800717e:	b125      	cbz	r5, 800718a <__swsetup_r+0x16>
 8007180:	69ab      	ldr	r3, [r5, #24]
 8007182:	b913      	cbnz	r3, 800718a <__swsetup_r+0x16>
 8007184:	4628      	mov	r0, r5
 8007186:	f000 f985 	bl	8007494 <__sinit>
 800718a:	4b2e      	ldr	r3, [pc, #184]	; (8007244 <__swsetup_r+0xd0>)
 800718c:	429c      	cmp	r4, r3
 800718e:	d10f      	bne.n	80071b0 <__swsetup_r+0x3c>
 8007190:	686c      	ldr	r4, [r5, #4]
 8007192:	89a3      	ldrh	r3, [r4, #12]
 8007194:	f9b4 200c 	ldrsh.w	r2, [r4, #12]
 8007198:	0719      	lsls	r1, r3, #28
 800719a:	d42c      	bmi.n	80071f6 <__swsetup_r+0x82>
 800719c:	06dd      	lsls	r5, r3, #27
 800719e:	d411      	bmi.n	80071c4 <__swsetup_r+0x50>
 80071a0:	2309      	movs	r3, #9
 80071a2:	6033      	str	r3, [r6, #0]
 80071a4:	f042 0340 	orr.w	r3, r2, #64	; 0x40
 80071a8:	81a3      	strh	r3, [r4, #12]
 80071aa:	f04f 30ff 	mov.w	r0, #4294967295
 80071ae:	e03e      	b.n	800722e <__swsetup_r+0xba>
 80071b0:	4b25      	ldr	r3, [pc, #148]	; (8007248 <__swsetup_r+0xd4>)
 80071b2:	429c      	cmp	r4, r3
 80071b4:	d101      	bne.n	80071ba <__swsetup_r+0x46>
 80071b6:	68ac      	ldr	r4, [r5, #8]
 80071b8:	e7eb      	b.n	8007192 <__swsetup_r+0x1e>
 80071ba:	4b24      	ldr	r3, [pc, #144]	; (800724c <__swsetup_r+0xd8>)
 80071bc:	429c      	cmp	r4, r3
 80071be:	bf08      	it	eq
 80071c0:	68ec      	ldreq	r4, [r5, #12]
 80071c2:	e7e6      	b.n	8007192 <__swsetup_r+0x1e>
 80071c4:	0758      	lsls	r0, r3, #29
 80071c6:	d512      	bpl.n	80071ee <__swsetup_r+0x7a>
 80071c8:	6b61      	ldr	r1, [r4, #52]	; 0x34
 80071ca:	b141      	cbz	r1, 80071de <__swsetup_r+0x6a>
 80071cc:	f104 0344 	add.w	r3, r4, #68	; 0x44
 80071d0:	4299      	cmp	r1, r3
 80071d2:	d002      	beq.n	80071da <__swsetup_r+0x66>
 80071d4:	4630      	mov	r0, r6
 80071d6:	f7ff fb6f 	bl	80068b8 <_free_r>
 80071da:	2300      	movs	r3, #0
 80071dc:	6363      	str	r3, [r4, #52]	; 0x34
 80071de:	89a3      	ldrh	r3, [r4, #12]
 80071e0:	f023 0324 	bic.w	r3, r3, #36	; 0x24
 80071e4:	81a3      	strh	r3, [r4, #12]
 80071e6:	2300      	movs	r3, #0
 80071e8:	6063      	str	r3, [r4, #4]
 80071ea:	6923      	ldr	r3, [r4, #16]
 80071ec:	6023      	str	r3, [r4, #0]
 80071ee:	89a3      	ldrh	r3, [r4, #12]
 80071f0:	f043 0308 	orr.w	r3, r3, #8
 80071f4:	81a3      	strh	r3, [r4, #12]
 80071f6:	6923      	ldr	r3, [r4, #16]
 80071f8:	b94b      	cbnz	r3, 800720e <__swsetup_r+0x9a>
 80071fa:	89a3      	ldrh	r3, [r4, #12]
 80071fc:	f403 7320 	and.w	r3, r3, #640	; 0x280
 8007200:	f5b3 7f00 	cmp.w	r3, #512	; 0x200
 8007204:	d003      	beq.n	800720e <__swsetup_r+0x9a>
 8007206:	4621      	mov	r1, r4
 8007208:	4630      	mov	r0, r6
 800720a:	f000 fa07 	bl	800761c <__smakebuf_r>
 800720e:	89a0      	ldrh	r0, [r4, #12]
 8007210:	f9b4 200c 	ldrsh.w	r2, [r4, #12]
 8007214:	f010 0301 	ands.w	r3, r0, #1
 8007218:	d00a      	beq.n	8007230 <__swsetup_r+0xbc>
 800721a:	2300      	movs	r3, #0
 800721c:	60a3      	str	r3, [r4, #8]
 800721e:	6963      	ldr	r3, [r4, #20]
 8007220:	425b      	negs	r3, r3
 8007222:	61a3      	str	r3, [r4, #24]
 8007224:	6923      	ldr	r3, [r4, #16]
 8007226:	b943      	cbnz	r3, 800723a <__swsetup_r+0xc6>
 8007228:	f010 0080 	ands.w	r0, r0, #128	; 0x80
 800722c:	d1ba      	bne.n	80071a4 <__swsetup_r+0x30>
 800722e:	bd70      	pop	{r4, r5, r6, pc}
 8007230:	0781      	lsls	r1, r0, #30
 8007232:	bf58      	it	pl
 8007234:	6963      	ldrpl	r3, [r4, #20]
 8007236:	60a3      	str	r3, [r4, #8]
 8007238:	e7f4      	b.n	8007224 <__swsetup_r+0xb0>
 800723a:	2000      	movs	r0, #0
 800723c:	e7f7      	b.n	800722e <__swsetup_r+0xba>
 800723e:	bf00      	nop
 8007240:	20000010 	.word	0x20000010
 8007244:	08007c94 	.word	0x08007c94
 8007248:	08007cb4 	.word	0x08007cb4
 800724c:	08007c74 	.word	0x08007c74

08007250 <abort>:
 8007250:	b508      	push	{r3, lr}
 8007252:	2006      	movs	r0, #6
 8007254:	f000 fa52 	bl	80076fc <raise>
 8007258:	2001      	movs	r0, #1
 800725a:	f7fa fa35 	bl	80016c8 <_exit>
	...

08007260 <__sflush_r>:
 8007260:	898a      	ldrh	r2, [r1, #12]
 8007262:	e92d 41f0 	stmdb	sp!, {r4, r5, r6, r7, r8, lr}
 8007266:	4605      	mov	r5, r0
 8007268:	0710      	lsls	r0, r2, #28
 800726a:	460c      	mov	r4, r1
 800726c:	d458      	bmi.n	8007320 <__sflush_r+0xc0>
 800726e:	684b      	ldr	r3, [r1, #4]
 8007270:	2b00      	cmp	r3, #0
 8007272:	dc05      	bgt.n	8007280 <__sflush_r+0x20>
 8007274:	6c0b      	ldr	r3, [r1, #64]	; 0x40
 8007276:	2b00      	cmp	r3, #0
 8007278:	dc02      	bgt.n	8007280 <__sflush_r+0x20>
 800727a:	2000      	movs	r0, #0
 800727c:	e8bd 81f0 	ldmia.w	sp!, {r4, r5, r6, r7, r8, pc}
 8007280:	6ae6      	ldr	r6, [r4, #44]	; 0x2c
 8007282:	2e00      	cmp	r6, #0
 8007284:	d0f9      	beq.n	800727a <__sflush_r+0x1a>
 8007286:	2300      	movs	r3, #0
 8007288:	f412 5280 	ands.w	r2, r2, #4096	; 0x1000
 800728c:	682f      	ldr	r7, [r5, #0]
 800728e:	602b      	str	r3, [r5, #0]
 8007290:	d032      	beq.n	80072f8 <__sflush_r+0x98>
 8007292:	6d60      	ldr	r0, [r4, #84]	; 0x54
 8007294:	89a3      	ldrh	r3, [r4, #12]
 8007296:	075a      	lsls	r2, r3, #29
 8007298:	d505      	bpl.n	80072a6 <__sflush_r+0x46>
 800729a:	6863      	ldr	r3, [r4, #4]
 800729c:	1ac0      	subs	r0, r0, r3
 800729e:	6b63      	ldr	r3, [r4, #52]	; 0x34
 80072a0:	b10b      	cbz	r3, 80072a6 <__sflush_r+0x46>
 80072a2:	6c23      	ldr	r3, [r4, #64]	; 0x40
 80072a4:	1ac0      	subs	r0, r0, r3
 80072a6:	2300      	movs	r3, #0
 80072a8:	4602      	mov	r2, r0
 80072aa:	6ae6      	ldr	r6, [r4, #44]	; 0x2c
 80072ac:	6a21      	ldr	r1, [r4, #32]
 80072ae:	4628      	mov	r0, r5
 80072b0:	47b0      	blx	r6
 80072b2:	1c43      	adds	r3, r0, #1
 80072b4:	89a3      	ldrh	r3, [r4, #12]
 80072b6:	d106      	bne.n	80072c6 <__sflush_r+0x66>
 80072b8:	6829      	ldr	r1, [r5, #0]
 80072ba:	291d      	cmp	r1, #29
 80072bc:	d82c      	bhi.n	8007318 <__sflush_r+0xb8>
 80072be:	4a2a      	ldr	r2, [pc, #168]	; (8007368 <__sflush_r+0x108>)
 80072c0:	40ca      	lsrs	r2, r1
 80072c2:	07d6      	lsls	r6, r2, #31
 80072c4:	d528      	bpl.n	8007318 <__sflush_r+0xb8>
 80072c6:	2200      	movs	r2, #0
 80072c8:	6062      	str	r2, [r4, #4]
 80072ca:	04d9      	lsls	r1, r3, #19
 80072cc:	6922      	ldr	r2, [r4, #16]
 80072ce:	6022      	str	r2, [r4, #0]
 80072d0:	d504      	bpl.n	80072dc <__sflush_r+0x7c>
 80072d2:	1c42      	adds	r2, r0, #1
 80072d4:	d101      	bne.n	80072da <__sflush_r+0x7a>
 80072d6:	682b      	ldr	r3, [r5, #0]
 80072d8:	b903      	cbnz	r3, 80072dc <__sflush_r+0x7c>
 80072da:	6560      	str	r0, [r4, #84]	; 0x54
 80072dc:	6b61      	ldr	r1, [r4, #52]	; 0x34
 80072de:	602f      	str	r7, [r5, #0]
 80072e0:	2900      	cmp	r1, #0
 80072e2:	d0ca      	beq.n	800727a <__sflush_r+0x1a>
 80072e4:	f104 0344 	add.w	r3, r4, #68	; 0x44
 80072e8:	4299      	cmp	r1, r3
 80072ea:	d002      	beq.n	80072f2 <__sflush_r+0x92>
 80072ec:	4628      	mov	r0, r5
 80072ee:	f7ff fae3 	bl	80068b8 <_free_r>
 80072f2:	2000      	movs	r0, #0
 80072f4:	6360      	str	r0, [r4, #52]	; 0x34
 80072f6:	e7c1      	b.n	800727c <__sflush_r+0x1c>
 80072f8:	6a21      	ldr	r1, [r4, #32]
 80072fa:	2301      	movs	r3, #1
 80072fc:	4628      	mov	r0, r5
 80072fe:	47b0      	blx	r6
 8007300:	1c41      	adds	r1, r0, #1
 8007302:	d1c7      	bne.n	8007294 <__sflush_r+0x34>
 8007304:	682b      	ldr	r3, [r5, #0]
 8007306:	2b00      	cmp	r3, #0
 8007308:	d0c4      	beq.n	8007294 <__sflush_r+0x34>
 800730a:	2b1d      	cmp	r3, #29
 800730c:	d001      	beq.n	8007312 <__sflush_r+0xb2>
 800730e:	2b16      	cmp	r3, #22
 8007310:	d101      	bne.n	8007316 <__sflush_r+0xb6>
 8007312:	602f      	str	r7, [r5, #0]
 8007314:	e7b1      	b.n	800727a <__sflush_r+0x1a>
 8007316:	89a3      	ldrh	r3, [r4, #12]
 8007318:	f043 0340 	orr.w	r3, r3, #64	; 0x40
 800731c:	81a3      	strh	r3, [r4, #12]
 800731e:	e7ad      	b.n	800727c <__sflush_r+0x1c>
 8007320:	690f      	ldr	r7, [r1, #16]
 8007322:	2f00      	cmp	r7, #0
 8007324:	d0a9      	beq.n	800727a <__sflush_r+0x1a>
 8007326:	0793      	lsls	r3, r2, #30
 8007328:	680e      	ldr	r6, [r1, #0]
 800732a:	bf08      	it	eq
 800732c:	694b      	ldreq	r3, [r1, #20]
 800732e:	600f      	str	r7, [r1, #0]
 8007330:	bf18      	it	ne
 8007332:	2300      	movne	r3, #0
 8007334:	eba6 0807 	sub.w	r8, r6, r7
 8007338:	608b      	str	r3, [r1, #8]
 800733a:	f1b8 0f00 	cmp.w	r8, #0
 800733e:	dd9c      	ble.n	800727a <__sflush_r+0x1a>
 8007340:	6a21      	ldr	r1, [r4, #32]
 8007342:	6aa6      	ldr	r6, [r4, #40]	; 0x28
 8007344:	4643      	mov	r3, r8
 8007346:	463a      	mov	r2, r7
 8007348:	4628      	mov	r0, r5
 800734a:	47b0      	blx	r6
 800734c:	2800      	cmp	r0, #0
 800734e:	dc06      	bgt.n	800735e <__sflush_r+0xfe>
 8007350:	89a3      	ldrh	r3, [r4, #12]
 8007352:	f043 0340 	orr.w	r3, r3, #64	; 0x40
 8007356:	81a3      	strh	r3, [r4, #12]
 8007358:	f04f 30ff 	mov.w	r0, #4294967295
 800735c:	e78e      	b.n	800727c <__sflush_r+0x1c>
 800735e:	4407      	add	r7, r0
 8007360:	eba8 0800 	sub.w	r8, r8, r0
 8007364:	e7e9      	b.n	800733a <__sflush_r+0xda>
 8007366:	bf00      	nop
 8007368:	20400001 	.word	0x20400001

0800736c <_fflush_r>:
 800736c:	b538      	push	{r3, r4, r5, lr}
 800736e:	690b      	ldr	r3, [r1, #16]
 8007370:	4605      	mov	r5, r0
 8007372:	460c      	mov	r4, r1
 8007374:	b913      	cbnz	r3, 800737c <_fflush_r+0x10>
 8007376:	2500      	movs	r5, #0
 8007378:	4628      	mov	r0, r5
 800737a:	bd38      	pop	{r3, r4, r5, pc}
 800737c:	b118      	cbz	r0, 8007386 <_fflush_r+0x1a>
 800737e:	6983      	ldr	r3, [r0, #24]
 8007380:	b90b      	cbnz	r3, 8007386 <_fflush_r+0x1a>
 8007382:	f000 f887 	bl	8007494 <__sinit>
 8007386:	4b14      	ldr	r3, [pc, #80]	; (80073d8 <_fflush_r+0x6c>)
 8007388:	429c      	cmp	r4, r3
 800738a:	d11b      	bne.n	80073c4 <_fflush_r+0x58>
 800738c:	686c      	ldr	r4, [r5, #4]
 800738e:	f9b4 300c 	ldrsh.w	r3, [r4, #12]
 8007392:	2b00      	cmp	r3, #0
 8007394:	d0ef      	beq.n	8007376 <_fflush_r+0xa>
 8007396:	6e62      	ldr	r2, [r4, #100]	; 0x64
 8007398:	07d0      	lsls	r0, r2, #31
 800739a:	d404      	bmi.n	80073a6 <_fflush_r+0x3a>
 800739c:	0599      	lsls	r1, r3, #22
 800739e:	d402      	bmi.n	80073a6 <_fflush_r+0x3a>
 80073a0:	6da0      	ldr	r0, [r4, #88]	; 0x58
 80073a2:	f000 f915 	bl	80075d0 <__retarget_lock_acquire_recursive>
 80073a6:	4628      	mov	r0, r5
 80073a8:	4621      	mov	r1, r4
 80073aa:	f7ff ff59 	bl	8007260 <__sflush_r>
 80073ae:	6e63      	ldr	r3, [r4, #100]	; 0x64
 80073b0:	07da      	lsls	r2, r3, #31
 80073b2:	4605      	mov	r5, r0
 80073b4:	d4e0      	bmi.n	8007378 <_fflush_r+0xc>
 80073b6:	89a3      	ldrh	r3, [r4, #12]
 80073b8:	059b      	lsls	r3, r3, #22
 80073ba:	d4dd      	bmi.n	8007378 <_fflush_r+0xc>
 80073bc:	6da0      	ldr	r0, [r4, #88]	; 0x58
 80073be:	f000 f908 	bl	80075d2 <__retarget_lock_release_recursive>
 80073c2:	e7d9      	b.n	8007378 <_fflush_r+0xc>
 80073c4:	4b05      	ldr	r3, [pc, #20]	; (80073dc <_fflush_r+0x70>)
 80073c6:	429c      	cmp	r4, r3
 80073c8:	d101      	bne.n	80073ce <_fflush_r+0x62>
 80073ca:	68ac      	ldr	r4, [r5, #8]
 80073cc:	e7df      	b.n	800738e <_fflush_r+0x22>
 80073ce:	4b04      	ldr	r3, [pc, #16]	; (80073e0 <_fflush_r+0x74>)
 80073d0:	429c      	cmp	r4, r3
 80073d2:	bf08      	it	eq
 80073d4:	68ec      	ldreq	r4, [r5, #12]
 80073d6:	e7da      	b.n	800738e <_fflush_r+0x22>
 80073d8:	08007c94 	.word	0x08007c94
 80073dc:	08007cb4 	.word	0x08007cb4
 80073e0:	08007c74 	.word	0x08007c74

080073e4 <std>:
 80073e4:	2300      	movs	r3, #0
 80073e6:	b510      	push	{r4, lr}
 80073e8:	4604      	mov	r4, r0
 80073ea:	e9c0 3300 	strd	r3, r3, [r0]
 80073ee:	e9c0 3304 	strd	r3, r3, [r0, #16]
 80073f2:	6083      	str	r3, [r0, #8]
 80073f4:	8181      	strh	r1, [r0, #12]
 80073f6:	6643      	str	r3, [r0, #100]	; 0x64
 80073f8:	81c2      	strh	r2, [r0, #14]
 80073fa:	6183      	str	r3, [r0, #24]
 80073fc:	4619      	mov	r1, r3
 80073fe:	2208      	movs	r2, #8
 8007400:	305c      	adds	r0, #92	; 0x5c
 8007402:	f7fd fb71 	bl	8004ae8 <memset>
 8007406:	4b05      	ldr	r3, [pc, #20]	; (800741c <std+0x38>)
 8007408:	6263      	str	r3, [r4, #36]	; 0x24
 800740a:	4b05      	ldr	r3, [pc, #20]	; (8007420 <std+0x3c>)
 800740c:	62a3      	str	r3, [r4, #40]	; 0x28
 800740e:	4b05      	ldr	r3, [pc, #20]	; (8007424 <std+0x40>)
 8007410:	62e3      	str	r3, [r4, #44]	; 0x2c
 8007412:	4b05      	ldr	r3, [pc, #20]	; (8007428 <std+0x44>)
 8007414:	6224      	str	r4, [r4, #32]
 8007416:	6323      	str	r3, [r4, #48]	; 0x30
 8007418:	bd10      	pop	{r4, pc}
 800741a:	bf00      	nop
 800741c:	08007735 	.word	0x08007735
 8007420:	08007757 	.word	0x08007757
 8007424:	0800778f 	.word	0x0800778f
 8007428:	080077b3 	.word	0x080077b3

0800742c <_cleanup_r>:
 800742c:	4901      	ldr	r1, [pc, #4]	; (8007434 <_cleanup_r+0x8>)
 800742e:	f000 b8af 	b.w	8007590 <_fwalk_reent>
 8007432:	bf00      	nop
 8007434:	0800736d 	.word	0x0800736d

08007438 <__sfmoreglue>:
 8007438:	b570      	push	{r4, r5, r6, lr}
 800743a:	1e4a      	subs	r2, r1, #1
 800743c:	2568      	movs	r5, #104	; 0x68
 800743e:	4355      	muls	r5, r2
 8007440:	460e      	mov	r6, r1
 8007442:	f105 0174 	add.w	r1, r5, #116	; 0x74
 8007446:	f7ff fa87 	bl	8006958 <_malloc_r>
 800744a:	4604      	mov	r4, r0
 800744c:	b140      	cbz	r0, 8007460 <__sfmoreglue+0x28>
 800744e:	2100      	movs	r1, #0
 8007450:	e9c0 1600 	strd	r1, r6, [r0]
 8007454:	300c      	adds	r0, #12
 8007456:	60a0      	str	r0, [r4, #8]
 8007458:	f105 0268 	add.w	r2, r5, #104	; 0x68
 800745c:	f7fd fb44 	bl	8004ae8 <memset>
 8007460:	4620      	mov	r0, r4
 8007462:	bd70      	pop	{r4, r5, r6, pc}

08007464 <__sfp_lock_acquire>:
 8007464:	4801      	ldr	r0, [pc, #4]	; (800746c <__sfp_lock_acquire+0x8>)
 8007466:	f000 b8b3 	b.w	80075d0 <__retarget_lock_acquire_recursive>
 800746a:	bf00      	nop
 800746c:	200003a4 	.word	0x200003a4

08007470 <__sfp_lock_release>:
 8007470:	4801      	ldr	r0, [pc, #4]	; (8007478 <__sfp_lock_release+0x8>)
 8007472:	f000 b8ae 	b.w	80075d2 <__retarget_lock_release_recursive>
 8007476:	bf00      	nop
 8007478:	200003a4 	.word	0x200003a4

0800747c <__sinit_lock_acquire>:
 800747c:	4801      	ldr	r0, [pc, #4]	; (8007484 <__sinit_lock_acquire+0x8>)
 800747e:	f000 b8a7 	b.w	80075d0 <__retarget_lock_acquire_recursive>
 8007482:	bf00      	nop
 8007484:	2000039f 	.word	0x2000039f

08007488 <__sinit_lock_release>:
 8007488:	4801      	ldr	r0, [pc, #4]	; (8007490 <__sinit_lock_release+0x8>)
 800748a:	f000 b8a2 	b.w	80075d2 <__retarget_lock_release_recursive>
 800748e:	bf00      	nop
 8007490:	2000039f 	.word	0x2000039f

08007494 <__sinit>:
 8007494:	b510      	push	{r4, lr}
 8007496:	4604      	mov	r4, r0
 8007498:	f7ff fff0 	bl	800747c <__sinit_lock_acquire>
 800749c:	69a3      	ldr	r3, [r4, #24]
 800749e:	b11b      	cbz	r3, 80074a8 <__sinit+0x14>
 80074a0:	e8bd 4010 	ldmia.w	sp!, {r4, lr}
 80074a4:	f7ff bff0 	b.w	8007488 <__sinit_lock_release>
 80074a8:	e9c4 3312 	strd	r3, r3, [r4, #72]	; 0x48
 80074ac:	6523      	str	r3, [r4, #80]	; 0x50
 80074ae:	4b13      	ldr	r3, [pc, #76]	; (80074fc <__sinit+0x68>)
 80074b0:	4a13      	ldr	r2, [pc, #76]	; (8007500 <__sinit+0x6c>)
 80074b2:	681b      	ldr	r3, [r3, #0]
 80074b4:	62a2      	str	r2, [r4, #40]	; 0x28
 80074b6:	42a3      	cmp	r3, r4
 80074b8:	bf04      	itt	eq
 80074ba:	2301      	moveq	r3, #1
 80074bc:	61a3      	streq	r3, [r4, #24]
 80074be:	4620      	mov	r0, r4
 80074c0:	f000 f820 	bl	8007504 <__sfp>
 80074c4:	6060      	str	r0, [r4, #4]
 80074c6:	4620      	mov	r0, r4
 80074c8:	f000 f81c 	bl	8007504 <__sfp>
 80074cc:	60a0      	str	r0, [r4, #8]
 80074ce:	4620      	mov	r0, r4
 80074d0:	f000 f818 	bl	8007504 <__sfp>
 80074d4:	2200      	movs	r2, #0
 80074d6:	60e0      	str	r0, [r4, #12]
 80074d8:	2104      	movs	r1, #4
 80074da:	6860      	ldr	r0, [r4, #4]
 80074dc:	f7ff ff82 	bl	80073e4 <std>
 80074e0:	68a0      	ldr	r0, [r4, #8]
 80074e2:	2201      	movs	r2, #1
 80074e4:	2109      	movs	r1, #9
 80074e6:	f7ff ff7d 	bl	80073e4 <std>
 80074ea:	68e0      	ldr	r0, [r4, #12]
 80074ec:	2202      	movs	r2, #2
 80074ee:	2112      	movs	r1, #18
 80074f0:	f7ff ff78 	bl	80073e4 <std>
 80074f4:	2301      	movs	r3, #1
 80074f6:	61a3      	str	r3, [r4, #24]
 80074f8:	e7d2      	b.n	80074a0 <__sinit+0xc>
 80074fa:	bf00      	nop
 80074fc:	080078f0 	.word	0x080078f0
 8007500:	0800742d 	.word	0x0800742d

08007504 <__sfp>:
 8007504:	b5f8      	push	{r3, r4, r5, r6, r7, lr}
 8007506:	4607      	mov	r7, r0
 8007508:	f7ff ffac 	bl	8007464 <__sfp_lock_acquire>
 800750c:	4b1e      	ldr	r3, [pc, #120]	; (8007588 <__sfp+0x84>)
 800750e:	681e      	ldr	r6, [r3, #0]
 8007510:	69b3      	ldr	r3, [r6, #24]
 8007512:	b913      	cbnz	r3, 800751a <__sfp+0x16>
 8007514:	4630      	mov	r0, r6
 8007516:	f7ff ffbd 	bl	8007494 <__sinit>
 800751a:	3648      	adds	r6, #72	; 0x48
 800751c:	e9d6 3401 	ldrd	r3, r4, [r6, #4]
 8007520:	3b01      	subs	r3, #1
 8007522:	d503      	bpl.n	800752c <__sfp+0x28>
 8007524:	6833      	ldr	r3, [r6, #0]
 8007526:	b30b      	cbz	r3, 800756c <__sfp+0x68>
 8007528:	6836      	ldr	r6, [r6, #0]
 800752a:	e7f7      	b.n	800751c <__sfp+0x18>
 800752c:	f9b4 500c 	ldrsh.w	r5, [r4, #12]
 8007530:	b9d5      	cbnz	r5, 8007568 <__sfp+0x64>
 8007532:	4b16      	ldr	r3, [pc, #88]	; (800758c <__sfp+0x88>)
 8007534:	60e3      	str	r3, [r4, #12]
 8007536:	f104 0058 	add.w	r0, r4, #88	; 0x58
 800753a:	6665      	str	r5, [r4, #100]	; 0x64
 800753c:	f000 f847 	bl	80075ce <__retarget_lock_init_recursive>
 8007540:	f7ff ff96 	bl	8007470 <__sfp_lock_release>
 8007544:	e9c4 5501 	strd	r5, r5, [r4, #4]
 8007548:	e9c4 5504 	strd	r5, r5, [r4, #16]
 800754c:	6025      	str	r5, [r4, #0]
 800754e:	61a5      	str	r5, [r4, #24]
 8007550:	2208      	movs	r2, #8
 8007552:	4629      	mov	r1, r5
 8007554:	f104 005c 	add.w	r0, r4, #92	; 0x5c
 8007558:	f7fd fac6 	bl	8004ae8 <memset>
 800755c:	e9c4 550d 	strd	r5, r5, [r4, #52]	; 0x34
 8007560:	e9c4 5512 	strd	r5, r5, [r4, #72]	; 0x48
 8007564:	4620      	mov	r0, r4
 8007566:	bdf8      	pop	{r3, r4, r5, r6, r7, pc}
 8007568:	3468      	adds	r4, #104	; 0x68
 800756a:	e7d9      	b.n	8007520 <__sfp+0x1c>
 800756c:	2104      	movs	r1, #4
 800756e:	4638      	mov	r0, r7
 8007570:	f7ff ff62 	bl	8007438 <__sfmoreglue>
 8007574:	4604      	mov	r4, r0
 8007576:	6030      	str	r0, [r6, #0]
 8007578:	2800      	cmp	r0, #0
 800757a:	d1d5      	bne.n	8007528 <__sfp+0x24>
 800757c:	f7ff ff78 	bl	8007470 <__sfp_lock_release>
 8007580:	230c      	movs	r3, #12
 8007582:	603b      	str	r3, [r7, #0]
 8007584:	e7ee      	b.n	8007564 <__sfp+0x60>
 8007586:	bf00      	nop
 8007588:	080078f0 	.word	0x080078f0
 800758c:	ffff0001 	.word	0xffff0001

08007590 <_fwalk_reent>:
 8007590:	e92d 43f8 	stmdb	sp!, {r3, r4, r5, r6, r7, r8, r9, lr}
 8007594:	4606      	mov	r6, r0
 8007596:	4688      	mov	r8, r1
 8007598:	f100 0448 	add.w	r4, r0, #72	; 0x48
 800759c:	2700      	movs	r7, #0
 800759e:	e9d4 9501 	ldrd	r9, r5, [r4, #4]
 80075a2:	f1b9 0901 	subs.w	r9, r9, #1
 80075a6:	d505      	bpl.n	80075b4 <_fwalk_reent+0x24>
 80075a8:	6824      	ldr	r4, [r4, #0]
 80075aa:	2c00      	cmp	r4, #0
 80075ac:	d1f7      	bne.n	800759e <_fwalk_reent+0xe>
 80075ae:	4638      	mov	r0, r7
 80075b0:	e8bd 83f8 	ldmia.w	sp!, {r3, r4, r5, r6, r7, r8, r9, pc}
 80075b4:	89ab      	ldrh	r3, [r5, #12]
 80075b6:	2b01      	cmp	r3, #1
 80075b8:	d907      	bls.n	80075ca <_fwalk_reent+0x3a>
 80075ba:	f9b5 300e 	ldrsh.w	r3, [r5, #14]
 80075be:	3301      	adds	r3, #1
 80075c0:	d003      	beq.n	80075ca <_fwalk_reent+0x3a>
 80075c2:	4629      	mov	r1, r5
 80075c4:	4630      	mov	r0, r6
 80075c6:	47c0      	blx	r8
 80075c8:	4307      	orrs	r7, r0
 80075ca:	3568      	adds	r5, #104	; 0x68
 80075cc:	e7e9      	b.n	80075a2 <_fwalk_reent+0x12>

080075ce <__retarget_lock_init_recursive>:
 80075ce:	4770      	bx	lr

080075d0 <__retarget_lock_acquire_recursive>:
 80075d0:	4770      	bx	lr

080075d2 <__retarget_lock_release_recursive>:
 80075d2:	4770      	bx	lr

080075d4 <__swhatbuf_r>:
 80075d4:	b570      	push	{r4, r5, r6, lr}
 80075d6:	460e      	mov	r6, r1
 80075d8:	f9b1 100e 	ldrsh.w	r1, [r1, #14]
 80075dc:	2900      	cmp	r1, #0
 80075de:	b096      	sub	sp, #88	; 0x58
 80075e0:	4614      	mov	r4, r2
 80075e2:	461d      	mov	r5, r3
 80075e4:	da07      	bge.n	80075f6 <__swhatbuf_r+0x22>
 80075e6:	2300      	movs	r3, #0
 80075e8:	602b      	str	r3, [r5, #0]
 80075ea:	89b3      	ldrh	r3, [r6, #12]
 80075ec:	061a      	lsls	r2, r3, #24
 80075ee:	d410      	bmi.n	8007612 <__swhatbuf_r+0x3e>
 80075f0:	f44f 6380 	mov.w	r3, #1024	; 0x400
 80075f4:	e00e      	b.n	8007614 <__swhatbuf_r+0x40>
 80075f6:	466a      	mov	r2, sp
 80075f8:	f000 f902 	bl	8007800 <_fstat_r>
 80075fc:	2800      	cmp	r0, #0
 80075fe:	dbf2      	blt.n	80075e6 <__swhatbuf_r+0x12>
 8007600:	9a01      	ldr	r2, [sp, #4]
 8007602:	f402 4270 	and.w	r2, r2, #61440	; 0xf000
 8007606:	f5a2 5300 	sub.w	r3, r2, #8192	; 0x2000
 800760a:	425a      	negs	r2, r3
 800760c:	415a      	adcs	r2, r3
 800760e:	602a      	str	r2, [r5, #0]
 8007610:	e7ee      	b.n	80075f0 <__swhatbuf_r+0x1c>
 8007612:	2340      	movs	r3, #64	; 0x40
 8007614:	2000      	movs	r0, #0
 8007616:	6023      	str	r3, [r4, #0]
 8007618:	b016      	add	sp, #88	; 0x58
 800761a:	bd70      	pop	{r4, r5, r6, pc}

0800761c <__smakebuf_r>:
 800761c:	898b      	ldrh	r3, [r1, #12]
 800761e:	b573      	push	{r0, r1, r4, r5, r6, lr}
 8007620:	079d      	lsls	r5, r3, #30
 8007622:	4606      	mov	r6, r0
 8007624:	460c      	mov	r4, r1
 8007626:	d507      	bpl.n	8007638 <__smakebuf_r+0x1c>
 8007628:	f104 0347 	add.w	r3, r4, #71	; 0x47
 800762c:	6023      	str	r3, [r4, #0]
 800762e:	6123      	str	r3, [r4, #16]
 8007630:	2301      	movs	r3, #1
 8007632:	6163      	str	r3, [r4, #20]
 8007634:	b002      	add	sp, #8
 8007636:	bd70      	pop	{r4, r5, r6, pc}
 8007638:	ab01      	add	r3, sp, #4
 800763a:	466a      	mov	r2, sp
 800763c:	f7ff ffca 	bl	80075d4 <__swhatbuf_r>
 8007640:	9900      	ldr	r1, [sp, #0]
 8007642:	4605      	mov	r5, r0
 8007644:	4630      	mov	r0, r6
 8007646:	f7ff f987 	bl	8006958 <_malloc_r>
 800764a:	b948      	cbnz	r0, 8007660 <__smakebuf_r+0x44>
 800764c:	f9b4 300c 	ldrsh.w	r3, [r4, #12]
 8007650:	059a      	lsls	r2, r3, #22
 8007652:	d4ef      	bmi.n	8007634 <__smakebuf_r+0x18>
 8007654:	f023 0303 	bic.w	r3, r3, #3
 8007658:	f043 0302 	orr.w	r3, r3, #2
 800765c:	81a3      	strh	r3, [r4, #12]
 800765e:	e7e3      	b.n	8007628 <__smakebuf_r+0xc>
 8007660:	4b0d      	ldr	r3, [pc, #52]	; (8007698 <__smakebuf_r+0x7c>)
 8007662:	62b3      	str	r3, [r6, #40]	; 0x28
 8007664:	89a3      	ldrh	r3, [r4, #12]
 8007666:	6020      	str	r0, [r4, #0]
 8007668:	f043 0380 	orr.w	r3, r3, #128	; 0x80
 800766c:	81a3      	strh	r3, [r4, #12]
 800766e:	9b00      	ldr	r3, [sp, #0]
 8007670:	6163      	str	r3, [r4, #20]
 8007672:	9b01      	ldr	r3, [sp, #4]
 8007674:	6120      	str	r0, [r4, #16]
 8007676:	b15b      	cbz	r3, 8007690 <__smakebuf_r+0x74>
 8007678:	f9b4 100e 	ldrsh.w	r1, [r4, #14]
 800767c:	4630      	mov	r0, r6
 800767e:	f000 f8d1 	bl	8007824 <_isatty_r>
 8007682:	b128      	cbz	r0, 8007690 <__smakebuf_r+0x74>
 8007684:	89a3      	ldrh	r3, [r4, #12]
 8007686:	f023 0303 	bic.w	r3, r3, #3
 800768a:	f043 0301 	orr.w	r3, r3, #1
 800768e:	81a3      	strh	r3, [r4, #12]
 8007690:	89a0      	ldrh	r0, [r4, #12]
 8007692:	4305      	orrs	r5, r0
 8007694:	81a5      	strh	r5, [r4, #12]
 8007696:	e7cd      	b.n	8007634 <__smakebuf_r+0x18>
 8007698:	0800742d 	.word	0x0800742d

0800769c <_malloc_usable_size_r>:
 800769c:	f851 3c04 	ldr.w	r3, [r1, #-4]
 80076a0:	1f18      	subs	r0, r3, #4
 80076a2:	2b00      	cmp	r3, #0
 80076a4:	bfbc      	itt	lt
 80076a6:	580b      	ldrlt	r3, [r1, r0]
 80076a8:	18c0      	addlt	r0, r0, r3
 80076aa:	4770      	bx	lr

080076ac <_raise_r>:
 80076ac:	291f      	cmp	r1, #31
 80076ae:	b538      	push	{r3, r4, r5, lr}
 80076b0:	4604      	mov	r4, r0
 80076b2:	460d      	mov	r5, r1
 80076b4:	d904      	bls.n	80076c0 <_raise_r+0x14>
 80076b6:	2316      	movs	r3, #22
 80076b8:	6003      	str	r3, [r0, #0]
 80076ba:	f04f 30ff 	mov.w	r0, #4294967295
 80076be:	bd38      	pop	{r3, r4, r5, pc}
 80076c0:	6c42      	ldr	r2, [r0, #68]	; 0x44
 80076c2:	b112      	cbz	r2, 80076ca <_raise_r+0x1e>
 80076c4:	f852 3021 	ldr.w	r3, [r2, r1, lsl #2]
 80076c8:	b94b      	cbnz	r3, 80076de <_raise_r+0x32>
 80076ca:	4620      	mov	r0, r4
 80076cc:	f000 f830 	bl	8007730 <_getpid_r>
 80076d0:	462a      	mov	r2, r5
 80076d2:	4601      	mov	r1, r0
 80076d4:	4620      	mov	r0, r4
 80076d6:	e8bd 4038 	ldmia.w	sp!, {r3, r4, r5, lr}
 80076da:	f000 b817 	b.w	800770c <_kill_r>
 80076de:	2b01      	cmp	r3, #1
 80076e0:	d00a      	beq.n	80076f8 <_raise_r+0x4c>
 80076e2:	1c59      	adds	r1, r3, #1
 80076e4:	d103      	bne.n	80076ee <_raise_r+0x42>
 80076e6:	2316      	movs	r3, #22
 80076e8:	6003      	str	r3, [r0, #0]
 80076ea:	2001      	movs	r0, #1
 80076ec:	e7e7      	b.n	80076be <_raise_r+0x12>
 80076ee:	2400      	movs	r4, #0
 80076f0:	f842 4025 	str.w	r4, [r2, r5, lsl #2]
 80076f4:	4628      	mov	r0, r5
 80076f6:	4798      	blx	r3
 80076f8:	2000      	movs	r0, #0
 80076fa:	e7e0      	b.n	80076be <_raise_r+0x12>

080076fc <raise>:
 80076fc:	4b02      	ldr	r3, [pc, #8]	; (8007708 <raise+0xc>)
 80076fe:	4601      	mov	r1, r0
 8007700:	6818      	ldr	r0, [r3, #0]
 8007702:	f7ff bfd3 	b.w	80076ac <_raise_r>
 8007706:	bf00      	nop
 8007708:	20000010 	.word	0x20000010

0800770c <_kill_r>:
 800770c:	b538      	push	{r3, r4, r5, lr}
 800770e:	4d07      	ldr	r5, [pc, #28]	; (800772c <_kill_r+0x20>)
 8007710:	2300      	movs	r3, #0
 8007712:	4604      	mov	r4, r0
 8007714:	4608      	mov	r0, r1
 8007716:	4611      	mov	r1, r2
 8007718:	602b      	str	r3, [r5, #0]
 800771a:	f7f9 ffc5 	bl	80016a8 <_kill>
 800771e:	1c43      	adds	r3, r0, #1
 8007720:	d102      	bne.n	8007728 <_kill_r+0x1c>
 8007722:	682b      	ldr	r3, [r5, #0]
 8007724:	b103      	cbz	r3, 8007728 <_kill_r+0x1c>
 8007726:	6023      	str	r3, [r4, #0]
 8007728:	bd38      	pop	{r3, r4, r5, pc}
 800772a:	bf00      	nop
 800772c:	20000398 	.word	0x20000398

08007730 <_getpid_r>:
 8007730:	f7f9 bfb2 	b.w	8001698 <_getpid>

08007734 <__sread>:
 8007734:	b510      	push	{r4, lr}
 8007736:	460c      	mov	r4, r1
 8007738:	f9b1 100e 	ldrsh.w	r1, [r1, #14]
 800773c:	f000 f894 	bl	8007868 <_read_r>
 8007740:	2800      	cmp	r0, #0
 8007742:	bfab      	itete	ge
 8007744:	6d63      	ldrge	r3, [r4, #84]	; 0x54
 8007746:	89a3      	ldrhlt	r3, [r4, #12]
 8007748:	181b      	addge	r3, r3, r0
 800774a:	f423 5380 	biclt.w	r3, r3, #4096	; 0x1000
 800774e:	bfac      	ite	ge
 8007750:	6563      	strge	r3, [r4, #84]	; 0x54
 8007752:	81a3      	strhlt	r3, [r4, #12]
 8007754:	bd10      	pop	{r4, pc}

08007756 <__swrite>:
 8007756:	e92d 41f0 	stmdb	sp!, {r4, r5, r6, r7, r8, lr}
 800775a:	461f      	mov	r7, r3
 800775c:	898b      	ldrh	r3, [r1, #12]
 800775e:	05db      	lsls	r3, r3, #23
 8007760:	4605      	mov	r5, r0
 8007762:	460c      	mov	r4, r1
 8007764:	4616      	mov	r6, r2
 8007766:	d505      	bpl.n	8007774 <__swrite+0x1e>
 8007768:	f9b1 100e 	ldrsh.w	r1, [r1, #14]
 800776c:	2302      	movs	r3, #2
 800776e:	2200      	movs	r2, #0
 8007770:	f000 f868 	bl	8007844 <_lseek_r>
 8007774:	89a3      	ldrh	r3, [r4, #12]
 8007776:	f9b4 100e 	ldrsh.w	r1, [r4, #14]
 800777a:	f423 5380 	bic.w	r3, r3, #4096	; 0x1000
 800777e:	81a3      	strh	r3, [r4, #12]
 8007780:	4632      	mov	r2, r6
 8007782:	463b      	mov	r3, r7
 8007784:	4628      	mov	r0, r5
 8007786:	e8bd 41f0 	ldmia.w	sp!, {r4, r5, r6, r7, r8, lr}
 800778a:	f000 b817 	b.w	80077bc <_write_r>

0800778e <__sseek>:
 800778e:	b510      	push	{r4, lr}
 8007790:	460c      	mov	r4, r1
 8007792:	f9b1 100e 	ldrsh.w	r1, [r1, #14]
 8007796:	f000 f855 	bl	8007844 <_lseek_r>
 800779a:	1c43      	adds	r3, r0, #1
 800779c:	89a3      	ldrh	r3, [r4, #12]
 800779e:	bf15      	itete	ne
 80077a0:	6560      	strne	r0, [r4, #84]	; 0x54
 80077a2:	f423 5380 	biceq.w	r3, r3, #4096	; 0x1000
 80077a6:	f443 5380 	orrne.w	r3, r3, #4096	; 0x1000
 80077aa:	81a3      	strheq	r3, [r4, #12]
 80077ac:	bf18      	it	ne
 80077ae:	81a3      	strhne	r3, [r4, #12]
 80077b0:	bd10      	pop	{r4, pc}

080077b2 <__sclose>:
 80077b2:	f9b1 100e 	ldrsh.w	r1, [r1, #14]
 80077b6:	f000 b813 	b.w	80077e0 <_close_r>
	...

080077bc <_write_r>:
 80077bc:	b538      	push	{r3, r4, r5, lr}
 80077be:	4d07      	ldr	r5, [pc, #28]	; (80077dc <_write_r+0x20>)
 80077c0:	4604      	mov	r4, r0
 80077c2:	4608      	mov	r0, r1
 80077c4:	4611      	mov	r1, r2
 80077c6:	2200      	movs	r2, #0
 80077c8:	602a      	str	r2, [r5, #0]
 80077ca:	461a      	mov	r2, r3
 80077cc:	f7f9 ffa3 	bl	8001716 <_write>
 80077d0:	1c43      	adds	r3, r0, #1
 80077d2:	d102      	bne.n	80077da <_write_r+0x1e>
 80077d4:	682b      	ldr	r3, [r5, #0]
 80077d6:	b103      	cbz	r3, 80077da <_write_r+0x1e>
 80077d8:	6023      	str	r3, [r4, #0]
 80077da:	bd38      	pop	{r3, r4, r5, pc}
 80077dc:	20000398 	.word	0x20000398

080077e0 <_close_r>:
 80077e0:	b538      	push	{r3, r4, r5, lr}
 80077e2:	4d06      	ldr	r5, [pc, #24]	; (80077fc <_close_r+0x1c>)
 80077e4:	2300      	movs	r3, #0
 80077e6:	4604      	mov	r4, r0
 80077e8:	4608      	mov	r0, r1
 80077ea:	602b      	str	r3, [r5, #0]
 80077ec:	f7f9 ffaf 	bl	800174e <_close>
 80077f0:	1c43      	adds	r3, r0, #1
 80077f2:	d102      	bne.n	80077fa <_close_r+0x1a>
 80077f4:	682b      	ldr	r3, [r5, #0]
 80077f6:	b103      	cbz	r3, 80077fa <_close_r+0x1a>
 80077f8:	6023      	str	r3, [r4, #0]
 80077fa:	bd38      	pop	{r3, r4, r5, pc}
 80077fc:	20000398 	.word	0x20000398

08007800 <_fstat_r>:
 8007800:	b538      	push	{r3, r4, r5, lr}
 8007802:	4d07      	ldr	r5, [pc, #28]	; (8007820 <_fstat_r+0x20>)
 8007804:	2300      	movs	r3, #0
 8007806:	4604      	mov	r4, r0
 8007808:	4608      	mov	r0, r1
 800780a:	4611      	mov	r1, r2
 800780c:	602b      	str	r3, [r5, #0]
 800780e:	f7f9 ffaa 	bl	8001766 <_fstat>
 8007812:	1c43      	adds	r3, r0, #1
 8007814:	d102      	bne.n	800781c <_fstat_r+0x1c>
 8007816:	682b      	ldr	r3, [r5, #0]
 8007818:	b103      	cbz	r3, 800781c <_fstat_r+0x1c>
 800781a:	6023      	str	r3, [r4, #0]
 800781c:	bd38      	pop	{r3, r4, r5, pc}
 800781e:	bf00      	nop
 8007820:	20000398 	.word	0x20000398

08007824 <_isatty_r>:
 8007824:	b538      	push	{r3, r4, r5, lr}
 8007826:	4d06      	ldr	r5, [pc, #24]	; (8007840 <_isatty_r+0x1c>)
 8007828:	2300      	movs	r3, #0
 800782a:	4604      	mov	r4, r0
 800782c:	4608      	mov	r0, r1
 800782e:	602b      	str	r3, [r5, #0]
 8007830:	f7f9 ffa9 	bl	8001786 <_isatty>
 8007834:	1c43      	adds	r3, r0, #1
 8007836:	d102      	bne.n	800783e <_isatty_r+0x1a>
 8007838:	682b      	ldr	r3, [r5, #0]
 800783a:	b103      	cbz	r3, 800783e <_isatty_r+0x1a>
 800783c:	6023      	str	r3, [r4, #0]
 800783e:	bd38      	pop	{r3, r4, r5, pc}
 8007840:	20000398 	.word	0x20000398

08007844 <_lseek_r>:
 8007844:	b538      	push	{r3, r4, r5, lr}
 8007846:	4d07      	ldr	r5, [pc, #28]	; (8007864 <_lseek_r+0x20>)
 8007848:	4604      	mov	r4, r0
 800784a:	4608      	mov	r0, r1
 800784c:	4611      	mov	r1, r2
 800784e:	2200      	movs	r2, #0
 8007850:	602a      	str	r2, [r5, #0]
 8007852:	461a      	mov	r2, r3
 8007854:	f7f9 ffa2 	bl	800179c <_lseek>
 8007858:	1c43      	adds	r3, r0, #1
 800785a:	d102      	bne.n	8007862 <_lseek_r+0x1e>
 800785c:	682b      	ldr	r3, [r5, #0]
 800785e:	b103      	cbz	r3, 8007862 <_lseek_r+0x1e>
 8007860:	6023      	str	r3, [r4, #0]
 8007862:	bd38      	pop	{r3, r4, r5, pc}
 8007864:	20000398 	.word	0x20000398

08007868 <_read_r>:
 8007868:	b538      	push	{r3, r4, r5, lr}
 800786a:	4d07      	ldr	r5, [pc, #28]	; (8007888 <_read_r+0x20>)
 800786c:	4604      	mov	r4, r0
 800786e:	4608      	mov	r0, r1
 8007870:	4611      	mov	r1, r2
 8007872:	2200      	movs	r2, #0
 8007874:	602a      	str	r2, [r5, #0]
 8007876:	461a      	mov	r2, r3
 8007878:	f7f9 ff30 	bl	80016dc <_read>
 800787c:	1c43      	adds	r3, r0, #1
 800787e:	d102      	bne.n	8007886 <_read_r+0x1e>
 8007880:	682b      	ldr	r3, [r5, #0]
 8007882:	b103      	cbz	r3, 8007886 <_read_r+0x1e>
 8007884:	6023      	str	r3, [r4, #0]
 8007886:	bd38      	pop	{r3, r4, r5, pc}
 8007888:	20000398 	.word	0x20000398

0800788c <_init>:
 800788c:	b5f8      	push	{r3, r4, r5, r6, r7, lr}
 800788e:	bf00      	nop
 8007890:	bcf8      	pop	{r3, r4, r5, r6, r7}
 8007892:	bc08      	pop	{r3}
 8007894:	469e      	mov	lr, r3
 8007896:	4770      	bx	lr

08007898 <_fini>:
 8007898:	b5f8      	push	{r3, r4, r5, r6, r7, lr}
 800789a:	bf00      	nop
 800789c:	bcf8      	pop	{r3, r4, r5, r6, r7}
 800789e:	bc08      	pop	{r3}
 80078a0:	469e      	mov	lr, r3
 80078a2:	4770      	bx	lr
